
motor_surface.elf:     file format elf32-littlenios2
motor_surface.elf
architecture: nios2, flags 0x00000112:
EXEC_P, HAS_SYMS, D_PAGED
start address 0x040001b4

Program Header:
    LOAD off    0x00001000 vaddr 0x04000000 paddr 0x04000000 align 2**12
         filesz 0x00000020 memsz 0x00000020 flags r-x
    LOAD off    0x00001020 vaddr 0x04000020 paddr 0x04000020 align 2**12
         filesz 0x00012014 memsz 0x00012014 flags r-x
    LOAD off    0x00013034 vaddr 0x04012034 paddr 0x04013c24 align 2**12
         filesz 0x00001bf0 memsz 0x00001bf0 flags rw-
    LOAD off    0x00015814 vaddr 0x04015814 paddr 0x04015814 align 2**12
         filesz 0x00000000 memsz 0x000002f4 flags rw-

Sections:
Idx Name          Size      VMA       LMA       File off  Algn
  0 .entry        00000020  04000000  04000000  00001000  2**5
                  CONTENTS, ALLOC, LOAD, READONLY, CODE
  1 .exceptions   00000194  04000020  04000020  00001020  2**2
                  CONTENTS, ALLOC, LOAD, READONLY, CODE
  2 .text         000118dc  040001b4  040001b4  000011b4  2**2
                  CONTENTS, ALLOC, LOAD, READONLY, CODE
  3 .rodata       000005a4  04011a90  04011a90  00012a90  2**2
                  CONTENTS, ALLOC, LOAD, READONLY, DATA
  4 .rwdata       00001bf0  04012034  04013c24  00013034  2**2
                  CONTENTS, ALLOC, LOAD, DATA, SMALL_DATA
  5 .bss          000002f4  04015814  04015814  00015814  2**2
                  ALLOC, SMALL_DATA
  6 .comment      00000026  00000000  00000000  00014c24  2**0
                  CONTENTS, READONLY
  7 .debug_aranges 00000ff8  00000000  00000000  00014c50  2**3
                  CONTENTS, READONLY, DEBUGGING
  8 .debug_pubnames 00001c38  00000000  00000000  00015c48  2**0
                  CONTENTS, READONLY, DEBUGGING
  9 .debug_info   0002b218  00000000  00000000  00017880  2**0
                  CONTENTS, READONLY, DEBUGGING
 10 .debug_abbrev 00009a83  00000000  00000000  00042a98  2**0
                  CONTENTS, READONLY, DEBUGGING
 11 .debug_line   000188f4  00000000  00000000  0004c51b  2**0
                  CONTENTS, READONLY, DEBUGGING
 12 .debug_frame  0000236c  00000000  00000000  00064e10  2**2
                  CONTENTS, READONLY, DEBUGGING
 13 .debug_str    0000248e  00000000  00000000  0006717c  2**0
                  CONTENTS, READONLY, DEBUGGING
 14 .debug_loc    0000d0a5  00000000  00000000  0006960a  2**0
                  CONTENTS, READONLY, DEBUGGING
 15 .debug_alt_sim_info 00000060  00000000  00000000  000766b0  2**2
                  CONTENTS, READONLY, DEBUGGING
 16 .debug_ranges 000009f8  00000000  00000000  00076710  2**3
                  CONTENTS, READONLY, DEBUGGING
 17 .thread_model 00000003  00000000  00000000  0007ae95  2**0
                  CONTENTS, READONLY
 18 .cpu          00000007  00000000  00000000  0007ae98  2**0
                  CONTENTS, READONLY
 19 .qsys         00000001  00000000  00000000  0007ae9f  2**0
                  CONTENTS, READONLY
 20 .simulation_enabled 00000001  00000000  00000000  0007aea0  2**0
                  CONTENTS, READONLY
 21 .stderr_dev   0000000b  00000000  00000000  0007aea1  2**0
                  CONTENTS, READONLY
 22 .stdin_dev    0000000b  00000000  00000000  0007aeac  2**0
                  CONTENTS, READONLY
 23 .stdout_dev   0000000b  00000000  00000000  0007aeb7  2**0
                  CONTENTS, READONLY
 24 .sopc_system_name 00000004  00000000  00000000  0007aec2  2**0
                  CONTENTS, READONLY
 25 .quartus_project_dir 00000049  00000000  00000000  0007aec6  2**0
                  CONTENTS, READONLY
 26 .sopcinfo     00067174  00000000  00000000  0007af0f  2**0
                  CONTENTS, READONLY
SYMBOL TABLE:
04000000 l    d  .entry	00000000 .entry
04000020 l    d  .exceptions	00000000 .exceptions
040001b4 l    d  .text	00000000 .text
04011a90 l    d  .rodata	00000000 .rodata
04012034 l    d  .rwdata	00000000 .rwdata
04015814 l    d  .bss	00000000 .bss
00000000 l    d  .comment	00000000 .comment
00000000 l    d  .debug_aranges	00000000 .debug_aranges
00000000 l    d  .debug_pubnames	00000000 .debug_pubnames
00000000 l    d  .debug_info	00000000 .debug_info
00000000 l    d  .debug_abbrev	00000000 .debug_abbrev
00000000 l    d  .debug_line	00000000 .debug_line
00000000 l    d  .debug_frame	00000000 .debug_frame
00000000 l    d  .debug_str	00000000 .debug_str
00000000 l    d  .debug_loc	00000000 .debug_loc
00000000 l    d  .debug_alt_sim_info	00000000 .debug_alt_sim_info
00000000 l    d  .debug_ranges	00000000 .debug_ranges
040001fc l       .text	00000000 alt_after_alt_main
00000000 l    df *ABS*	00000000 alt_irq_handler.c
00000000 l    df *ABS*	00000000 NiosProcess.c
00000000 l    df *ABS*	00000000 main.c
00000000 l    df *ABS*	00000000 imu.c
00000000 l    df *ABS*	00000000 pid.c
00000000 l    df *ABS*	00000000 motordriver.c
00000000 l    df *ABS*	00000000 timer.c
00000000 l    df *ABS*	00000000 uart.c
00000000 l    df *ABS*	00000000 libgcc2.c
00000000 l    df *ABS*	00000000 fp-bit.c
04003008 l     F .text	000001e4 _fpadd_parts
00000000 l    df *ABS*	00000000 fp-bit.c
00000000 l    df *ABS*	00000000 fp-bit.c
00000000 l    df *ABS*	00000000 fp-bit.c
00000000 l    df *ABS*	00000000 fp-bit.c
00000000 l    df *ABS*	00000000 fp-bit.c
00000000 l    df *ABS*	00000000 fp-bit.c
00000000 l    df *ABS*	00000000 fp-bit.c
00000000 l    df *ABS*	00000000 dp-bit.c
00000000 l    df *ABS*	00000000 lib2-divmod.c
04003608 l     F .text	0000007c udivmodsi4
00000000 l    df *ABS*	00000000 libgcc2.c
00000000 l    df *ABS*	00000000 fp-bit.c
00000000 l    df *ABS*	00000000 fp-bit.c
00000000 l    df *ABS*	00000000 fp-bit.c
00000000 l    df *ABS*	00000000 dp-bit.c
00000000 l    df *ABS*	00000000 libgcc2.c
00000000 l    df *ABS*	00000000 printf.c
00000000 l    df *ABS*	00000000 puts.c
00000000 l    df *ABS*	00000000 strlen.c
00000000 l    df *ABS*	00000000 vfprintf.c
04003f58 l     F .text	00000058 __sprint_r
04011e42 l     O .rodata	00000010 blanks.3452
04011e32 l     O .rodata	00000010 zeroes.3453
00000000 l    df *ABS*	00000000 wsetup.c
00000000 l    df *ABS*	00000000 dtoa.c
04005fbc l     F .text	00000218 quorem
00000000 l    df *ABS*	00000000 fflush.c
00000000 l    df *ABS*	00000000 findfp.c
040079b8 l     F .text	00000058 std
04007ac4 l     F .text	00000008 __fp_lock
04007acc l     F .text	00000008 __fp_unlock
00000000 l    df *ABS*	00000000 mallocr.c
00000000 l    df *ABS*	00000000 fvwrite.c
00000000 l    df *ABS*	00000000 fwalk.c
00000000 l    df *ABS*	00000000 impure.c
04012034 l     O .rwdata	00000400 impure_data
00000000 l    df *ABS*	00000000 locale.c
04013be8 l     O .rwdata	00000004 charset
04011e78 l     O .rodata	00000030 lconv
00000000 l    df *ABS*	00000000 makebuf.c
00000000 l    df *ABS*	00000000 mallocr.c
00000000 l    df *ABS*	00000000 memchr.c
00000000 l    df *ABS*	00000000 memcpy.c
00000000 l    df *ABS*	00000000 memmove.c
00000000 l    df *ABS*	00000000 memset.c
00000000 l    df *ABS*	00000000 mprec.c
04011fc0 l     O .rodata	0000000c p05.2458
00000000 l    df *ABS*	00000000 mallocr.c
00000000 l    df *ABS*	00000000 s_isinfd.c
00000000 l    df *ABS*	00000000 s_isnand.c
00000000 l    df *ABS*	00000000 sbrkr.c
00000000 l    df *ABS*	00000000 stdio.c
00000000 l    df *ABS*	00000000 strcmp.c
00000000 l    df *ABS*	00000000 writer.c
00000000 l    df *ABS*	00000000 mallocr.c
00000000 l    df *ABS*	00000000 closer.c
00000000 l    df *ABS*	00000000 fclose.c
00000000 l    df *ABS*	00000000 fstatr.c
00000000 l    df *ABS*	00000000 int_errno.c
00000000 l    df *ABS*	00000000 isattyr.c
00000000 l    df *ABS*	00000000 lseekr.c
00000000 l    df *ABS*	00000000 readr.c
00000000 l    df *ABS*	00000000 libgcc2.c
00000000 l    df *ABS*	00000000 libgcc2.c
00000000 l    df *ABS*	00000000 dp-bit.c
0400bc58 l     F .text	00000410 _fpadd_parts
00000000 l    df *ABS*	00000000 dp-bit.c
00000000 l    df *ABS*	00000000 dp-bit.c
00000000 l    df *ABS*	00000000 dp-bit.c
00000000 l    df *ABS*	00000000 dp-bit.c
00000000 l    df *ABS*	00000000 dp-bit.c
00000000 l    df *ABS*	00000000 dp-bit.c
00000000 l    df *ABS*	00000000 dp-bit.c
00000000 l    df *ABS*	00000000 dp-bit.c
00000000 l    df *ABS*	00000000 dp-bit.c
00000000 l    df *ABS*	00000000 dp-bit.c
00000000 l    df *ABS*	00000000 dp-bit.c
00000000 l    df *ABS*	00000000 libgcc2.c
00000000 l    df *ABS*	00000000 dp-bit.c
00000000 l    df *ABS*	00000000 dp-bit.c
00000000 l    df *ABS*	00000000 alt_close.c
0400d118 l     F .text	00000060 alt_get_errno
00000000 l    df *ABS*	00000000 alt_dev.c
0400d178 l     F .text	0000002c alt_dev_null_write
00000000 l    df *ABS*	00000000 alt_errno.c
00000000 l    df *ABS*	00000000 alt_fstat.c
0400d278 l     F .text	00000060 alt_get_errno
00000000 l    df *ABS*	00000000 alt_irq_register.c
00000000 l    df *ABS*	00000000 alt_irq_vars.c
00000000 l    df *ABS*	00000000 alt_isatty.c
0400d558 l     F .text	00000060 alt_get_errno
00000000 l    df *ABS*	00000000 alt_load.c
0400d638 l     F .text	0000006c alt_load_section
00000000 l    df *ABS*	00000000 alt_lseek.c
0400d794 l     F .text	00000060 alt_get_errno
00000000 l    df *ABS*	00000000 alt_main.c
00000000 l    df *ABS*	00000000 alt_malloc_lock.c
00000000 l    df *ABS*	00000000 alt_read.c
0400d9c0 l     F .text	00000060 alt_get_errno
00000000 l    df *ABS*	00000000 alt_release_fd.c
00000000 l    df *ABS*	00000000 alt_sbrk.c
04013c10 l     O .rwdata	00000004 heap_end
00000000 l    df *ABS*	00000000 alt_usleep.c
00000000 l    df *ABS*	00000000 alt_write.c
0400dc8c l     F .text	00000060 alt_get_errno
00000000 l    df *ABS*	00000000 alt_sys_init.c
040129f0 l     O .rwdata	000000c8 epcs_controlle
04012ab8 l     O .rwdata	00001060 jtag_uart_0
04013b18 l     O .rwdata	000000c4 uart0
0400ddb4 l     F .text	00000038 alt_dev_reg
00000000 l    df *ABS*	00000000 altera_avalon_epcs_flash_controller.c
0400de78 l     F .text	00000288 alt_epcs_flash_query
0400de40 l     F .text	00000038 alt_flash_device_register
0400e100 l     F .text	00000108 alt_epcs_flash_memcmp
0400e588 l     F .text	00000094 alt_epcs_test_address
00000000 l    df *ABS*	00000000 altera_avalon_jtag_uart_fd.c
00000000 l    df *ABS*	00000000 altera_avalon_jtag_uart_init.c
0400e9d8 l     F .text	00000228 altera_avalon_jtag_uart_irq
0400ec00 l     F .text	000000b0 altera_avalon_jtag_uart_timeout
00000000 l    df *ABS*	00000000 altera_avalon_jtag_uart_ioctl.c
00000000 l    df *ABS*	00000000 altera_avalon_jtag_uart_read.c
00000000 l    df *ABS*	00000000 altera_avalon_jtag_uart_write.c
00000000 l    df *ABS*	00000000 altera_avalon_timer_vars.c
00000000 l    df *ABS*	00000000 altera_avalon_uart_fd.c
00000000 l    df *ABS*	00000000 altera_avalon_uart_init.c
0400f43c l     F .text	0000009c altera_avalon_uart_irq
0400f4d8 l     F .text	000000e0 altera_avalon_uart_rxirq
0400f5b8 l     F .text	0000015c altera_avalon_uart_txirq
00000000 l    df *ABS*	00000000 altera_avalon_uart_read.c
0400f9a4 l     F .text	00000060 alt_get_errno
00000000 l    df *ABS*	00000000 altera_avalon_uart_write.c
0400fbcc l     F .text	00000060 alt_get_errno
00000000 l    df *ABS*	00000000 epcs_commands.c
0400fd84 l     F .text	00000038 epcs_await_wip_released
0400fdbc l     F .text	00000038 epcs_test_wip
00000000 l    df *ABS*	00000000 alt_alarm_start.c
00000000 l    df *ABS*	00000000 alt_busy_sleep.c
00000000 l    df *ABS*	00000000 alt_dcache_flush_all.c
00000000 l    df *ABS*	00000000 alt_dev_llist_insert.c
04010698 l     F .text	00000060 alt_get_errno
00000000 l    df *ABS*	00000000 alt_do_ctors.c
00000000 l    df *ABS*	00000000 alt_do_dtors.c
00000000 l    df *ABS*	00000000 alt_flash_dev.c
00000000 l    df *ABS*	00000000 alt_icache_flush_all.c
00000000 l    df *ABS*	00000000 alt_iic.c
00000000 l    df *ABS*	00000000 alt_iic_isr_register.c
00000000 l    df *ABS*	00000000 alt_io_redirect.c
04010b8c l     F .text	000000c4 alt_open_fd
00000000 l    df *ABS*	00000000 alt_open.c
04010cc8 l     F .text	000000dc alt_file_locked
04010f2c l     F .text	00000060 alt_get_errno
00000000 l    df *ABS*	00000000 alt_tick.c
00000000 l    df *ABS*	00000000 altera_nios2_qsys_irq.c
00000000 l    df *ABS*	00000000 altera_avalon_spi.c
00000000 l    df *ABS*	00000000 alt_find_dev.c
00000000 l    df *ABS*	00000000 alt_find_file.c
00000000 l    df *ABS*	00000000 alt_get_fd.c
00000000 l    df *ABS*	00000000 alt_icache_flush.c
00000000 l    df *ABS*	00000000 atexit.c
00000000 l    df *ABS*	00000000 exit.c
00000000 l    df *ABS*	00000000 memcmp.c
00000000 l    df *ABS*	00000000 __atexit.c
00000000 l    df *ABS*	00000000 __call_atexit.c
04011878 l     F .text	00000004 register_fini
00000000 l    df *ABS*	00000000 alt_exit.c
04011a2c l     F .text	00000040 alt_sim_halt
04009774 g     F .text	00000094 _mprec_log10
0400e488 g     F .text	00000090 alt_epcs_flash_get_info
04009860 g     F .text	00000088 __any_on
0400af6c g     F .text	00000070 _isatty_r
04011f98 g     O .rodata	00000028 __mprec_tinytens
0400d7f4 g     F .text	0000006c alt_main
040020b0 g     F .text	000000e0 InitMotorValue
040022cc g     F .text	000000bc Send4XwheelPwm
04003e30 g     F .text	000000a0 _puts_r
04015878 g     O .bss	00000100 alt_irq
0400afdc g     F .text	00000078 _lseek_r
04013c24 g       *ABS*	00000000 __flash_rwdata_start
0400c778 g     F .text	00000088 __eqdf2
04015b08 g       *ABS*	00000000 __alt_heap_start
04003db8 g     F .text	00000044 printf
0400aa38 g     F .text	00000068 __sseek
04007a20 g     F .text	000000a4 __sinit
04002ba0 g     F .text	00000058 DoDisableTimerInterrupt
040086f8 g     F .text	00000084 _setlocale_r
04007b20 g     F .text	00000068 __sfmoreglue
0400d880 g     F .text	00000020 __malloc_unlock
04002c8c g     F .text	00000078 TimerISR
04002388 g     F .text	00000078 Send4XwheelDir
04000bb0 g     F .text	00000dfc PackUartDataToHost
04015844 g     O .bss	00000004 altera_avalon_timer_ts_freq
040091f0 g     F .text	000000e0 memmove
04007b10 g     F .text	00000010 _cleanup
040098e8 g     F .text	000000bc _Balloc
04003428 g     F .text	00000094 __fixsfsi
04000200 g     F .text	0000005c NiosProcessMain
0400c888 g     F .text	00000088 __gtdf2
00000000  w      *UND*	00000000 __errno
0400fc8c g     F .text	000000f8 epcs_sector_erase
04000000 g     F .entry	0000001c __reset
04000020 g       *ABS*	00000000 __flash_exceptions_start
0400aef8 g     F .text	00000074 _fstat_r
0401582c g     O .bss	00000004 errno
040035d0 g     F .text	00000038 __make_dp
0400053c g     F .text	00000234 UnpackHostPackage
04015838 g     O .bss	00000004 alt_argv
0401bbdc g       *ABS*	00000000 _gp
0400db3c g     F .text	00000030 usleep
040008d4 g     F .text	00000074 UarTxCrcCal
040031ec g     F .text	00000070 __subsf3
04000a94 g     F .text	0000011c UartRxbufProcess
04012870 g     O .rwdata	00000180 alt_fd_list
00000000 g       *ABS*	00000000 __alt_mem_epcs_controlle
0400ff90 g     F .text	00000064 epcs_write_status_register
04011388 g     F .text	00000094 alt_find_dev
04009150 g     F .text	000000a0 memcpy
04002e24 g     F .text	00000058 DoDisableUartInterrupt
04007b04 g     F .text	0000000c _cleanup_r
0400ca20 g     F .text	000000f8 __floatsidf
04010c50 g     F .text	00000078 alt_io_redirect
04000770 g     F .text	00000164 UnPackUartDataFromHost
0400c998 g     F .text	00000088 __ltdf2
04011a90 g       *ABS*	00000000 __DTOR_END__
04003ed0 g     F .text	00000014 puts
0400e61c g     F .text	0000011c alt_epcs_flash_write_block
040096c4 g     F .text	000000b0 __ratio
0400ee18 g     F .text	00000224 altera_avalon_jtag_uart_read
00000000  w      *UND*	00000000 malloc
04003dfc g     F .text	00000034 _printf_r
04003744 g     F .text	00000008 __udivsi3
0400d498 g     F .text	000000c0 isatty
04011ea8 g     O .rodata	000000c8 __mprec_tens
040086d4 g     F .text	00000008 __locale_charset
040115f4 g     F .text	00000090 alt_icache_flush
04015820 g     O .bss	00000004 __malloc_top_pad
04013be4 g     O .rwdata	00000004 __mb_cur_max
040086dc g     F .text	0000000c _localeconv_r
04009fe0 g     F .text	0000003c __i2b
040080b8 g     F .text	0000049c __sfvwrite_r
0400a9c0 g     F .text	00000070 _sbrk_r
0400b054 g     F .text	00000078 _read_r
04012434 g     O .rwdata	0000000c __lc_ctype
04013c04 g     O .rwdata	00000004 alt_max_fd
0400ce1c g     F .text	00000138 __unpack_d
0400add4 g     F .text	00000110 _fclose_r
04007984 g     F .text	00000034 fflush
04015824 g     O .bss	00000004 __malloc_max_sbrked_mem
0400d2d8 g     F .text	000001c0 alt_irq_register
040034bc g     F .text	00000054 __extendsfdf2
0400c0e8 g     F .text	00000074 __adddf3
0400e518 g     F .text	00000070 alt_epcs_flash_erase_block
040095a4 g     F .text	00000120 __b2d
04002f24 g     F .text	00000074 UartISR
0400b6a8 g     F .text	000005b0 __umoddi3
0400d6a4 g     F .text	000000f0 lseek
04013be0 g     O .rwdata	00000004 _global_impure_ptr
040102a8 g     F .text	00000058 epcs_exit_4_bytes_mode
0400a35c g     F .text	000005f4 _realloc_r
04015b08 g       *ABS*	00000000 __bss_end
04010a94 g     F .text	000000f8 alt_iic_isr_register
04011024 g     F .text	0000010c alt_tick
0400b0cc g     F .text	000005dc __udivdi3
04011f70 g     O .rodata	00000028 __mprec_bigtens
0400a23c g     F .text	00000120 __s2b
0400cbf0 g     F .text	00000194 __floatunsidf
040094c4 g     F .text	00000060 __mcmp
0400f374 g     F .text	000000c8 altera_avalon_uart_init
04007aec g     F .text	00000018 __fp_lock_all
04010a4c g     F .text	00000048 alt_ic_irq_enabled
04010f8c g     F .text	00000098 alt_alarm_stop
04015830 g     O .bss	00000004 alt_irq_active
0400222c g     F .text	000000a0 MotorTestFun
040000ec g     F .exceptions	000000c8 alt_irq_handler
04012848 g     O .rwdata	00000028 alt_dev_null
04003934 g     F .text	000000c8 __unpack_f
040105a0 g     F .text	00000044 alt_dcache_flush_all
04009390 g     F .text	00000070 __hi0bits
0400cb18 g     F .text	000000d8 __fixdfsi
04013c24 g       *ABS*	00000000 __ram_rwdata_end
040004e8 g     F .text	00000054 Thread2
04013bfc g     O .rwdata	00000008 alt_dev_list
0400db6c g     F .text	00000120 write
04002690 g     F .text	00000060 Read4XMotorEncoder
040032c0 g     F .text	00000078 __gtsf2
04012034 g       *ABS*	00000000 __ram_rodata_end
0400d1a4 g     F .text	000000d4 fstat
04001d3c g     F .text	000000a0 PIDinit
0400a11c g     F .text	00000120 __pow5mult
04015814 g     O .bss	00000004 __nlocale_changed
0400374c g     F .text	00000008 __umodsi3
04010164 g     F .text	0000006c epcs_read_electronic_signature
04001ddc g     F .text	000002d4 PIDctrl
04015b08 g       *ABS*	00000000 end
040037d4 g     F .text	00000160 __pack_f
0400fa04 g     F .text	000001c8 altera_avalon_uart_write
0400e918 g     F .text	000000c0 altera_avalon_jtag_uart_init
040025c8 g     F .text	00000050 ClearMotorSensorFifo
04011a8c g       *ABS*	00000000 __CTOR_LIST__
06000000 g       *ABS*	00000000 __alt_stack_pointer
0400f2d4 g     F .text	00000058 altera_avalon_uart_write_fd
04003754 g     F .text	00000080 __clzsi2
0400f32c g     F .text	00000048 altera_avalon_uart_close_fd
0400f03c g     F .text	00000240 altera_avalon_jtag_uart_write
04007a10 g     F .text	00000004 __sfp_lock_acquire
0400906c g     F .text	000000e4 memchr
04003fb0 g     F .text	00001eac ___vfprintf_internal_r
04007da4 g     F .text	00000314 _free_r
0401187c g     F .text	000001b0 __call_exitprocs
040026f0 g     F .text	000001a0 Read4XMotorSpeed
04015818 g     O .bss	00000004 __mlocale_changed
04013bf0 g     O .rwdata	00000004 __malloc_sbrk_base
040001b4 g     F .text	0000004c _start
04015848 g     O .bss	00000004 _alt_tick_rate
04002d04 g     F .text	0000009c SendUart
04002bf8 g     F .text	00000094 TimerISRInitial
04009cac g     F .text	0000014c __lshift
04011150 g     F .text	00000238 alt_avalon_spi_command
0401584c g     O .bss	00000004 _alt_nticks
0400d8a0 g     F .text	00000120 read
0400dd20 g     F .text	00000094 alt_sys_init
04011744 g     F .text	00000134 __register_exitproc
04009df8 g     F .text	000001e8 __multiply
0400ecb0 g     F .text	00000074 altera_avalon_jtag_uart_close
04002618 g     F .text	00000078 Read4XMotorDir
04012034 g       *ABS*	00000000 __ram_rwdata_start
04011a90 g       *ABS*	00000000 __ram_rodata_start
04015850 g     O .bss	00000028 __malloc_current_mallinfo
040099a4 g     F .text	0000017c __d2b
0400fc2c g     F .text	00000060 epcs_read_status_register
04002a7c g     F .text	00000124 DoEnableTimerInterrupt
0400e7d0 g     F .text	00000058 altera_avalon_jtag_uart_read_fd
0401153c g     F .text	000000b8 alt_get_fd
04010454 g     F .text	0000014c alt_busy_sleep
0400cf54 g     F .text	000000c8 __fpcmp_parts_d
0400ad64 g     F .text	00000070 _close_r
040101d0 g     F .text	00000080 epcs_read_device_id
040116d0 g     F .text	00000074 memcmp
0400e880 g     F .text	00000048 altera_avalon_jtag_uart_close_fd
04015b08 g       *ABS*	00000000 __alt_stack_base
0400e8c8 g     F .text	00000050 altera_avalon_jtag_uart_ioctl_fd
04005e80 g     F .text	0000013c __swsetup_r
0400c520 g     F .text	00000258 __divdf3
040002b0 g     F .text	00000074 Thread_UpdataHostCmd
04007b88 g     F .text	000000f0 __sfp
04001a88 g     F .text	000002b4 ReadIMU
04009808 g     F .text	00000058 __copybits
04012440 g     O .rwdata	00000408 __malloc_av_
04007a1c g     F .text	00000004 __sinit_lock_release
0400c15c g     F .text	000003c4 __muldf3
0400ab1c g     F .text	00000060 __sread
04011cc0 g     O .rodata	00000010 __thenan_sf
0401141c g     F .text	00000120 alt_find_file
040105e4 g     F .text	000000b4 alt_dev_llist_insert
0400d860 g     F .text	00000020 __malloc_lock
0400da80 g     F .text	000000bc sbrk
04007788 g     F .text	000001fc _fflush_r
0400acb0 g     F .text	000000b4 _calloc_r
04013c14 g     O .rwdata	00000008 alt_flash_dev_list
04015814 g       *ABS*	00000000 __bss_start
040092d0 g     F .text	00000098 memset
04001a50 g     F .text	00000038 main
0401583c g     O .bss	00000004 alt_envp
04015828 g     O .bss	00000004 __malloc_max_total_mem
04002da0 g     F .text	00000084 DoEnableUartInterrupt
0400e828 g     F .text	00000058 altera_avalon_jtag_uart_write_fd
040033b0 g     F .text	00000078 __ltsf2
04002e7c g     F .text	000000a8 UartISRInitial
0400aa30 g     F .text	00000008 __sclose
06000000 g       *ABS*	00000000 __alt_heap_limit
0400aee4 g     F .text	00000014 fclose
04015978 g     O .bss	00000190 _atexit0
040061d4 g     F .text	000015b4 _dtoa_r
0400892c g     F .text	00000740 _malloc_r
04013c08 g     O .rwdata	00000004 alt_errno
0400861c g     F .text	000000b8 _fwalk
04003684 g     F .text	00000060 __divsi3
04011fcc g     O .rodata	00000014 __thenan_df
04007c78 g     F .text	0000012c _malloc_trim_r
04011a90 g       *ABS*	00000000 __CTOR_END__
0400e208 g     F .text	00000280 alt_epcs_flash_write
0400ab7c g     F .text	000000bc strcmp
04011a90 g       *ABS*	00000000 __flash_rodata_start
04011a90 g       *ABS*	00000000 __DTOR_LIST__
0400c800 g     F .text	00000088 __nedf2
0400dcec g     F .text	00000034 alt_irq_init
0400da20 g     F .text	00000060 alt_release_fd
04011cd0 g     O .rodata	00000100 __clz_tab
0401581c g     O .bss	00000004 _PathLocale
04002400 g     F .text	000000a4 Send2XMotorDriverEnable
04011684 g     F .text	00000014 atexit
04003338 g     F .text	00000078 __gesf2
0400ac38 g     F .text	00000078 _write_r
04002190 g     F .text	0000009c MotorDriverInit
0400877c g     F .text	0000001c setlocale
04013bdc g     O .rwdata	00000004 _impure_ptr
04015834 g     O .bss	00000004 alt_argc
04015840 g     O .bss	00000004 altera_avalon_timer_ts_base
0401075c g     F .text	00000064 _do_dtors
04000000 g       *ABS*	00000000 __alt_mem_sdram_0
04000020 g       .exceptions	00000000 alt_irq_entry
04009524 g     F .text	00000080 __ulp
0400a950 g     F .text	00000040 __isinfd
04007ad4 g     F .text	00000018 __fp_unlock_all
04013bf4 g     O .rwdata	00000008 alt_fs_list
040024a4 g     F .text	00000124 Send4XClrMotorEncoder
040019ac g     F .text	000000a4 InitSystem
04000020 g       *ABS*	00000000 __ram_exceptions_start
040086e8 g     F .text	00000010 localeconv
0400fdf4 g     F .text	0000014c epcs_read_buffer
0400ddec g     F .text	00000054 alt_epcs_flash_init
040108c0 g     F .text	00000050 alt_ic_isr_register
04000948 g     F .text	00000074 UarRxCrcCal
04013c24 g       *ABS*	00000000 _edata
0400f27c g     F .text	00000058 altera_avalon_uart_read_fd
04015b08 g       *ABS*	00000000 _end
040107c0 g     F .text	0000007c alt_flash_open_dev
040001b4 g       *ABS*	00000000 __ram_exceptions_end
0400ed24 g     F .text	000000f4 altera_avalon_jtag_uart_ioctl
040109ac g     F .text	000000a0 alt_ic_irq_disable
04010250 g     F .text	00000058 epcs_enter_4_bytes_mode
0400aaa0 g     F .text	0000007c __swrite
04013bec g     O .rwdata	00000004 __malloc_trim_threshold
040009bc g     F .text	000000d8 UartTxbufProcess
04011130 g     F .text	00000020 altera_nios2_qsys_irq_init
04011698 g     F .text	00000038 exit
04008554 g     F .text	000000c8 _fwalk_reent
04003510 g     F .text	000000c0 __floatunsisf
04009b20 g     F .text	0000018c __mdiff
0401083c g     F .text	00000054 alt_flash_close_dev
040036e4 g     F .text	00000060 __modsi3
06000000 g       *ABS*	00000000 __alt_data_end
04000020 g     F .exceptions	00000000 alt_exception
04007a14 g     F .text	00000004 __sfp_lock_release
0400f714 g     F .text	00000060 altera_avalon_uart_close
04002f98 g     F .text	00000070 __fixunssfsi
040039fc g     F .text	000000a8 __fpcmp_parts_f
04011a6c g     F .text	00000020 _exit
0400a990 g     F .text	00000030 __isnand
04010300 g     F .text	00000154 alt_alarm_start
0400cd84 g     F .text	00000098 __muldi3
04008798 g     F .text	00000194 __smakebuf_r
0400025c g     F .text	00000054 Thread_ReadSensor
04003ee4 g     F .text	00000074 strlen
0400ff40 g     F .text	00000050 epcs_write_enable
04010da4 g     F .text	00000188 open
0400c910 g     F .text	00000088 __gedf2
04010890 g     F .text	00000030 alt_icache_flush_all
04000324 g     F .text	0000018c Thread_Controller
040004b0 g     F .text	00000038 Thread1
04013c0c g     O .rwdata	00000004 alt_priority_mask
04010910 g     F .text	0000009c alt_ic_irq_enable
04005e5c g     F .text	00000024 __vfprintf_internal
0400f774 g     F .text	00000230 altera_avalon_uart_read
0400c068 g     F .text	00000080 __subdf3
0400e738 g     F .text	00000098 alt_epcs_flash_read
04009400 g     F .text	000000c4 __lo0bits
04002890 g     F .text	000001ec Read4XMotorSensor
04013c1c g     O .rwdata	00000008 alt_alarm_list
040106f8 g     F .text	00000064 _do_ctors
0400d01c g     F .text	000000fc close
0400325c g     F .text	00000064 __addsf3
0400d5b8 g     F .text	00000080 alt_load
04003aa4 g     F .text	00000314 __pack_d
00000000  w      *UND*	00000000 free
04007a18 g     F .text	00000004 __sinit_lock_acquire
0400fff4 g     F .text	00000170 epcs_write_buffer
0400a01c g     F .text	00000100 __multadd
04009368 g     F .text	00000028 _Bfree



Disassembly of section .entry:

04000000 <__reset>:
#if NIOS2_ICACHE_SIZE > 0 && defined(ALT_ALLOW_CODE_AT_RESET) && !defined(ALT_SIM_OPTIMIZE)
    /* Assume the instruction cache size is always a power of two. */
#if NIOS2_ICACHE_SIZE > 0x8000
    movhi r2, %hi(NIOS2_ICACHE_SIZE)
#else
    movui r2, NIOS2_ICACHE_SIZE
 4000000:	00840014 	movui	r2,4096
#endif

0:
    initi r2
 4000004:	1001483a 	initi	r2
    addi r2, r2, -NIOS2_ICACHE_LINE_SIZE
 4000008:	10bff804 	addi	r2,r2,-32
    bgt r2, zero, 0b
 400000c:	00bffd16 	blt	zero,r2,4000004 <__reset+0x4>
 * Jump to the _start entry point in the .text section if reset code
 * is allowed or if optimizing for RTL simulation.
 */
#if defined(ALT_ALLOW_CODE_AT_RESET) || defined(ALT_SIM_OPTIMIZE)
    /* Jump to the _start entry point in the .text section. */
    movhi r1, %hi(_start)
 4000010:	00410034 	movhi	at,1024
    ori r1, r1, %lo(_start)
 4000014:	08406d14 	ori	at,at,436
    jmp r1
 4000018:	0800683a 	jmp	at
 400001c:	00000000 	call	0 <__alt_mem_epcs_controlle>

Disassembly of section .exceptions:

04000020 <alt_exception>:
         * Process an exception.  For all exceptions we must preserve all
         * caller saved registers on the stack (See the Nios2 ABI
         * documentation for details).
         */

        addi  sp, sp, -76
 4000020:	deffed04 	addi	sp,sp,-76

#endif

#endif

        stw   ra,  0(sp)
 4000024:	dfc00015 	stw	ra,0(sp)
        /*
         * Leave a gap in the stack frame at 4(sp) for the muldiv handler to
         * store zero into.
         */

        stw   r1,   8(sp)
 4000028:	d8400215 	stw	at,8(sp)
        stw   r2,  12(sp)
 400002c:	d8800315 	stw	r2,12(sp)
        stw   r3,  16(sp)
 4000030:	d8c00415 	stw	r3,16(sp)
        stw   r4,  20(sp)
 4000034:	d9000515 	stw	r4,20(sp)
        stw   r5,  24(sp)
 4000038:	d9400615 	stw	r5,24(sp)
        stw   r6,  28(sp)
 400003c:	d9800715 	stw	r6,28(sp)
        stw   r7,  32(sp)
 4000040:	d9c00815 	stw	r7,32(sp)

        rdctl r5, estatus
 4000044:	000b307a 	rdctl	r5,estatus

        stw   r8,  36(sp)
 4000048:	da000915 	stw	r8,36(sp)
        stw   r9,  40(sp)
 400004c:	da400a15 	stw	r9,40(sp)
        stw   r10, 44(sp)
 4000050:	da800b15 	stw	r10,44(sp)
        stw   r11, 48(sp)
 4000054:	dac00c15 	stw	r11,48(sp)
        stw   r12, 52(sp)
 4000058:	db000d15 	stw	r12,52(sp)
        stw   r13, 56(sp)
 400005c:	db400e15 	stw	r13,56(sp)
        stw   r14, 60(sp)
 4000060:	db800f15 	stw	r14,60(sp)
        stw   r15, 64(sp)
 4000064:	dbc01015 	stw	r15,64(sp)
        /*
         * ea-4 contains the address of the instruction being executed
         * when the exception occured. For interrupt exceptions, we will
         * will be re-issue the isntruction. Store it in 72(sp)
         */
        stw   r5,  68(sp)  /* estatus */
 4000068:	d9401115 	stw	r5,68(sp)
        addi  r15, ea, -4  /* instruction that caused exception */
 400006c:	ebffff04 	addi	r15,ea,-4
        stw   r15,  72(sp)
 4000070:	dbc01215 	stw	r15,72(sp)
#else
        /*
         * Test to see if the exception was a software exception or caused 
         * by an external interrupt, and vector accordingly.
         */
        rdctl r4, ipending
 4000074:	0009313a 	rdctl	r4,ipending
        andi  r2, r5, 1
 4000078:	2880004c 	andi	r2,r5,1
        beq   r2, zero, .Lnot_irq
 400007c:	10000326 	beq	r2,zero,400008c <alt_exception+0x6c>
        beq   r4, zero, .Lnot_irq
 4000080:	20000226 	beq	r4,zero,400008c <alt_exception+0x6c>
        /*
         * Now that all necessary registers have been preserved, call 
         * alt_irq_handler() to process the interrupts.
         */

        call alt_irq_handler
 4000084:	40000ec0 	call	40000ec <alt_irq_handler>

        .section .exceptions.irqreturn, "xa"

        br    .Lexception_exit
 4000088:	00000306 	br	4000098 <alt_exception+0x78>
         * upon completion, so we write ea (address of instruction *after*
         * the one where the exception occured) into 72(sp). The actual
         * instruction that caused the exception is written in r2, which these
         * handlers will utilize.
         */
        stw   ea,  72(sp)  /* Don't re-issue */
 400008c:	df401215 	stw	ea,72(sp)
        ldw   r2, -4(ea)   /* Instruction that caused exception */
 4000090:	e8bfff17 	ldw	r2,-4(ea)
#ifdef NIOS2_HAS_DEBUG_STUB
       /*
        *  Either tell the user now (if there is a debugger attached) or go into
        *  the debug monitor which will loop until a debugger is attached.
        */
        break
 4000094:	003da03a 	break	0
        /* 
         * Restore the saved registers, so that all general purpose registers 
         * have been restored to their state at the time the interrupt occured.
         */

        ldw   r5,  68(sp)
 4000098:	d9401117 	ldw	r5,68(sp)
        ldw   ea,  72(sp)  /* This becomes the PC once eret is executed */
 400009c:	df401217 	ldw	ea,72(sp)
        ldw   ra,   0(sp)
 40000a0:	dfc00017 	ldw	ra,0(sp)

        wrctl estatus, r5
 40000a4:	2801707a 	wrctl	estatus,r5

        ldw   r1,   8(sp)
 40000a8:	d8400217 	ldw	at,8(sp)
        ldw   r2,  12(sp)
 40000ac:	d8800317 	ldw	r2,12(sp)
        ldw   r3,  16(sp)
 40000b0:	d8c00417 	ldw	r3,16(sp)
        ldw   r4,  20(sp)
 40000b4:	d9000517 	ldw	r4,20(sp)
        ldw   r5,  24(sp)
 40000b8:	d9400617 	ldw	r5,24(sp)
        ldw   r6,  28(sp)
 40000bc:	d9800717 	ldw	r6,28(sp)
        ldw   r7,  32(sp)
 40000c0:	d9c00817 	ldw	r7,32(sp)
#ifdef ALT_STACK_CHECK
        ldw   et, %gprel(alt_exception_old_stack_limit)(gp)
#endif
#endif

        ldw   r8,  36(sp)
 40000c4:	da000917 	ldw	r8,36(sp)
        ldw   r9,  40(sp)
 40000c8:	da400a17 	ldw	r9,40(sp)
        ldw   r10, 44(sp)
 40000cc:	da800b17 	ldw	r10,44(sp)
        ldw   r11, 48(sp)
 40000d0:	dac00c17 	ldw	r11,48(sp)
        ldw   r12, 52(sp)
 40000d4:	db000d17 	ldw	r12,52(sp)
        ldw   r13, 56(sp)
 40000d8:	db400e17 	ldw	r13,56(sp)
        ldw   r14, 60(sp)
 40000dc:	db800f17 	ldw	r14,60(sp)
        ldw   r15, 64(sp)
 40000e0:	dbc01017 	ldw	r15,64(sp)
#endif

        ldw   sp,  76(sp)

#else
        addi  sp, sp, 76
 40000e4:	dec01304 	addi	sp,sp,76

        /*
         * Return to the interrupted instruction.
         */

        eret
 40000e8:	ef80083a 	eret

040000ec <alt_irq_handler>:
 * instruction is present if the macro ALT_CI_INTERRUPT_VECTOR defined.
 */

void alt_irq_handler (void) __attribute__ ((section (".exceptions")));
void alt_irq_handler (void)
{
 40000ec:	defff904 	addi	sp,sp,-28
 40000f0:	dfc00615 	stw	ra,24(sp)
 40000f4:	df000515 	stw	fp,20(sp)
 40000f8:	df000504 	addi	fp,sp,20
#ifndef NIOS2_EIC_PRESENT
static ALT_INLINE alt_u32 ALT_ALWAYS_INLINE alt_irq_pending (void)
{
  alt_u32 active;

  NIOS2_READ_IPENDING (active);
 40000fc:	0005313a 	rdctl	r2,ipending
 4000100:	e0bffc15 	stw	r2,-16(fp)

  return active;
 4000104:	e0bffc17 	ldw	r2,-16(fp)
   * Consider the case where the high priority interupt is asserted during
   * the interrupt entry sequence for a lower priority interrupt to see why
   * this is the case.
   */

  active = alt_irq_pending ();
 4000108:	e0bfff15 	stw	r2,-4(fp)

  do
  {
    i = 0;
 400010c:	e03ffd15 	stw	zero,-12(fp)
    mask = 1;
 4000110:	00800044 	movi	r2,1
 4000114:	e0bffe15 	stw	r2,-8(fp)
     * called to clear the interrupt condition.
     */

    do
    {
      if (active & mask)
 4000118:	e0ffff17 	ldw	r3,-4(fp)
 400011c:	e0bffe17 	ldw	r2,-8(fp)
 4000120:	1884703a 	and	r2,r3,r2
 4000124:	1005003a 	cmpeq	r2,r2,zero
 4000128:	1000161e 	bne	r2,zero,4000184 <alt_irq_handler+0x98>
      { 
#ifdef ALT_ENHANCED_INTERRUPT_API_PRESENT
        alt_irq[i].handler(alt_irq[i].context); 
 400012c:	e0bffd17 	ldw	r2,-12(fp)
 4000130:	00c10074 	movhi	r3,1025
 4000134:	18d61e04 	addi	r3,r3,22648
 4000138:	100490fa 	slli	r2,r2,3
 400013c:	10c5883a 	add	r2,r2,r3
 4000140:	11400017 	ldw	r5,0(r2)
 4000144:	e0bffd17 	ldw	r2,-12(fp)
 4000148:	00c10074 	movhi	r3,1025
 400014c:	18d61e04 	addi	r3,r3,22648
 4000150:	100490fa 	slli	r2,r2,3
 4000154:	10c5883a 	add	r2,r2,r3
 4000158:	10800104 	addi	r2,r2,4
 400015c:	11000017 	ldw	r4,0(r2)
 4000160:	283ee83a 	callr	r5
#ifndef NIOS2_EIC_PRESENT
static ALT_INLINE alt_u32 ALT_ALWAYS_INLINE alt_irq_pending (void)
{
  alt_u32 active;

  NIOS2_READ_IPENDING (active);
 4000164:	0005313a 	rdctl	r2,ipending
 4000168:	e0bffb15 	stw	r2,-20(fp)

  return active;
 400016c:	e0bffb17 	ldw	r2,-20(fp)
      mask <<= 1;
      i++;

    } while (1);

    active = alt_irq_pending ();
 4000170:	e0bfff15 	stw	r2,-4(fp)
    
  } while (active);
 4000174:	e0bfff17 	ldw	r2,-4(fp)
 4000178:	1004c03a 	cmpne	r2,r2,zero
 400017c:	103fe31e 	bne	r2,zero,400010c <alt_irq_handler+0x20>
 4000180:	00000706 	br	40001a0 <alt_irq_handler+0xb4>
#else
        alt_irq[i].handler(alt_irq[i].context, i); 
#endif
        break;
      }
      mask <<= 1;
 4000184:	e0bffe17 	ldw	r2,-8(fp)
 4000188:	1085883a 	add	r2,r2,r2
 400018c:	e0bffe15 	stw	r2,-8(fp)
      i++;
 4000190:	e0bffd17 	ldw	r2,-12(fp)
 4000194:	10800044 	addi	r2,r2,1
 4000198:	e0bffd15 	stw	r2,-12(fp)

    } while (1);
 400019c:	003fde06 	br	4000118 <alt_irq_handler+0x2c>
  /*
   * Notify the operating system that interrupt processing is complete.
   */ 

  ALT_OS_INT_EXIT();
}
 40001a0:	e037883a 	mov	sp,fp
 40001a4:	dfc00117 	ldw	ra,4(sp)
 40001a8:	df000017 	ldw	fp,0(sp)
 40001ac:	dec00204 	addi	sp,sp,8
 40001b0:	f800283a 	ret

Disassembly of section .text:

040001b4 <_start>:

    /* Assume the data cache size is always a power of two. */
#if NIOS2_DCACHE_SIZE > 0x8000
    movhi r2, %hi(NIOS2_DCACHE_SIZE)
#else
    movui r2, NIOS2_DCACHE_SIZE
 40001b4:	00820014 	movui	r2,2048
#endif

0:
    initd 0(r2)
 40001b8:	10000033 	initd	0(r2)
    addi r2, r2, -NIOS2_DCACHE_LINE_SIZE
 40001bc:	10bff804 	addi	r2,r2,-32
    bgt r2, zero, 0b
 40001c0:	00bffd16 	blt	zero,r2,40001b8 <_start+0x4>
#if (NIOS2_NUM_OF_SHADOW_REG_SETS == 0)    
    /*
     * Now that the caches are initialized, set up the stack pointer.
     * The value provided by the linker is assumed to be correctly aligned.
     */
    movhi sp, %hi(__alt_stack_pointer)
 40001c4:	06c18034 	movhi	sp,1536
    ori sp, sp, %lo(__alt_stack_pointer)
 40001c8:	dec00014 	ori	sp,sp,0

    /* Set up the global pointer. */
    movhi gp, %hi(_gp)
 40001cc:	06810074 	movhi	gp,1025
    ori gp, gp, %lo(_gp)
 40001d0:	d6aef714 	ori	gp,gp,48092
 */
#ifndef ALT_SIM_OPTIMIZE
    /* Log that the BSS is about to be cleared. */
    ALT_LOG_PUTS(alt_log_msg_bss)

    movhi r2, %hi(__bss_start)
 40001d4:	00810074 	movhi	r2,1025
    ori r2, r2, %lo(__bss_start)
 40001d8:	10960514 	ori	r2,r2,22548

    movhi r3, %hi(__bss_end)
 40001dc:	00c10074 	movhi	r3,1025
    ori r3, r3, %lo(__bss_end)
 40001e0:	18d6c214 	ori	r3,r3,23304

    beq r2, r3, 1f
 40001e4:	10c00326 	beq	r2,r3,40001f4 <_start+0x40>

0:
    stw zero, (r2)
 40001e8:	10000015 	stw	zero,0(r2)
    addi r2, r2, 4
 40001ec:	10800104 	addi	r2,r2,4
    bltu r2, r3, 0b
 40001f0:	10fffd36 	bltu	r2,r3,40001e8 <_start+0x34>
     * section aren't defined until alt_load() has been called).
     */
    mov   et, zero
#endif

    call alt_load
 40001f4:	400d5b80 	call	400d5b8 <alt_load>

    /* Log that alt_main is about to be called. */
    ALT_LOG_PUTS(alt_log_msg_alt_main)

    /* Call the C entry point. It should never return. */
    call alt_main
 40001f8:	400d7f40 	call	400d7f4 <alt_main>

040001fc <alt_after_alt_main>:

    /* Wait in infinite loop in case alt_main does return. */
alt_after_alt_main:
    br alt_after_alt_main
 40001fc:	003fff06 	br	40001fc <alt_after_alt_main>

04000200 <NiosProcessMain>:
/* put Nios data to uart package */
void PackUartDataToHost(sNios_s *sNios);

/*----------- declare function end ---------*/

void NiosProcessMain(sNios_s *sNios) {
 4000200:	defffd04 	addi	sp,sp,-12
 4000204:	dfc00215 	stw	ra,8(sp)
 4000208:	df000115 	stw	fp,4(sp)
 400020c:	df000104 	addi	fp,sp,4
 4000210:	e13fff15 	stw	r4,-4(fp)
    /* write time process to here */
    if(sNios->sTimer0.ucTimeout == 1){  /* check interrupt timeout */
 4000214:	e0bfff17 	ldw	r2,-4(fp)
 4000218:	10802903 	ldbu	r2,164(r2)
 400021c:	10803fcc 	andi	r2,r2,255
 4000220:	10800058 	cmpnei	r2,r2,1
 4000224:	1000081e 	bne	r2,zero,4000248 <NiosProcessMain+0x48>
        sNios->sTimer0.ucTimeout = 0;   /* clear timeout */
 4000228:	e0bfff17 	ldw	r2,-4(fp)
 400022c:	10002905 	stb	zero,164(r2)
        /* read sensor */
        Thread_ReadSensor(sNios);		/* read sensor value*/
 4000230:	e13fff17 	ldw	r4,-4(fp)
 4000234:	400025c0 	call	400025c <Thread_ReadSensor>
        /* update host command */
        Thread_UpdataHostCmd(sNios);	/* process Host package and update command */
 4000238:	e13fff17 	ldw	r4,-4(fp)
 400023c:	40002b00 	call	40002b0 <Thread_UpdataHostCmd>
        /* controller */
        Thread_Controller(sNios);
 4000240:	e13fff17 	ldw	r4,-4(fp)
 4000244:	40003240 	call	4000324 <Thread_Controller>
    }
}
 4000248:	e037883a 	mov	sp,fp
 400024c:	dfc00117 	ldw	ra,4(sp)
 4000250:	df000017 	ldw	fp,0(sp)
 4000254:	dec00204 	addi	sp,sp,8
 4000258:	f800283a 	ret

0400025c <Thread_ReadSensor>:

void Thread_ReadSensor(sNios_s *sNios) {
 400025c:	defffd04 	addi	sp,sp,-12
 4000260:	dfc00215 	stw	ra,8(sp)
 4000264:	df000115 	stw	fp,4(sp)
 4000268:	df000104 	addi	fp,sp,4
 400026c:	e13fff15 	stw	r4,-4(fp)
     Read4XMotorDir(&sNios->sMotor);    /* read motor feed back direction */
 4000270:	e13fff17 	ldw	r4,-4(fp)
 4000274:	40026180 	call	4002618 <Read4XMotorDir>
     Read4XMotorEncoder(&sNios->sMotor);/* read motor feedback encoder */
 4000278:	e13fff17 	ldw	r4,-4(fp)
 400027c:	40026900 	call	4002690 <Read4XMotorEncoder>
     Read4XMotorSpeed(&sNios->sMotor);  /* read motor speed */
 4000280:	e13fff17 	ldw	r4,-4(fp)
 4000284:	40026f00 	call	40026f0 <Read4XMotorSpeed>
     Read4XMotorSensor(&sNios->sMotor); /* read motor voltage and current */
 4000288:	e13fff17 	ldw	r4,-4(fp)
 400028c:	40028900 	call	4002890 <Read4XMotorSensor>
     ReadIMU(&sNios->sIMU);				/* read IMU sensor */
 4000290:	e0bfff17 	ldw	r2,-4(fp)
 4000294:	11007804 	addi	r4,r2,480
 4000298:	4001a880 	call	4001a88 <ReadIMU>
}
 400029c:	e037883a 	mov	sp,fp
 40002a0:	dfc00117 	ldw	ra,4(sp)
 40002a4:	df000017 	ldw	fp,0(sp)
 40002a8:	dec00204 	addi	sp,sp,8
 40002ac:	f800283a 	ret

040002b0 <Thread_UpdataHostCmd>:

void Thread_UpdataHostCmd(sNios_s *sNios) {
 40002b0:	defffd04 	addi	sp,sp,-12
 40002b4:	dfc00215 	stw	ra,8(sp)
 40002b8:	df000115 	stw	fp,4(sp)
 40002bc:	df000104 	addi	fp,sp,4
 40002c0:	e13fff15 	stw	r4,-4(fp)
    if((sNios->sTimer0.uiTICnt % HostCmdTimeUnit) == 0 ||(sNios->sTimer0.uiTICnt==1)){/* update Host Command time unit */
 40002c4:	e0bfff17 	ldw	r2,-4(fp)
 40002c8:	11002817 	ldw	r4,160(r2)
 40002cc:	01400784 	movi	r5,30
 40002d0:	400374c0 	call	400374c <__umodsi3>
 40002d4:	1005003a 	cmpeq	r2,r2,zero
 40002d8:	1000041e 	bne	r2,zero,40002ec <Thread_UpdataHostCmd+0x3c>
 40002dc:	e0bfff17 	ldw	r2,-4(fp)
 40002e0:	10802817 	ldw	r2,160(r2)
 40002e4:	10800058 	cmpnei	r2,r2,1
 40002e8:	1000091e 	bne	r2,zero,4000310 <Thread_UpdataHostCmd+0x60>
    	/* update motor Speed command*/
        sNios->sPID_MA.uiSpdCntCmd = 16;
 40002ec:	e0ffff17 	ldw	r3,-4(fp)
 40002f0:	00800404 	movi	r2,16
 40002f4:	18808415 	stw	r2,528(r3)
        sNios->sPID_MB.fRefCom = 0;
 40002f8:	e0bfff17 	ldw	r2,-4(fp)
 40002fc:	10009215 	stw	zero,584(r2)
        sNios->sPID_MC.fRefCom = 0;
 4000300:	e0bfff17 	ldw	r2,-4(fp)
 4000304:	10009f15 	stw	zero,636(r2)
        sNios->sPID_MD.fRefCom = 0;
 4000308:	e0bfff17 	ldw	r2,-4(fp)
 400030c:	1000ac15 	stw	zero,688(r2)
        /* update motor direction command*/

//        printf("MA_SPD=%x\n", sNios->sMotor.sMotorAp.uiMotorFBSpeed);

    }else {   /* do nothing */   }
}
 4000310:	e037883a 	mov	sp,fp
 4000314:	dfc00117 	ldw	ra,4(sp)
 4000318:	df000017 	ldw	fp,0(sp)
 400031c:	dec00204 	addi	sp,sp,8
 4000320:	f800283a 	ret

04000324 <Thread_Controller>:

void Thread_Controller(sNios_s *sNios) {
 4000324:	defffb04 	addi	sp,sp,-20
 4000328:	dfc00415 	stw	ra,16(sp)
 400032c:	df000315 	stw	fp,12(sp)
 4000330:	df000304 	addi	fp,sp,12
 4000334:	e13fff15 	stw	r4,-4(fp)
    float fSensor;

    if((sNios->sTimer0.uiTICnt % sNios->sPID_MA.uiControlTime) == 0){
 4000338:	e0bfff17 	ldw	r2,-4(fp)
 400033c:	11002817 	ldw	r4,160(r2)
 4000340:	e0bfff17 	ldw	r2,-4(fp)
 4000344:	11408d17 	ldw	r5,564(r2)
 4000348:	400374c0 	call	400374c <__umodsi3>
 400034c:	1004c03a 	cmpne	r2,r2,zero
 4000350:	1000521e 	bne	r2,zero,400049c <Thread_Controller+0x178>
       if(sNios->sMotor.sMotorAp.uiMotorFBSpeed != 0xdeadbeef){
 4000354:	e0bfff17 	ldw	r2,-4(fp)
 4000358:	10c00617 	ldw	r3,24(r2)
 400035c:	00b7abb4 	movhi	r2,57006
 4000360:	10afbbc4 	addi	r2,r2,-16657
 4000364:	18804d26 	beq	r3,r2,400049c <Thread_Controller+0x178>
//           printf("MA_SPD=%d\n", sNios->sMotor.sMotorAp.uiMotorFBSpeed);

       /* sensor value normalization */
           fSensor = ((float )sNios->sMotor.sMotorAp.uiMotorFBSpeed) / ((float ) MotorSpeedCnt24V);
 4000368:	e0bfff17 	ldw	r2,-4(fp)
 400036c:	11000617 	ldw	r4,24(r2)
 4000370:	40035100 	call	4003510 <__floatunsisf>
 4000374:	1007883a 	mov	r3,r2
 4000378:	0090a834 	movhi	r2,17056
 400037c:	1885fff2 	custom	255,r2,r3,r2
 4000380:	e0bffe15 	stw	r2,-8(fp)
           if(fSensor > 1.0 ) fSensor = 1;
 4000384:	e13ffe17 	ldw	r4,-8(fp)
 4000388:	014fe034 	movhi	r5,16256
 400038c:	40032c00 	call	40032c0 <__gtsf2>
 4000390:	10800048 	cmpgei	r2,r2,1
 4000394:	1000011e 	bne	r2,zero,400039c <Thread_Controller+0x78>
 4000398:	00000206 	br	40003a4 <Thread_Controller+0x80>
 400039c:	008fe034 	movhi	r2,16256
 40003a0:	e0bffe15 	stw	r2,-8(fp)

           sNios->sPID_MA.fRefCom = ((float)sNios->sPID_MA.uiSpdCntCmd) / ((float ) MotorSpeedCnt24V);
 40003a4:	e0bfff17 	ldw	r2,-4(fp)
 40003a8:	11008417 	ldw	r4,528(r2)
 40003ac:	40035100 	call	4003510 <__floatunsisf>
 40003b0:	1007883a 	mov	r3,r2
 40003b4:	0090a834 	movhi	r2,17056
 40003b8:	1887fff2 	custom	255,r3,r3,r2
 40003bc:	e0bfff17 	ldw	r2,-4(fp)
 40003c0:	10c08515 	stw	r3,532(r2)
           if(sNios->sPID_MA.fRefCom > 1.0 ) sNios->sPID_MA.fRefCom = 1.0;
 40003c4:	e0bfff17 	ldw	r2,-4(fp)
 40003c8:	10808517 	ldw	r2,532(r2)
 40003cc:	1009883a 	mov	r4,r2
 40003d0:	014fe034 	movhi	r5,16256
 40003d4:	40032c00 	call	40032c0 <__gtsf2>
 40003d8:	10800048 	cmpgei	r2,r2,1
 40003dc:	1000011e 	bne	r2,zero,40003e4 <Thread_Controller+0xc0>
 40003e0:	00000306 	br	40003f0 <Thread_Controller+0xcc>
 40003e4:	e0ffff17 	ldw	r3,-4(fp)
 40003e8:	008fe034 	movhi	r2,16256
 40003ec:	18808515 	stw	r2,532(r3)

        PIDctrl(&sNios->sPID_MA, fSensor); /* PID controller for Motor A*/
 40003f0:	e0bfff17 	ldw	r2,-4(fp)
 40003f4:	11008404 	addi	r4,r2,528
 40003f8:	e17ffe17 	ldw	r5,-8(fp)
 40003fc:	4001ddc0 	call	4001ddc <PIDctrl>
        /* update PWM command */
        /** export to motor driver */
        sNios->sMotor.sMotorAp.ucMotorPWM = (unsigned char )sNios->sPID_MA.iCtrlOutCmd; /* export to motor A driver*/
 4000400:	e0bfff17 	ldw	r2,-4(fp)
 4000404:	10809017 	ldw	r2,576(r2)
 4000408:	1007883a 	mov	r3,r2
 400040c:	e0bfff17 	ldw	r2,-4(fp)
 4000410:	10c00505 	stb	r3,20(r2)
        sNios->sMotor.sMotorBp.ucMotorPWM = (unsigned char )sNios->sPID_MB.iCtrlOutCmd; /* export to motor B driver*/
 4000414:	e0bfff17 	ldw	r2,-4(fp)
 4000418:	10809d17 	ldw	r2,628(r2)
 400041c:	1007883a 	mov	r3,r2
 4000420:	e0bfff17 	ldw	r2,-4(fp)
 4000424:	10c00d05 	stb	r3,52(r2)
        sNios->sMotor.sMotorCp.ucMotorPWM = (unsigned char )sNios->sPID_MC.iCtrlOutCmd; /* export to motor C driver*/
 4000428:	e0bfff17 	ldw	r2,-4(fp)
 400042c:	1080aa17 	ldw	r2,680(r2)
 4000430:	1007883a 	mov	r3,r2
 4000434:	e0bfff17 	ldw	r2,-4(fp)
 4000438:	10c01505 	stb	r3,84(r2)
        sNios->sMotor.sMotorDp.ucMotorPWM = (unsigned char )sNios->sPID_MD.iCtrlOutCmd; /* export to motor D driver*/
 400043c:	e0bfff17 	ldw	r2,-4(fp)
 4000440:	1080b717 	ldw	r2,732(r2)
 4000444:	1007883a 	mov	r3,r2
 4000448:	e0bfff17 	ldw	r2,-4(fp)
 400044c:	10c01d05 	stb	r3,116(r2)

        Send4XwheelPwm(&sNios->sMotor, sNios->sMotor.sMotorAp.ucMotorPWM, 0, 0, 0);  /* Stop 4 wheel PWM */
 4000450:	e13fff17 	ldw	r4,-4(fp)
 4000454:	e0bfff17 	ldw	r2,-4(fp)
 4000458:	10800503 	ldbu	r2,20(r2)
 400045c:	11403fcc 	andi	r5,r2,255
 4000460:	d8000015 	stw	zero,0(sp)
 4000464:	000d883a 	mov	r6,zero
 4000468:	000f883a 	mov	r7,zero
 400046c:	40022cc0 	call	40022cc <Send4XwheelPwm>
        Send4XwheelDir(&sNios->sMotor, 0, 1, 1, 1);    /* send motor direction, 0:CW, 1:CCW  */
 4000470:	e13fff17 	ldw	r4,-4(fp)
 4000474:	00800044 	movi	r2,1
 4000478:	d8800015 	stw	r2,0(sp)
 400047c:	000b883a 	mov	r5,zero
 4000480:	01800044 	movi	r6,1
 4000484:	01c00044 	movi	r7,1
 4000488:	40023880 	call	4002388 <Send4XwheelDir>
        Send2XMotorDriverEnable(&sNios->sMotor,1, 1);  /* open motor driver, 1: enable, 0: disable */
 400048c:	e13fff17 	ldw	r4,-4(fp)
 4000490:	01400044 	movi	r5,1
 4000494:	01800044 	movi	r6,1
 4000498:	40024000 	call	4002400 <Send2XMotorDriverEnable>
       }
//        printf("CMDA=%d\n",sNios->sPID_MA.fRefCom);

    }else {   /* do nothing */   }
}
 400049c:	e037883a 	mov	sp,fp
 40004a0:	dfc00117 	ldw	ra,4(sp)
 40004a4:	df000017 	ldw	fp,0(sp)
 40004a8:	dec00204 	addi	sp,sp,8
 40004ac:	f800283a 	ret

040004b0 <Thread1>:
void Thread1(sNios_s *sNios) {
 40004b0:	defffd04 	addi	sp,sp,-12
 40004b4:	dfc00215 	stw	ra,8(sp)
 40004b8:	df000115 	stw	fp,4(sp)
 40004bc:	df000104 	addi	fp,sp,4
 40004c0:	e13fff15 	stw	r4,-4(fp)
    if(sNios->sTimer0.uiTICnt%Thread1TimeUnit == 0){
        /* reflash motor data */
        UartTxbufProcess(sNios); 	/* Send data in TXbuf to Host */
 40004c4:	e13fff17 	ldw	r4,-4(fp)
 40004c8:	40009bc0 	call	40009bc <UartTxbufProcess>
        UartRxbufProcess(sNios); 	/* Receive uart data to Nios */
 40004cc:	e13fff17 	ldw	r4,-4(fp)
 40004d0:	4000a940 	call	4000a94 <UartRxbufProcess>
    } else { /* do nothing */ }
}
 40004d4:	e037883a 	mov	sp,fp
 40004d8:	dfc00117 	ldw	ra,4(sp)
 40004dc:	df000017 	ldw	fp,0(sp)
 40004e0:	dec00204 	addi	sp,sp,8
 40004e4:	f800283a 	ret

040004e8 <Thread2>:
void Thread2(sNios_s *sNios) {
 40004e8:	defffd04 	addi	sp,sp,-12
 40004ec:	dfc00215 	stw	ra,8(sp)
 40004f0:	df000115 	stw	fp,4(sp)
 40004f4:	df000104 	addi	fp,sp,4
 40004f8:	e13fff15 	stw	r4,-4(fp)
    if(sNios->sTimer0.uiTICnt%Thread2TimeUnit < 5 ){ /* A range to judge HOSt command */
 40004fc:	e0bfff17 	ldw	r2,-4(fp)
 4000500:	11002817 	ldw	r4,160(r2)
 4000504:	01400784 	movi	r5,30
 4000508:	400374c0 	call	400374c <__umodsi3>
 400050c:	10800168 	cmpgeui	r2,r2,5
 4000510:	1000051e 	bne	r2,zero,4000528 <Thread2+0x40>
      /* receive Host motor command */
      /* check receive data > 12 Bytes */
  //    printf("==>>>>>>>>>> Thread2.\n");
      printf(".\n");
 4000514:	01010074 	movhi	r4,1025
 4000518:	2106a404 	addi	r4,r4,6800
 400051c:	4003ed00 	call	4003ed0 <puts>
      UartTxbufProcess( sNios);
 4000520:	e13fff17 	ldw	r4,-4(fp)
 4000524:	40009bc0 	call	40009bc <UartTxbufProcess>
    } else { /* do nothing */ }
}
 4000528:	e037883a 	mov	sp,fp
 400052c:	dfc00117 	ldw	ra,4(sp)
 4000530:	df000017 	ldw	fp,0(sp)
 4000534:	dec00204 	addi	sp,sp,8
 4000538:	f800283a 	ret

0400053c <UnpackHostPackage>:

/* unpack host package, no test */
void UnpackHostPackage(sNios_s *sNios){
 400053c:	defffb04 	addi	sp,sp,-20
 4000540:	dfc00415 	stw	ra,16(sp)
 4000544:	df000315 	stw	fp,12(sp)
 4000548:	df000304 	addi	fp,sp,12
 400054c:	e13fff15 	stw	r4,-4(fp)
	 * 總共 13bytes
	 *--------------Uart接收資料(Host -> Nios) end-----------*/
	unsigned int idx;
	unsigned char cTmp;

	idx = sNios->sUart0.uiRxBuf_Head+1;
 4000550:	e0bfff17 	ldw	r2,-4(fp)
 4000554:	10805017 	ldw	r2,320(r2)
 4000558:	10800044 	addi	r2,r2,1
 400055c:	e0bffe15 	stw	r2,-8(fp)
	cTmp = sNios->sUart0.ucRxBuf[idx]; /* 1st byte, not package head */
 4000560:	e0fffe17 	ldw	r3,-8(fp)
 4000564:	e0bfff17 	ldw	r2,-4(fp)
 4000568:	1885883a 	add	r2,r3,r2
 400056c:	10802f04 	addi	r2,r2,188
 4000570:	10800043 	ldbu	r2,1(r2)
 4000574:	e0bffd05 	stb	r2,-12(fp)
	sNios->sMotor.sMotorAp.uiHostMotorDirCmd =  cTmp&0x01;     /* store motor A direction */
 4000578:	e0bffd03 	ldbu	r2,-12(fp)
 400057c:	10c0004c 	andi	r3,r2,1
 4000580:	e0bfff17 	ldw	r2,-4(fp)
 4000584:	10c00b15 	stw	r3,44(r2)
	sNios->sMotor.sMotorBp.uiHostMotorDirCmd = (cTmp&0x02)>>1; /* store motor B direction */
 4000588:	e0bffd03 	ldbu	r2,-12(fp)
 400058c:	1080008c 	andi	r2,r2,2
 4000590:	1005d07a 	srai	r2,r2,1
 4000594:	1007883a 	mov	r3,r2
 4000598:	e0bfff17 	ldw	r2,-4(fp)
 400059c:	10c01315 	stw	r3,76(r2)
	sNios->sMotor.sMotorCp.uiHostMotorDirCmd = (cTmp&0x04)>>2; /* store motor C direction */
 40005a0:	e0bffd03 	ldbu	r2,-12(fp)
 40005a4:	1080010c 	andi	r2,r2,4
 40005a8:	1005d0ba 	srai	r2,r2,2
 40005ac:	1007883a 	mov	r3,r2
 40005b0:	e0bfff17 	ldw	r2,-4(fp)
 40005b4:	10c01b15 	stw	r3,108(r2)
	sNios->sMotor.sMotorDp.uiHostMotorDirCmd = (cTmp&0x08)>>3; ;/* store motor D direction */
 40005b8:	e0bffd03 	ldbu	r2,-12(fp)
 40005bc:	1080020c 	andi	r2,r2,8
 40005c0:	1005d0fa 	srai	r2,r2,3
 40005c4:	1007883a 	mov	r3,r2
 40005c8:	e0bfff17 	ldw	r2,-4(fp)
 40005cc:	10c02315 	stw	r3,140(r2)
	idx++; /* 2~9, total 8 bytes */
 40005d0:	e0bffe17 	ldw	r2,-8(fp)
 40005d4:	10800044 	addi	r2,r2,1
 40005d8:	e0bffe15 	stw	r2,-8(fp)
	sNios->sMotor.sMotorAp.uiHostMotorSpdCmd = (sNios->sUart0.ucRxBuf[idx]<<8) + sNios->sUart0.ucRxBuf[idx+1]; idx+=2; /* need to check correct?*/
 40005dc:	e0fffe17 	ldw	r3,-8(fp)
 40005e0:	e0bfff17 	ldw	r2,-4(fp)
 40005e4:	1885883a 	add	r2,r3,r2
 40005e8:	10802f04 	addi	r2,r2,188
 40005ec:	10800043 	ldbu	r2,1(r2)
 40005f0:	10803fcc 	andi	r2,r2,255
 40005f4:	1008923a 	slli	r4,r2,8
 40005f8:	e0bffe17 	ldw	r2,-8(fp)
 40005fc:	10c00044 	addi	r3,r2,1
 4000600:	e0bfff17 	ldw	r2,-4(fp)
 4000604:	1885883a 	add	r2,r3,r2
 4000608:	10802f04 	addi	r2,r2,188
 400060c:	10800043 	ldbu	r2,1(r2)
 4000610:	10803fcc 	andi	r2,r2,255
 4000614:	2085883a 	add	r2,r4,r2
 4000618:	1007883a 	mov	r3,r2
 400061c:	e0bfff17 	ldw	r2,-4(fp)
 4000620:	10c00a15 	stw	r3,40(r2)
 4000624:	e0bffe17 	ldw	r2,-8(fp)
 4000628:	10800084 	addi	r2,r2,2
 400062c:	e0bffe15 	stw	r2,-8(fp)
	sNios->sMotor.sMotorBp.uiHostMotorSpdCmd = (sNios->sUart0.ucRxBuf[idx]<<8) + sNios->sUart0.ucRxBuf[idx+1]; idx+=2; /* need to check correct?*/
 4000630:	e0fffe17 	ldw	r3,-8(fp)
 4000634:	e0bfff17 	ldw	r2,-4(fp)
 4000638:	1885883a 	add	r2,r3,r2
 400063c:	10802f04 	addi	r2,r2,188
 4000640:	10800043 	ldbu	r2,1(r2)
 4000644:	10803fcc 	andi	r2,r2,255
 4000648:	1008923a 	slli	r4,r2,8
 400064c:	e0bffe17 	ldw	r2,-8(fp)
 4000650:	10c00044 	addi	r3,r2,1
 4000654:	e0bfff17 	ldw	r2,-4(fp)
 4000658:	1885883a 	add	r2,r3,r2
 400065c:	10802f04 	addi	r2,r2,188
 4000660:	10800043 	ldbu	r2,1(r2)
 4000664:	10803fcc 	andi	r2,r2,255
 4000668:	2085883a 	add	r2,r4,r2
 400066c:	1007883a 	mov	r3,r2
 4000670:	e0bfff17 	ldw	r2,-4(fp)
 4000674:	10c01215 	stw	r3,72(r2)
 4000678:	e0bffe17 	ldw	r2,-8(fp)
 400067c:	10800084 	addi	r2,r2,2
 4000680:	e0bffe15 	stw	r2,-8(fp)
	sNios->sMotor.sMotorCp.uiHostMotorSpdCmd = (sNios->sUart0.ucRxBuf[idx]<<8) + sNios->sUart0.ucRxBuf[idx+1]; idx+=2; /* need to check correct?*/
 4000684:	e0fffe17 	ldw	r3,-8(fp)
 4000688:	e0bfff17 	ldw	r2,-4(fp)
 400068c:	1885883a 	add	r2,r3,r2
 4000690:	10802f04 	addi	r2,r2,188
 4000694:	10800043 	ldbu	r2,1(r2)
 4000698:	10803fcc 	andi	r2,r2,255
 400069c:	1008923a 	slli	r4,r2,8
 40006a0:	e0bffe17 	ldw	r2,-8(fp)
 40006a4:	10c00044 	addi	r3,r2,1
 40006a8:	e0bfff17 	ldw	r2,-4(fp)
 40006ac:	1885883a 	add	r2,r3,r2
 40006b0:	10802f04 	addi	r2,r2,188
 40006b4:	10800043 	ldbu	r2,1(r2)
 40006b8:	10803fcc 	andi	r2,r2,255
 40006bc:	2085883a 	add	r2,r4,r2
 40006c0:	1007883a 	mov	r3,r2
 40006c4:	e0bfff17 	ldw	r2,-4(fp)
 40006c8:	10c01a15 	stw	r3,104(r2)
 40006cc:	e0bffe17 	ldw	r2,-8(fp)
 40006d0:	10800084 	addi	r2,r2,2
 40006d4:	e0bffe15 	stw	r2,-8(fp)
	sNios->sMotor.sMotorDp.uiHostMotorSpdCmd = (sNios->sUart0.ucRxBuf[idx]<<8) + sNios->sUart0.ucRxBuf[idx+1]; idx+=2; /* need to check correct?*/
 40006d8:	e0fffe17 	ldw	r3,-8(fp)
 40006dc:	e0bfff17 	ldw	r2,-4(fp)
 40006e0:	1885883a 	add	r2,r3,r2
 40006e4:	10802f04 	addi	r2,r2,188
 40006e8:	10800043 	ldbu	r2,1(r2)
 40006ec:	10803fcc 	andi	r2,r2,255
 40006f0:	1008923a 	slli	r4,r2,8
 40006f4:	e0bffe17 	ldw	r2,-8(fp)
 40006f8:	10c00044 	addi	r3,r2,1
 40006fc:	e0bfff17 	ldw	r2,-4(fp)
 4000700:	1885883a 	add	r2,r3,r2
 4000704:	10802f04 	addi	r2,r2,188
 4000708:	10800043 	ldbu	r2,1(r2)
 400070c:	10803fcc 	andi	r2,r2,255
 4000710:	2085883a 	add	r2,r4,r2
 4000714:	1007883a 	mov	r3,r2
 4000718:	e0bfff17 	ldw	r2,-4(fp)
 400071c:	10c02215 	stw	r3,136(r2)
 4000720:	e0bffe17 	ldw	r2,-8(fp)
 4000724:	10800084 	addi	r2,r2,2
 4000728:	e0bffe15 	stw	r2,-8(fp)
	cTmp = sNios->sUart0.ucRxBuf[idx]; /* status byte */
 400072c:	e0fffe17 	ldw	r3,-8(fp)
 4000730:	e0bfff17 	ldw	r2,-4(fp)
 4000734:	1885883a 	add	r2,r3,r2
 4000738:	10802f04 	addi	r2,r2,188
 400073c:	10800043 	ldbu	r2,1(r2)
 4000740:	e0bffd05 	stb	r2,-12(fp)
	if(cTmp){
 4000744:	e0bffd03 	ldbu	r2,-12(fp)
 4000748:	1005003a 	cmpeq	r2,r2,zero
 400074c:	1000031e 	bne	r2,zero,400075c <UnpackHostPackage+0x220>
	    printf("Last package to Host have CRC error.");
 4000750:	01010074 	movhi	r4,1025
 4000754:	2106a504 	addi	r4,r4,6804
 4000758:	4003db80 	call	4003db8 <printf>
	}

}
 400075c:	e037883a 	mov	sp,fp
 4000760:	dfc00117 	ldw	ra,4(sp)
 4000764:	df000017 	ldw	fp,0(sp)
 4000768:	dec00204 	addi	sp,sp,8
 400076c:	f800283a 	ret

04000770 <UnPackUartDataFromHost>:
/* put Nios data to uart package, no test */
void UnPackUartDataFromHost(sNios_s *sNios){
 4000770:	defffb04 	addi	sp,sp,-20
 4000774:	dfc00415 	stw	ra,16(sp)
 4000778:	df000315 	stw	fp,12(sp)
 400077c:	df000304 	addi	fp,sp,12
 4000780:	e13fff15 	stw	r4,-4(fp)
    unsigned int  i;
    unsigned char ucCRC; /* CRC check code */

    while( (sNios->sUart0.uiRxBuf_End - sNios->sUart0.uiRxBuf_Head) >= UartPackageRXLengthFromHost-1 ){
 4000784:	00004706 	br	40008a4 <UnPackUartDataFromHost+0x134>
        /* check package frame */
        if( sNios->sUart0.ucRxBuf[sNios->sUart0.uiRxBuf_Head] == UartPackageFrameHead){ /* frame begin byte */
 4000788:	e0bfff17 	ldw	r2,-4(fp)
 400078c:	10c05017 	ldw	r3,320(r2)
 4000790:	e0bfff17 	ldw	r2,-4(fp)
 4000794:	1885883a 	add	r2,r3,r2
 4000798:	10802f04 	addi	r2,r2,188
 400079c:	10800043 	ldbu	r2,1(r2)
 40007a0:	10803fcc 	andi	r2,r2,255
 40007a4:	10802a98 	cmpnei	r2,r2,170
 40007a8:	1000391e 	bne	r2,zero,4000890 <UnPackUartDataFromHost+0x120>
            if(sNios->sUart0.ucRxBuf[sNios->sUart0.uiRxBuf_Head + UartPackageRXLengthFromHost-1] == UartPackageFrameEnd){ /* frame end byte */
 40007ac:	e0bfff17 	ldw	r2,-4(fp)
 40007b0:	10805017 	ldw	r2,320(r2)
 40007b4:	10c00304 	addi	r3,r2,12
 40007b8:	e0bfff17 	ldw	r2,-4(fp)
 40007bc:	1885883a 	add	r2,r3,r2
 40007c0:	10802f04 	addi	r2,r2,188
 40007c4:	10800043 	ldbu	r2,1(r2)
 40007c8:	10803fcc 	andi	r2,r2,255
 40007cc:	10803b98 	cmpnei	r2,r2,238
 40007d0:	1000341e 	bne	r2,zero,40008a4 <UnPackUartDataFromHost+0x134>
                /* frame correct and check CRC code */
                for(i = sNios->sUart0.uiRxBuf_Head+1, ucCRC = 0; i <(sNios->sUart0.uiRxBuf_Head + UartPackageRXLengthFromHost-2); i++){
 40007d4:	e0bfff17 	ldw	r2,-4(fp)
 40007d8:	10805017 	ldw	r2,320(r2)
 40007dc:	10800044 	addi	r2,r2,1
 40007e0:	e0bffe15 	stw	r2,-8(fp)
 40007e4:	e03ffd05 	stb	zero,-12(fp)
 40007e8:	00000b06 	br	4000818 <UnPackUartDataFromHost+0xa8>
                    ucCRC +=  sNios->sUart0.ucRxBuf[i];
 40007ec:	e0fffe17 	ldw	r3,-8(fp)
 40007f0:	e0bfff17 	ldw	r2,-4(fp)
 40007f4:	1885883a 	add	r2,r3,r2
 40007f8:	10802f04 	addi	r2,r2,188
 40007fc:	10c00043 	ldbu	r3,1(r2)
 4000800:	e0bffd03 	ldbu	r2,-12(fp)
 4000804:	10c5883a 	add	r2,r2,r3
 4000808:	e0bffd05 	stb	r2,-12(fp)
    while( (sNios->sUart0.uiRxBuf_End - sNios->sUart0.uiRxBuf_Head) >= UartPackageRXLengthFromHost-1 ){
        /* check package frame */
        if( sNios->sUart0.ucRxBuf[sNios->sUart0.uiRxBuf_Head] == UartPackageFrameHead){ /* frame begin byte */
            if(sNios->sUart0.ucRxBuf[sNios->sUart0.uiRxBuf_Head + UartPackageRXLengthFromHost-1] == UartPackageFrameEnd){ /* frame end byte */
                /* frame correct and check CRC code */
                for(i = sNios->sUart0.uiRxBuf_Head+1, ucCRC = 0; i <(sNios->sUart0.uiRxBuf_Head + UartPackageRXLengthFromHost-2); i++){
 400080c:	e0bffe17 	ldw	r2,-8(fp)
 4000810:	10800044 	addi	r2,r2,1
 4000814:	e0bffe15 	stw	r2,-8(fp)
 4000818:	e0bfff17 	ldw	r2,-4(fp)
 400081c:	10805017 	ldw	r2,320(r2)
 4000820:	10c002c4 	addi	r3,r2,11
 4000824:	e0bffe17 	ldw	r2,-8(fp)
 4000828:	10fff036 	bltu	r2,r3,40007ec <UnPackUartDataFromHost+0x7c>
                    ucCRC +=  sNios->sUart0.ucRxBuf[i];
                }
                ucCRC &= 0xff;
                if(ucCRC == sNios->sUart0.ucRxBuf[sNios->sUart0.uiRxBuf_Head + UartPackageRXLengthFromHost-2]) { /* check CRC */
 400082c:	e0bfff17 	ldw	r2,-4(fp)
 4000830:	10805017 	ldw	r2,320(r2)
 4000834:	10c002c4 	addi	r3,r2,11
 4000838:	e0bfff17 	ldw	r2,-4(fp)
 400083c:	1885883a 	add	r2,r3,r2
 4000840:	10802f04 	addi	r2,r2,188
 4000844:	10800043 	ldbu	r2,1(r2)
 4000848:	10c03fcc 	andi	r3,r2,255
 400084c:	e0bffd03 	ldbu	r2,-12(fp)
 4000850:	18800b1e 	bne	r3,r2,4000880 <UnPackUartDataFromHost+0x110>
                    printf("Receive correct host data and start to unpack data.\n");
 4000854:	01010074 	movhi	r4,1025
 4000858:	2106af04 	addi	r4,r4,6844
 400085c:	4003ed00 	call	4003ed0 <puts>
                    UnpackHostPackage(sNios);
 4000860:	e13fff17 	ldw	r4,-4(fp)
 4000864:	400053c0 	call	400053c <UnpackHostPackage>
                    sNios->sUart0.uiRxBuf_Head +=  UartPackageRXLengthFromHost; /* add package length */
 4000868:	e0bfff17 	ldw	r2,-4(fp)
 400086c:	10805017 	ldw	r2,320(r2)
 4000870:	10c00344 	addi	r3,r2,13
 4000874:	e0bfff17 	ldw	r2,-4(fp)
 4000878:	10c05015 	stw	r3,320(r2)
 400087c:	00000906 	br	40008a4 <UnPackUartDataFromHost+0x134>
                }else{
                    printf("Receive package (RX_buf[...]) CRC error. \n");
 4000880:	01010074 	movhi	r4,1025
 4000884:	2106bc04 	addi	r4,r4,6896
 4000888:	4003ed00 	call	4003ed0 <puts>
 400088c:	00000506 	br	40008a4 <UnPackUartDataFromHost+0x134>
                }
            }
        } else {
            sNios->sUart0.uiRxBuf_Head++; /* increase rx_buf index */
 4000890:	e0bfff17 	ldw	r2,-4(fp)
 4000894:	10805017 	ldw	r2,320(r2)
 4000898:	10c00044 	addi	r3,r2,1
 400089c:	e0bfff17 	ldw	r2,-4(fp)
 40008a0:	10c05015 	stw	r3,320(r2)
/* put Nios data to uart package, no test */
void UnPackUartDataFromHost(sNios_s *sNios){
    unsigned int  i;
    unsigned char ucCRC; /* CRC check code */

    while( (sNios->sUart0.uiRxBuf_End - sNios->sUart0.uiRxBuf_Head) >= UartPackageRXLengthFromHost-1 ){
 40008a4:	e0bfff17 	ldw	r2,-4(fp)
 40008a8:	10c05117 	ldw	r3,324(r2)
 40008ac:	e0bfff17 	ldw	r2,-4(fp)
 40008b0:	10805017 	ldw	r2,320(r2)
 40008b4:	1885c83a 	sub	r2,r3,r2
 40008b8:	10800328 	cmpgeui	r2,r2,12
 40008bc:	103fb21e 	bne	r2,zero,4000788 <UnPackUartDataFromHost+0x18>
            }
        } else {
            sNios->sUart0.uiRxBuf_Head++; /* increase rx_buf index */
        }
    }
}
 40008c0:	e037883a 	mov	sp,fp
 40008c4:	dfc00117 	ldw	ra,4(sp)
 40008c8:	df000017 	ldw	fp,0(sp)
 40008cc:	dec00204 	addi	sp,sp,8
 40008d0:	f800283a 	ret

040008d4 <UarTxCrcCal>:


/* Calculate Uart Tx crc */
unsigned char UarTxCrcCal(sNios_s *sNios){
 40008d4:	defffc04 	addi	sp,sp,-16
 40008d8:	df000315 	stw	fp,12(sp)
 40008dc:	df000304 	addi	fp,sp,12
 40008e0:	e13fff15 	stw	r4,-4(fp)
    unsigned char ucCRC;
    unsigned int i;

    for(i= sNios->sUart0.uiTxBuf_Head+1, ucCRC = 0;  i < UartPackageLengthToHost-1-1; i++){
 40008e4:	e0bfff17 	ldw	r2,-4(fp)
 40008e8:	10807217 	ldw	r2,456(r2)
 40008ec:	10800044 	addi	r2,r2,1
 40008f0:	e0bffd15 	stw	r2,-12(fp)
 40008f4:	e03ffe05 	stb	zero,-8(fp)
 40008f8:	00000b06 	br	4000928 <UarTxCrcCal+0x54>
         /* calculate crc value in Txbuf[UartPackageLengthToHost], not include UartPackageFrameHead, CRC, UartPackageFrameEnd */
        ucCRC +=  sNios->sUart0.ucTxBuf[i];
 40008fc:	e0fffd17 	ldw	r3,-12(fp)
 4000900:	e0bfff17 	ldw	r2,-4(fp)
 4000904:	1885883a 	add	r2,r3,r2
 4000908:	10805204 	addi	r2,r2,328
 400090c:	10c00003 	ldbu	r3,0(r2)
 4000910:	e0bffe03 	ldbu	r2,-8(fp)
 4000914:	10c5883a 	add	r2,r2,r3
 4000918:	e0bffe05 	stb	r2,-8(fp)
/* Calculate Uart Tx crc */
unsigned char UarTxCrcCal(sNios_s *sNios){
    unsigned char ucCRC;
    unsigned int i;

    for(i= sNios->sUart0.uiTxBuf_Head+1, ucCRC = 0;  i < UartPackageLengthToHost-1-1; i++){
 400091c:	e0bffd17 	ldw	r2,-12(fp)
 4000920:	10800044 	addi	r2,r2,1
 4000924:	e0bffd15 	stw	r2,-12(fp)
 4000928:	e0bffd17 	ldw	r2,-12(fp)
 400092c:	10800f70 	cmpltui	r2,r2,61
 4000930:	103ff21e 	bne	r2,zero,40008fc <UarTxCrcCal+0x28>
         /* calculate crc value in Txbuf[UartPackageLengthToHost], not include UartPackageFrameHead, CRC, UartPackageFrameEnd */
        ucCRC +=  sNios->sUart0.ucTxBuf[i];
    }
    return ucCRC & 0xff;
 4000934:	e0bffe03 	ldbu	r2,-8(fp)
}
 4000938:	e037883a 	mov	sp,fp
 400093c:	df000017 	ldw	fp,0(sp)
 4000940:	dec00104 	addi	sp,sp,4
 4000944:	f800283a 	ret

04000948 <UarRxCrcCal>:
/* Calculate Uart RX crc */
unsigned char UarRxCrcCal(sNios_s *sNios){
 4000948:	defffc04 	addi	sp,sp,-16
 400094c:	df000315 	stw	fp,12(sp)
 4000950:	df000304 	addi	fp,sp,12
 4000954:	e13fff15 	stw	r4,-4(fp)
    unsigned char ucCRC;
    unsigned int i;

    for(i= sNios->sUart0.uiRxBuf_Head+1, ucCRC = 0;  i < UartPackageRXLengthFromHost-1-1; i++) {
 4000958:	e0bfff17 	ldw	r2,-4(fp)
 400095c:	10805017 	ldw	r2,320(r2)
 4000960:	10800044 	addi	r2,r2,1
 4000964:	e0bffd15 	stw	r2,-12(fp)
 4000968:	e03ffe05 	stb	zero,-8(fp)
 400096c:	00000b06 	br	400099c <UarRxCrcCal+0x54>
         /* calculate crc value in Txbuf[UartPackageLengthToHost], not include UartPackageFrameHead, CRC, UartPackageFrameEnd */
        ucCRC +=  sNios->sUart0.ucRxBuf[i];
 4000970:	e0fffd17 	ldw	r3,-12(fp)
 4000974:	e0bfff17 	ldw	r2,-4(fp)
 4000978:	1885883a 	add	r2,r3,r2
 400097c:	10802f04 	addi	r2,r2,188
 4000980:	10c00043 	ldbu	r3,1(r2)
 4000984:	e0bffe03 	ldbu	r2,-8(fp)
 4000988:	10c5883a 	add	r2,r2,r3
 400098c:	e0bffe05 	stb	r2,-8(fp)
/* Calculate Uart RX crc */
unsigned char UarRxCrcCal(sNios_s *sNios){
    unsigned char ucCRC;
    unsigned int i;

    for(i= sNios->sUart0.uiRxBuf_Head+1, ucCRC = 0;  i < UartPackageRXLengthFromHost-1-1; i++) {
 4000990:	e0bffd17 	ldw	r2,-12(fp)
 4000994:	10800044 	addi	r2,r2,1
 4000998:	e0bffd15 	stw	r2,-12(fp)
 400099c:	e0bffd17 	ldw	r2,-12(fp)
 40009a0:	108002f0 	cmpltui	r2,r2,11
 40009a4:	103ff21e 	bne	r2,zero,4000970 <UarRxCrcCal+0x28>
         /* calculate crc value in Txbuf[UartPackageLengthToHost], not include UartPackageFrameHead, CRC, UartPackageFrameEnd */
        ucCRC +=  sNios->sUart0.ucRxBuf[i];
    }
    return ucCRC & 0xff;
 40009a8:	e0bffe03 	ldbu	r2,-8(fp)
}
 40009ac:	e037883a 	mov	sp,fp
 40009b0:	df000017 	ldw	fp,0(sp)
 40009b4:	dec00104 	addi	sp,sp,4
 40009b8:	f800283a 	ret

040009bc <UartTxbufProcess>:


/* send txbuf to host via UART0 */
void UartTxbufProcess( sNios_s *sNios)
{
 40009bc:	defffc04 	addi	sp,sp,-16
 40009c0:	dfc00315 	stw	ra,12(sp)
 40009c4:	df000215 	stw	fp,8(sp)
 40009c8:	df000204 	addi	fp,sp,8
 40009cc:	e13fff15 	stw	r4,-4(fp)
    char ret;
    //        printf("T");
    if(sNios->sUart0.cTXbufRdy){ /* check Tx_buf is ready or not?*/
 40009d0:	e0bfff17 	ldw	r2,-4(fp)
 40009d4:	10807703 	ldbu	r2,476(r2)
 40009d8:	10803fcc 	andi	r2,r2,255
 40009dc:	1080201c 	xori	r2,r2,128
 40009e0:	10bfe004 	addi	r2,r2,-128
 40009e4:	1005003a 	cmpeq	r2,r2,zero
 40009e8:	1000251e 	bne	r2,zero,4000a80 <UartTxbufProcess+0xc4>
		while (sNios->sUart0.uiTxBuf_End != sNios->sUart0.uiTxBuf_Head) { /* check length */
 40009ec:	00001606 	br	4000a48 <UartTxbufProcess+0x8c>
			ret = SendUart(&sNios->sUart0, sNios->sUart0.ucTxBuf[sNios->sUart0.uiTxBuf_Head]);
 40009f0:	e0bfff17 	ldw	r2,-4(fp)
 40009f4:	11002c04 	addi	r4,r2,176
 40009f8:	e0bfff17 	ldw	r2,-4(fp)
 40009fc:	10c07217 	ldw	r3,456(r2)
 4000a00:	e0bfff17 	ldw	r2,-4(fp)
 4000a04:	1885883a 	add	r2,r3,r2
 4000a08:	10805204 	addi	r2,r2,328
 4000a0c:	10800003 	ldbu	r2,0(r2)
 4000a10:	11403fcc 	andi	r5,r2,255
 4000a14:	4002d040 	call	4002d04 <SendUart>
 4000a18:	e0bffe05 	stb	r2,-8(fp)
			if(ret == -1){
 4000a1c:	e0bffe07 	ldb	r2,-8(fp)
 4000a20:	10bfffe0 	cmpeqi	r2,r2,-1
 4000a24:	1000081e 	bne	r2,zero,4000a48 <UartTxbufProcess+0x8c>
				/* send data failure */
				#ifdef DEBUG_MESSAGE
					printf("[MSG]Uart0 have exception condition.");
				#endif
			} else if(ret == 1){ /* send successful, and increase TX head index */
 4000a28:	e0bffe07 	ldb	r2,-8(fp)
 4000a2c:	10800058 	cmpnei	r2,r2,1
 4000a30:	1000051e 	bne	r2,zero,4000a48 <UartTxbufProcess+0x8c>
				sNios->sUart0.uiTxBuf_Head++;
 4000a34:	e0bfff17 	ldw	r2,-4(fp)
 4000a38:	10807217 	ldw	r2,456(r2)
 4000a3c:	10c00044 	addi	r3,r2,1
 4000a40:	e0bfff17 	ldw	r2,-4(fp)
 4000a44:	10c07215 	stw	r3,456(r2)
void UartTxbufProcess( sNios_s *sNios)
{
    char ret;
    //        printf("T");
    if(sNios->sUart0.cTXbufRdy){ /* check Tx_buf is ready or not?*/
		while (sNios->sUart0.uiTxBuf_End != sNios->sUart0.uiTxBuf_Head) { /* check length */
 4000a48:	e0bfff17 	ldw	r2,-4(fp)
 4000a4c:	10c07317 	ldw	r3,460(r2)
 4000a50:	e0bfff17 	ldw	r2,-4(fp)
 4000a54:	10807217 	ldw	r2,456(r2)
 4000a58:	18bfe51e 	bne	r3,r2,40009f0 <UartTxbufProcess+0x34>
				#ifdef DEBUG_MESSAGE
					// printf("[MSG]Uart0 is busy to transmit data.\n");
				#endif
			}
		}
		if(sNios->sUart0.uiTxBuf_Head == sNios->sUart0.uiTxBuf_End){
 4000a5c:	e0bfff17 	ldw	r2,-4(fp)
 4000a60:	10c07217 	ldw	r3,456(r2)
 4000a64:	e0bfff17 	ldw	r2,-4(fp)
 4000a68:	10807317 	ldw	r2,460(r2)
 4000a6c:	1880041e 	bne	r3,r2,4000a80 <UartTxbufProcess+0xc4>
			/* no data need to send */
			sNios->sUart0.uiTxBuf_Head = 0 ;
 4000a70:	e0bfff17 	ldw	r2,-4(fp)
 4000a74:	10007215 	stw	zero,456(r2)
			sNios->sUart0.uiTxBuf_End = 0;
 4000a78:	e0bfff17 	ldw	r2,-4(fp)
 4000a7c:	10007315 	stw	zero,460(r2)
		}
    }
}
 4000a80:	e037883a 	mov	sp,fp
 4000a84:	dfc00117 	ldw	ra,4(sp)
 4000a88:	df000017 	ldw	fp,0(sp)
 4000a8c:	dec00204 	addi	sp,sp,8
 4000a90:	f800283a 	ret

04000a94 <UartRxbufProcess>:
/* Uart0 RxBuf process*/
void UartRxbufProcess(sNios_s *sNios) {
 4000a94:	defffc04 	addi	sp,sp,-16
 4000a98:	dfc00315 	stw	ra,12(sp)
 4000a9c:	df000215 	stw	fp,8(sp)
 4000aa0:	df000204 	addi	fp,sp,8
 4000aa4:	e13fff15 	stw	r4,-4(fp)
    unsigned char crc;

    while((sNios->sUart0.uiRxBuf_End - sNios->sUart0.uiTxBuf_Head ) >= (UartPackageRXLengthFromHost-1) ) { /* check a package length from host */
 4000aa8:	00002c06 	br	4000b5c <UartRxbufProcess+0xc8>
        if(sNios->sUart0.ucRxBuf[sNios->sUart0.uiRxBuf_Head] == UartPackageFrameHead) { /* find frame head */
 4000aac:	e0bfff17 	ldw	r2,-4(fp)
 4000ab0:	10c05017 	ldw	r3,320(r2)
 4000ab4:	e0bfff17 	ldw	r2,-4(fp)
 4000ab8:	1885883a 	add	r2,r3,r2
 4000abc:	10802f04 	addi	r2,r2,188
 4000ac0:	10800043 	ldbu	r2,1(r2)
 4000ac4:	10803fcc 	andi	r2,r2,255
 4000ac8:	10802a98 	cmpnei	r2,r2,170
 4000acc:	10001e1e 	bne	r2,zero,4000b48 <UartRxbufProcess+0xb4>
            if(sNios->sUart0.ucRxBuf[sNios->sUart0.uiRxBuf_Head + UartPackageRXLengthFromHost - 1] == UartPackageFrameEnd) { /* find frame end */
 4000ad0:	e0bfff17 	ldw	r2,-4(fp)
 4000ad4:	10805017 	ldw	r2,320(r2)
 4000ad8:	10c00304 	addi	r3,r2,12
 4000adc:	e0bfff17 	ldw	r2,-4(fp)
 4000ae0:	1885883a 	add	r2,r3,r2
 4000ae4:	10802f04 	addi	r2,r2,188
 4000ae8:	10800043 	ldbu	r2,1(r2)
 4000aec:	10803fcc 	andi	r2,r2,255
 4000af0:	10803b98 	cmpnei	r2,r2,238
 4000af4:	1000191e 	bne	r2,zero,4000b5c <UartRxbufProcess+0xc8>
                /* find a UartPackage form Host */
                crc = UarRxCrcCal(sNios);  /* calculate CRC */
 4000af8:	e13fff17 	ldw	r4,-4(fp)
 4000afc:	40009480 	call	4000948 <UarRxCrcCal>
 4000b00:	e0bffe05 	stb	r2,-8(fp)
                if(crc == sNios->sUart0.ucRxBuf[sNios->sUart0.uiRxBuf_Head + UartPackageRXLengthFromHost - 2]){ /* crc check */
 4000b04:	e0bfff17 	ldw	r2,-4(fp)
 4000b08:	10805017 	ldw	r2,320(r2)
 4000b0c:	10c002c4 	addi	r3,r2,11
 4000b10:	e0bfff17 	ldw	r2,-4(fp)
 4000b14:	1885883a 	add	r2,r3,r2
 4000b18:	10802f04 	addi	r2,r2,188
 4000b1c:	10800043 	ldbu	r2,1(r2)
 4000b20:	10c03fcc 	andi	r3,r2,255
 4000b24:	e0bffe03 	ldbu	r2,-8(fp)
 4000b28:	1880031e 	bne	r3,r2,4000b38 <UartRxbufProcess+0xa4>
//                        printf("\n[MSG]RBuf=");
//                        for(i=0; i<UartPackageRXLengthFromHost;i++){
//                            printf("0x%2x, ", sNios->sUart0.ucRxBuf[i]);
//                        }
//                        printf("\n");
                     UnPackUartDataFromHost(sNios);
 4000b2c:	e13fff17 	ldw	r4,-4(fp)
 4000b30:	40007700 	call	4000770 <UnPackUartDataFromHost>
 4000b34:	00000906 	br	4000b5c <UartRxbufProcess+0xc8>

                } else {
                    printf("[MSG]RX frame data CRC error.\n");
 4000b38:	01010074 	movhi	r4,1025
 4000b3c:	2106c704 	addi	r4,r4,6940
 4000b40:	4003ed00 	call	4003ed0 <puts>
 4000b44:	00000506 	br	4000b5c <UartRxbufProcess+0xc8>
                }
            }
        }else{
            /* not frame head */
            sNios->sUart0.uiRxBuf_Head++; /* increase index*/
 4000b48:	e0bfff17 	ldw	r2,-4(fp)
 4000b4c:	10805017 	ldw	r2,320(r2)
 4000b50:	10c00044 	addi	r3,r2,1
 4000b54:	e0bfff17 	ldw	r2,-4(fp)
 4000b58:	10c05015 	stw	r3,320(r2)
}
/* Uart0 RxBuf process*/
void UartRxbufProcess(sNios_s *sNios) {
    unsigned char crc;

    while((sNios->sUart0.uiRxBuf_End - sNios->sUart0.uiTxBuf_Head ) >= (UartPackageRXLengthFromHost-1) ) { /* check a package length from host */
 4000b5c:	e0bfff17 	ldw	r2,-4(fp)
 4000b60:	10c05117 	ldw	r3,324(r2)
 4000b64:	e0bfff17 	ldw	r2,-4(fp)
 4000b68:	10807217 	ldw	r2,456(r2)
 4000b6c:	1885c83a 	sub	r2,r3,r2
 4000b70:	10800328 	cmpgeui	r2,r2,12
 4000b74:	103fcd1e 	bne	r2,zero,4000aac <UartRxbufProcess+0x18>
        }else{
            /* not frame head */
            sNios->sUart0.uiRxBuf_Head++; /* increase index*/
        }
    }
    if(sNios->sUart0.uiRxBuf_Head == sNios->sUart0.uiRxBuf_End){
 4000b78:	e0bfff17 	ldw	r2,-4(fp)
 4000b7c:	10c05017 	ldw	r3,320(r2)
 4000b80:	e0bfff17 	ldw	r2,-4(fp)
 4000b84:	10805117 	ldw	r2,324(r2)
 4000b88:	1880041e 	bne	r3,r2,4000b9c <UartRxbufProcess+0x108>
        /* no data need to process */
        sNios->sUart0.uiRxBuf_Head = 0 ;
 4000b8c:	e0bfff17 	ldw	r2,-4(fp)
 4000b90:	10005015 	stw	zero,320(r2)
        sNios->sUart0.uiRxBuf_End = 0;
 4000b94:	e0bfff17 	ldw	r2,-4(fp)
 4000b98:	10005115 	stw	zero,324(r2)
    }
}
 4000b9c:	e037883a 	mov	sp,fp
 4000ba0:	dfc00117 	ldw	ra,4(sp)
 4000ba4:	df000017 	ldw	fp,0(sp)
 4000ba8:	dec00204 	addi	sp,sp,8
 4000bac:	f800283a 	ret

04000bb0 <PackUartDataToHost>:


/* put Nios data to uart package */
void PackUartDataToHost(sNios_s *sNios){
 4000bb0:	defffb04 	addi	sp,sp,-20
 4000bb4:	df000415 	stw	fp,16(sp)
 4000bb8:	df000404 	addi	fp,sp,16
 4000bbc:	e13fff15 	stw	r4,-4(fp)
    sNios->sUart0.ucTxBuf[42] = (unsigned char) (ucCRC & 0xff);  /* add CRC */
    sNios->sUart0.ucTxBuf[43] = UartPackageFrameEnd; /*  add package end */
    sNios->sUart0.uiTxBuf_Head = 0;
    sNios->sUart0.uiTxBuf_End = UartPackageLengthToHost;
#else
    idx=0;
 4000bc0:	e03ffd15 	stw	zero,-12(fp)
    sNios->sUart0.ucTxBuf[idx] = UartPackageFrameHead; idx++;                                              /* [0] package head */
 4000bc4:	e0fffd17 	ldw	r3,-12(fp)
 4000bc8:	e0bfff17 	ldw	r2,-4(fp)
 4000bcc:	1885883a 	add	r2,r3,r2
 4000bd0:	10c05204 	addi	r3,r2,328
 4000bd4:	00bfea84 	movi	r2,-86
 4000bd8:	18800005 	stb	r2,0(r3)
 4000bdc:	e0bffd17 	ldw	r2,-12(fp)
 4000be0:	10800044 	addi	r2,r2,1
 4000be4:	e0bffd15 	stw	r2,-12(fp)
    sNios->sUart0.ucTxBuf[idx] = (unsigned char )sNios->sTimer0.uiTICnt >>16 & 0xff; idx++;                /* [1] Timer interrupt Counter(3rd Byte) */
 4000be8:	e13ffd17 	ldw	r4,-12(fp)
 4000bec:	e0bfff17 	ldw	r2,-4(fp)
 4000bf0:	10802817 	ldw	r2,160(r2)
 4000bf4:	10803fcc 	andi	r2,r2,255
 4000bf8:	1005d43a 	srai	r2,r2,16
 4000bfc:	1007883a 	mov	r3,r2
 4000c00:	00bfffc4 	movi	r2,-1
 4000c04:	1884703a 	and	r2,r3,r2
 4000c08:	1007883a 	mov	r3,r2
 4000c0c:	e0bfff17 	ldw	r2,-4(fp)
 4000c10:	2085883a 	add	r2,r4,r2
 4000c14:	10805204 	addi	r2,r2,328
 4000c18:	10c00005 	stb	r3,0(r2)
 4000c1c:	e0bffd17 	ldw	r2,-12(fp)
 4000c20:	10800044 	addi	r2,r2,1
 4000c24:	e0bffd15 	stw	r2,-12(fp)
    sNios->sUart0.ucTxBuf[idx] = (unsigned char )sNios->sTimer0.uiTICnt >>8 & 0xff; idx++;                 /* [2] Timer interrupt Counter(2nd Byte) */
 4000c28:	e13ffd17 	ldw	r4,-12(fp)
 4000c2c:	e0bfff17 	ldw	r2,-4(fp)
 4000c30:	10802817 	ldw	r2,160(r2)
 4000c34:	10803fcc 	andi	r2,r2,255
 4000c38:	1005d23a 	srai	r2,r2,8
 4000c3c:	1007883a 	mov	r3,r2
 4000c40:	00bfffc4 	movi	r2,-1
 4000c44:	1884703a 	and	r2,r3,r2
 4000c48:	1007883a 	mov	r3,r2
 4000c4c:	e0bfff17 	ldw	r2,-4(fp)
 4000c50:	2085883a 	add	r2,r4,r2
 4000c54:	10805204 	addi	r2,r2,328
 4000c58:	10c00005 	stb	r3,0(r2)
 4000c5c:	e0bffd17 	ldw	r2,-12(fp)
 4000c60:	10800044 	addi	r2,r2,1
 4000c64:	e0bffd15 	stw	r2,-12(fp)
    sNios->sUart0.ucTxBuf[idx] = (unsigned char )sNios->sTimer0.uiTICnt & 0xff; idx++;                     /* [3] Timer interrupt Counter(LSB Byte) */
 4000c68:	e0fffd17 	ldw	r3,-12(fp)
 4000c6c:	e0bfff17 	ldw	r2,-4(fp)
 4000c70:	10802817 	ldw	r2,160(r2)
 4000c74:	1009883a 	mov	r4,r2
 4000c78:	e0bfff17 	ldw	r2,-4(fp)
 4000c7c:	1885883a 	add	r2,r3,r2
 4000c80:	10805204 	addi	r2,r2,328
 4000c84:	11000005 	stb	r4,0(r2)
 4000c88:	e0bffd17 	ldw	r2,-12(fp)
 4000c8c:	10800044 	addi	r2,r2,1
 4000c90:	e0bffd15 	stw	r2,-12(fp)
    sNios->sUart0.ucTxBuf[idx] = 0; idx++;                                                                 /* [4] Status byte */
 4000c94:	e0fffd17 	ldw	r3,-12(fp)
 4000c98:	e0bfff17 	ldw	r2,-4(fp)
 4000c9c:	1885883a 	add	r2,r3,r2
 4000ca0:	10805204 	addi	r2,r2,328
 4000ca4:	10000005 	stb	zero,0(r2)
 4000ca8:	e0bffd17 	ldw	r2,-12(fp)
 4000cac:	10800044 	addi	r2,r2,1
 4000cb0:	e0bffd15 	stw	r2,-12(fp)
    sNios->sUart0.ucTxBuf[idx] = (unsigned char )sNios->sMotor.sMotorAp.ucMotorPWM & 0xff; idx++;          /* [5] motor A PWM_CMD present value (1 Byte)*/
 4000cb4:	e0fffd17 	ldw	r3,-12(fp)
 4000cb8:	e0bfff17 	ldw	r2,-4(fp)
 4000cbc:	11000503 	ldbu	r4,20(r2)
 4000cc0:	e0bfff17 	ldw	r2,-4(fp)
 4000cc4:	1885883a 	add	r2,r3,r2
 4000cc8:	10805204 	addi	r2,r2,328
 4000ccc:	11000005 	stb	r4,0(r2)
 4000cd0:	e0bffd17 	ldw	r2,-12(fp)
 4000cd4:	10800044 	addi	r2,r2,1
 4000cd8:	e0bffd15 	stw	r2,-12(fp)
    sNios->sUart0.ucTxBuf[idx] = (unsigned char )sNios->sMotor.sMotorBp.ucMotorPWM & 0xff; idx++;          /* [6] motor B PWM_CMD present value (1 Byte)*/
 4000cdc:	e0fffd17 	ldw	r3,-12(fp)
 4000ce0:	e0bfff17 	ldw	r2,-4(fp)
 4000ce4:	11000d03 	ldbu	r4,52(r2)
 4000ce8:	e0bfff17 	ldw	r2,-4(fp)
 4000cec:	1885883a 	add	r2,r3,r2
 4000cf0:	10805204 	addi	r2,r2,328
 4000cf4:	11000005 	stb	r4,0(r2)
 4000cf8:	e0bffd17 	ldw	r2,-12(fp)
 4000cfc:	10800044 	addi	r2,r2,1
 4000d00:	e0bffd15 	stw	r2,-12(fp)
    sNios->sUart0.ucTxBuf[idx] = (unsigned char )sNios->sMotor.sMotorCp.ucMotorPWM & 0xff; idx++;          /* [7] motor C PWM_CMD present value (1 Byte)*/
 4000d04:	e0fffd17 	ldw	r3,-12(fp)
 4000d08:	e0bfff17 	ldw	r2,-4(fp)
 4000d0c:	11001503 	ldbu	r4,84(r2)
 4000d10:	e0bfff17 	ldw	r2,-4(fp)
 4000d14:	1885883a 	add	r2,r3,r2
 4000d18:	10805204 	addi	r2,r2,328
 4000d1c:	11000005 	stb	r4,0(r2)
 4000d20:	e0bffd17 	ldw	r2,-12(fp)
 4000d24:	10800044 	addi	r2,r2,1
 4000d28:	e0bffd15 	stw	r2,-12(fp)
    sNios->sUart0.ucTxBuf[idx] = (unsigned char )sNios->sMotor.sMotorDp.ucMotorPWM & 0xff; idx++;          /* [8] motor D PWM_CMD present value (1 Byte)*/
 4000d2c:	e0fffd17 	ldw	r3,-12(fp)
 4000d30:	e0bfff17 	ldw	r2,-4(fp)
 4000d34:	11001d03 	ldbu	r4,116(r2)
 4000d38:	e0bfff17 	ldw	r2,-4(fp)
 4000d3c:	1885883a 	add	r2,r3,r2
 4000d40:	10805204 	addi	r2,r2,328
 4000d44:	11000005 	stb	r4,0(r2)
 4000d48:	e0bffd17 	ldw	r2,-12(fp)
 4000d4c:	10800044 	addi	r2,r2,1
 4000d50:	e0bffd15 	stw	r2,-12(fp)
    sNios->sUart0.ucTxBuf[idx] = (unsigned char )sNios->sMotor.uiR02MotorFBDir & 0xff; idx++;              /* [9] motor feedback direction */
 4000d54:	e0fffd17 	ldw	r3,-12(fp)
 4000d58:	e0bfff17 	ldw	r2,-4(fp)
 4000d5c:	10800217 	ldw	r2,8(r2)
 4000d60:	1009883a 	mov	r4,r2
 4000d64:	e0bfff17 	ldw	r2,-4(fp)
 4000d68:	1885883a 	add	r2,r3,r2
 4000d6c:	10805204 	addi	r2,r2,328
 4000d70:	11000005 	stb	r4,0(r2)
 4000d74:	e0bffd17 	ldw	r2,-12(fp)
 4000d78:	10800044 	addi	r2,r2,1
 4000d7c:	e0bffd15 	stw	r2,-12(fp)
    sNios->sUart0.ucTxBuf[idx] = (unsigned char )sNios->sMotor.sMotorAp.iMotorFBEncoder>>24 & 0xff; idx++; /* [10] motor A feedback direction(4th Byte)*/
 4000d80:	e13ffd17 	ldw	r4,-12(fp)
 4000d84:	e0bfff17 	ldw	r2,-4(fp)
 4000d88:	10800717 	ldw	r2,28(r2)
 4000d8c:	10803fcc 	andi	r2,r2,255
 4000d90:	1005d63a 	srai	r2,r2,24
 4000d94:	1007883a 	mov	r3,r2
 4000d98:	00bfffc4 	movi	r2,-1
 4000d9c:	1884703a 	and	r2,r3,r2
 4000da0:	1007883a 	mov	r3,r2
 4000da4:	e0bfff17 	ldw	r2,-4(fp)
 4000da8:	2085883a 	add	r2,r4,r2
 4000dac:	10805204 	addi	r2,r2,328
 4000db0:	10c00005 	stb	r3,0(r2)
 4000db4:	e0bffd17 	ldw	r2,-12(fp)
 4000db8:	10800044 	addi	r2,r2,1
 4000dbc:	e0bffd15 	stw	r2,-12(fp)
    sNios->sUart0.ucTxBuf[idx] = (unsigned char )sNios->sMotor.sMotorAp.iMotorFBEncoder>>16 & 0xff; idx++; /* [11] motor A feedback direction(3rd Byte) */
 4000dc0:	e13ffd17 	ldw	r4,-12(fp)
 4000dc4:	e0bfff17 	ldw	r2,-4(fp)
 4000dc8:	10800717 	ldw	r2,28(r2)
 4000dcc:	10803fcc 	andi	r2,r2,255
 4000dd0:	1005d43a 	srai	r2,r2,16
 4000dd4:	1007883a 	mov	r3,r2
 4000dd8:	00bfffc4 	movi	r2,-1
 4000ddc:	1884703a 	and	r2,r3,r2
 4000de0:	1007883a 	mov	r3,r2
 4000de4:	e0bfff17 	ldw	r2,-4(fp)
 4000de8:	2085883a 	add	r2,r4,r2
 4000dec:	10805204 	addi	r2,r2,328
 4000df0:	10c00005 	stb	r3,0(r2)
 4000df4:	e0bffd17 	ldw	r2,-12(fp)
 4000df8:	10800044 	addi	r2,r2,1
 4000dfc:	e0bffd15 	stw	r2,-12(fp)
    sNios->sUart0.ucTxBuf[idx] = (unsigned char )sNios->sMotor.sMotorAp.iMotorFBEncoder>>8 & 0xff; idx++;  /* [12] motor A feedback direction(2nd Byte) */
 4000e00:	e13ffd17 	ldw	r4,-12(fp)
 4000e04:	e0bfff17 	ldw	r2,-4(fp)
 4000e08:	10800717 	ldw	r2,28(r2)
 4000e0c:	10803fcc 	andi	r2,r2,255
 4000e10:	1005d23a 	srai	r2,r2,8
 4000e14:	1007883a 	mov	r3,r2
 4000e18:	00bfffc4 	movi	r2,-1
 4000e1c:	1884703a 	and	r2,r3,r2
 4000e20:	1007883a 	mov	r3,r2
 4000e24:	e0bfff17 	ldw	r2,-4(fp)
 4000e28:	2085883a 	add	r2,r4,r2
 4000e2c:	10805204 	addi	r2,r2,328
 4000e30:	10c00005 	stb	r3,0(r2)
 4000e34:	e0bffd17 	ldw	r2,-12(fp)
 4000e38:	10800044 	addi	r2,r2,1
 4000e3c:	e0bffd15 	stw	r2,-12(fp)
    sNios->sUart0.ucTxBuf[idx] = (unsigned char )sNios->sMotor.sMotorAp.iMotorFBEncoder & 0xff; idx++;     /* [13] motor A feedback direction(1st Byte) */
 4000e40:	e0fffd17 	ldw	r3,-12(fp)
 4000e44:	e0bfff17 	ldw	r2,-4(fp)
 4000e48:	10800717 	ldw	r2,28(r2)
 4000e4c:	1009883a 	mov	r4,r2
 4000e50:	e0bfff17 	ldw	r2,-4(fp)
 4000e54:	1885883a 	add	r2,r3,r2
 4000e58:	10805204 	addi	r2,r2,328
 4000e5c:	11000005 	stb	r4,0(r2)
 4000e60:	e0bffd17 	ldw	r2,-12(fp)
 4000e64:	10800044 	addi	r2,r2,1
 4000e68:	e0bffd15 	stw	r2,-12(fp)
    sNios->sUart0.ucTxBuf[idx] = (unsigned char )sNios->sMotor.sMotorBp.iMotorFBEncoder>>24 & 0xff; idx++; /* [14] motor B feedback direction(4th Byte)*/
 4000e6c:	e13ffd17 	ldw	r4,-12(fp)
 4000e70:	e0bfff17 	ldw	r2,-4(fp)
 4000e74:	10800f17 	ldw	r2,60(r2)
 4000e78:	10803fcc 	andi	r2,r2,255
 4000e7c:	1005d63a 	srai	r2,r2,24
 4000e80:	1007883a 	mov	r3,r2
 4000e84:	00bfffc4 	movi	r2,-1
 4000e88:	1884703a 	and	r2,r3,r2
 4000e8c:	1007883a 	mov	r3,r2
 4000e90:	e0bfff17 	ldw	r2,-4(fp)
 4000e94:	2085883a 	add	r2,r4,r2
 4000e98:	10805204 	addi	r2,r2,328
 4000e9c:	10c00005 	stb	r3,0(r2)
 4000ea0:	e0bffd17 	ldw	r2,-12(fp)
 4000ea4:	10800044 	addi	r2,r2,1
 4000ea8:	e0bffd15 	stw	r2,-12(fp)
    sNios->sUart0.ucTxBuf[idx] = (unsigned char )sNios->sMotor.sMotorBp.iMotorFBEncoder>>16 & 0xff; idx++; /* [15] motor B feedback direction(3rd Byte) */
 4000eac:	e13ffd17 	ldw	r4,-12(fp)
 4000eb0:	e0bfff17 	ldw	r2,-4(fp)
 4000eb4:	10800f17 	ldw	r2,60(r2)
 4000eb8:	10803fcc 	andi	r2,r2,255
 4000ebc:	1005d43a 	srai	r2,r2,16
 4000ec0:	1007883a 	mov	r3,r2
 4000ec4:	00bfffc4 	movi	r2,-1
 4000ec8:	1884703a 	and	r2,r3,r2
 4000ecc:	1007883a 	mov	r3,r2
 4000ed0:	e0bfff17 	ldw	r2,-4(fp)
 4000ed4:	2085883a 	add	r2,r4,r2
 4000ed8:	10805204 	addi	r2,r2,328
 4000edc:	10c00005 	stb	r3,0(r2)
 4000ee0:	e0bffd17 	ldw	r2,-12(fp)
 4000ee4:	10800044 	addi	r2,r2,1
 4000ee8:	e0bffd15 	stw	r2,-12(fp)
    sNios->sUart0.ucTxBuf[idx] = (unsigned char )sNios->sMotor.sMotorBp.iMotorFBEncoder>>8 & 0xff; idx++;  /* [16] motor B feedback direction(2nd Byte) */
 4000eec:	e13ffd17 	ldw	r4,-12(fp)
 4000ef0:	e0bfff17 	ldw	r2,-4(fp)
 4000ef4:	10800f17 	ldw	r2,60(r2)
 4000ef8:	10803fcc 	andi	r2,r2,255
 4000efc:	1005d23a 	srai	r2,r2,8
 4000f00:	1007883a 	mov	r3,r2
 4000f04:	00bfffc4 	movi	r2,-1
 4000f08:	1884703a 	and	r2,r3,r2
 4000f0c:	1007883a 	mov	r3,r2
 4000f10:	e0bfff17 	ldw	r2,-4(fp)
 4000f14:	2085883a 	add	r2,r4,r2
 4000f18:	10805204 	addi	r2,r2,328
 4000f1c:	10c00005 	stb	r3,0(r2)
 4000f20:	e0bffd17 	ldw	r2,-12(fp)
 4000f24:	10800044 	addi	r2,r2,1
 4000f28:	e0bffd15 	stw	r2,-12(fp)
    sNios->sUart0.ucTxBuf[idx] = (unsigned char )sNios->sMotor.sMotorBp.iMotorFBEncoder & 0xff; idx++;     /* [17] motor B feedback direction(1st Byte) */
 4000f2c:	e0fffd17 	ldw	r3,-12(fp)
 4000f30:	e0bfff17 	ldw	r2,-4(fp)
 4000f34:	10800f17 	ldw	r2,60(r2)
 4000f38:	1009883a 	mov	r4,r2
 4000f3c:	e0bfff17 	ldw	r2,-4(fp)
 4000f40:	1885883a 	add	r2,r3,r2
 4000f44:	10805204 	addi	r2,r2,328
 4000f48:	11000005 	stb	r4,0(r2)
 4000f4c:	e0bffd17 	ldw	r2,-12(fp)
 4000f50:	10800044 	addi	r2,r2,1
 4000f54:	e0bffd15 	stw	r2,-12(fp)
    sNios->sUart0.ucTxBuf[idx] = (unsigned char )sNios->sMotor.sMotorCp.iMotorFBEncoder>>24 & 0xff; idx++; /* [18] motor C feedback direction(4th Byte)*/
 4000f58:	e13ffd17 	ldw	r4,-12(fp)
 4000f5c:	e0bfff17 	ldw	r2,-4(fp)
 4000f60:	10801717 	ldw	r2,92(r2)
 4000f64:	10803fcc 	andi	r2,r2,255
 4000f68:	1005d63a 	srai	r2,r2,24
 4000f6c:	1007883a 	mov	r3,r2
 4000f70:	00bfffc4 	movi	r2,-1
 4000f74:	1884703a 	and	r2,r3,r2
 4000f78:	1007883a 	mov	r3,r2
 4000f7c:	e0bfff17 	ldw	r2,-4(fp)
 4000f80:	2085883a 	add	r2,r4,r2
 4000f84:	10805204 	addi	r2,r2,328
 4000f88:	10c00005 	stb	r3,0(r2)
 4000f8c:	e0bffd17 	ldw	r2,-12(fp)
 4000f90:	10800044 	addi	r2,r2,1
 4000f94:	e0bffd15 	stw	r2,-12(fp)
    sNios->sUart0.ucTxBuf[idx] = (unsigned char )sNios->sMotor.sMotorCp.iMotorFBEncoder>>16 & 0xff; idx++; /* [19] motor C feedback direction(3rd Byte) */
 4000f98:	e13ffd17 	ldw	r4,-12(fp)
 4000f9c:	e0bfff17 	ldw	r2,-4(fp)
 4000fa0:	10801717 	ldw	r2,92(r2)
 4000fa4:	10803fcc 	andi	r2,r2,255
 4000fa8:	1005d43a 	srai	r2,r2,16
 4000fac:	1007883a 	mov	r3,r2
 4000fb0:	00bfffc4 	movi	r2,-1
 4000fb4:	1884703a 	and	r2,r3,r2
 4000fb8:	1007883a 	mov	r3,r2
 4000fbc:	e0bfff17 	ldw	r2,-4(fp)
 4000fc0:	2085883a 	add	r2,r4,r2
 4000fc4:	10805204 	addi	r2,r2,328
 4000fc8:	10c00005 	stb	r3,0(r2)
 4000fcc:	e0bffd17 	ldw	r2,-12(fp)
 4000fd0:	10800044 	addi	r2,r2,1
 4000fd4:	e0bffd15 	stw	r2,-12(fp)
    sNios->sUart0.ucTxBuf[idx] = (unsigned char )sNios->sMotor.sMotorCp.iMotorFBEncoder>>8 & 0xff; idx++;  /* [20] motor C feedback direction(2nd Byte) */
 4000fd8:	e13ffd17 	ldw	r4,-12(fp)
 4000fdc:	e0bfff17 	ldw	r2,-4(fp)
 4000fe0:	10801717 	ldw	r2,92(r2)
 4000fe4:	10803fcc 	andi	r2,r2,255
 4000fe8:	1005d23a 	srai	r2,r2,8
 4000fec:	1007883a 	mov	r3,r2
 4000ff0:	00bfffc4 	movi	r2,-1
 4000ff4:	1884703a 	and	r2,r3,r2
 4000ff8:	1007883a 	mov	r3,r2
 4000ffc:	e0bfff17 	ldw	r2,-4(fp)
 4001000:	2085883a 	add	r2,r4,r2
 4001004:	10805204 	addi	r2,r2,328
 4001008:	10c00005 	stb	r3,0(r2)
 400100c:	e0bffd17 	ldw	r2,-12(fp)
 4001010:	10800044 	addi	r2,r2,1
 4001014:	e0bffd15 	stw	r2,-12(fp)
    sNios->sUart0.ucTxBuf[idx] = (unsigned char )sNios->sMotor.sMotorCp.iMotorFBEncoder & 0xff; idx++;     /* [21] motor C feedback direction(1st Byte) */
 4001018:	e0fffd17 	ldw	r3,-12(fp)
 400101c:	e0bfff17 	ldw	r2,-4(fp)
 4001020:	10801717 	ldw	r2,92(r2)
 4001024:	1009883a 	mov	r4,r2
 4001028:	e0bfff17 	ldw	r2,-4(fp)
 400102c:	1885883a 	add	r2,r3,r2
 4001030:	10805204 	addi	r2,r2,328
 4001034:	11000005 	stb	r4,0(r2)
 4001038:	e0bffd17 	ldw	r2,-12(fp)
 400103c:	10800044 	addi	r2,r2,1
 4001040:	e0bffd15 	stw	r2,-12(fp)
    sNios->sUart0.ucTxBuf[idx] = (unsigned char )sNios->sMotor.sMotorDp.iMotorFBEncoder>>24 & 0xff; idx++; /* [22] motor D feedback direction(4th Byte)*/
 4001044:	e13ffd17 	ldw	r4,-12(fp)
 4001048:	e0bfff17 	ldw	r2,-4(fp)
 400104c:	10801f17 	ldw	r2,124(r2)
 4001050:	10803fcc 	andi	r2,r2,255
 4001054:	1005d63a 	srai	r2,r2,24
 4001058:	1007883a 	mov	r3,r2
 400105c:	00bfffc4 	movi	r2,-1
 4001060:	1884703a 	and	r2,r3,r2
 4001064:	1007883a 	mov	r3,r2
 4001068:	e0bfff17 	ldw	r2,-4(fp)
 400106c:	2085883a 	add	r2,r4,r2
 4001070:	10805204 	addi	r2,r2,328
 4001074:	10c00005 	stb	r3,0(r2)
 4001078:	e0bffd17 	ldw	r2,-12(fp)
 400107c:	10800044 	addi	r2,r2,1
 4001080:	e0bffd15 	stw	r2,-12(fp)
    sNios->sUart0.ucTxBuf[idx] = (unsigned char )sNios->sMotor.sMotorDp.iMotorFBEncoder>>16 & 0xff; idx++; /* [23] motor D feedback direction(3rd Byte) */
 4001084:	e13ffd17 	ldw	r4,-12(fp)
 4001088:	e0bfff17 	ldw	r2,-4(fp)
 400108c:	10801f17 	ldw	r2,124(r2)
 4001090:	10803fcc 	andi	r2,r2,255
 4001094:	1005d43a 	srai	r2,r2,16
 4001098:	1007883a 	mov	r3,r2
 400109c:	00bfffc4 	movi	r2,-1
 40010a0:	1884703a 	and	r2,r3,r2
 40010a4:	1007883a 	mov	r3,r2
 40010a8:	e0bfff17 	ldw	r2,-4(fp)
 40010ac:	2085883a 	add	r2,r4,r2
 40010b0:	10805204 	addi	r2,r2,328
 40010b4:	10c00005 	stb	r3,0(r2)
 40010b8:	e0bffd17 	ldw	r2,-12(fp)
 40010bc:	10800044 	addi	r2,r2,1
 40010c0:	e0bffd15 	stw	r2,-12(fp)
    sNios->sUart0.ucTxBuf[idx] = (unsigned char )sNios->sMotor.sMotorDp.iMotorFBEncoder>>8 & 0xff; idx++;  /* [24] motor D feedback direction(2nd Byte) */
 40010c4:	e13ffd17 	ldw	r4,-12(fp)
 40010c8:	e0bfff17 	ldw	r2,-4(fp)
 40010cc:	10801f17 	ldw	r2,124(r2)
 40010d0:	10803fcc 	andi	r2,r2,255
 40010d4:	1005d23a 	srai	r2,r2,8
 40010d8:	1007883a 	mov	r3,r2
 40010dc:	00bfffc4 	movi	r2,-1
 40010e0:	1884703a 	and	r2,r3,r2
 40010e4:	1007883a 	mov	r3,r2
 40010e8:	e0bfff17 	ldw	r2,-4(fp)
 40010ec:	2085883a 	add	r2,r4,r2
 40010f0:	10805204 	addi	r2,r2,328
 40010f4:	10c00005 	stb	r3,0(r2)
 40010f8:	e0bffd17 	ldw	r2,-12(fp)
 40010fc:	10800044 	addi	r2,r2,1
 4001100:	e0bffd15 	stw	r2,-12(fp)
    sNios->sUart0.ucTxBuf[idx] = (unsigned char )sNios->sMotor.sMotorDp.iMotorFBEncoder & 0xff; idx++;     /* [25] motor D feedback direction(1st Byte) */
 4001104:	e0fffd17 	ldw	r3,-12(fp)
 4001108:	e0bfff17 	ldw	r2,-4(fp)
 400110c:	10801f17 	ldw	r2,124(r2)
 4001110:	1009883a 	mov	r4,r2
 4001114:	e0bfff17 	ldw	r2,-4(fp)
 4001118:	1885883a 	add	r2,r3,r2
 400111c:	10805204 	addi	r2,r2,328
 4001120:	11000005 	stb	r4,0(r2)
 4001124:	e0bffd17 	ldw	r2,-12(fp)
 4001128:	10800044 	addi	r2,r2,1
 400112c:	e0bffd15 	stw	r2,-12(fp)
    sNios->sUart0.ucTxBuf[idx] = (unsigned char )sNios->sMotor.sMotorAp.uiMotorFBSpeed>>8 & 0xff; idx++;   /* [26] motor A feedback speed(MsB Byte)*/
 4001130:	e13ffd17 	ldw	r4,-12(fp)
 4001134:	e0bfff17 	ldw	r2,-4(fp)
 4001138:	10800617 	ldw	r2,24(r2)
 400113c:	10803fcc 	andi	r2,r2,255
 4001140:	1005d23a 	srai	r2,r2,8
 4001144:	1007883a 	mov	r3,r2
 4001148:	00bfffc4 	movi	r2,-1
 400114c:	1884703a 	and	r2,r3,r2
 4001150:	1007883a 	mov	r3,r2
 4001154:	e0bfff17 	ldw	r2,-4(fp)
 4001158:	2085883a 	add	r2,r4,r2
 400115c:	10805204 	addi	r2,r2,328
 4001160:	10c00005 	stb	r3,0(r2)
 4001164:	e0bffd17 	ldw	r2,-12(fp)
 4001168:	10800044 	addi	r2,r2,1
 400116c:	e0bffd15 	stw	r2,-12(fp)
    sNios->sUart0.ucTxBuf[idx] = (unsigned char )sNios->sMotor.sMotorAp.uiMotorFBSpeed & 0xff; idx++;      /* [27] motor A feedback speed(LSB Byte) */
 4001170:	e0fffd17 	ldw	r3,-12(fp)
 4001174:	e0bfff17 	ldw	r2,-4(fp)
 4001178:	10800617 	ldw	r2,24(r2)
 400117c:	1009883a 	mov	r4,r2
 4001180:	e0bfff17 	ldw	r2,-4(fp)
 4001184:	1885883a 	add	r2,r3,r2
 4001188:	10805204 	addi	r2,r2,328
 400118c:	11000005 	stb	r4,0(r2)
 4001190:	e0bffd17 	ldw	r2,-12(fp)
 4001194:	10800044 	addi	r2,r2,1
 4001198:	e0bffd15 	stw	r2,-12(fp)
    sNios->sUart0.ucTxBuf[idx] = (unsigned char )sNios->sMotor.sMotorBp.uiMotorFBSpeed>>8 & 0xff; idx++;   /* [28] motor B feedback speed(MSB Byte) */
 400119c:	e13ffd17 	ldw	r4,-12(fp)
 40011a0:	e0bfff17 	ldw	r2,-4(fp)
 40011a4:	10800e17 	ldw	r2,56(r2)
 40011a8:	10803fcc 	andi	r2,r2,255
 40011ac:	1005d23a 	srai	r2,r2,8
 40011b0:	1007883a 	mov	r3,r2
 40011b4:	00bfffc4 	movi	r2,-1
 40011b8:	1884703a 	and	r2,r3,r2
 40011bc:	1007883a 	mov	r3,r2
 40011c0:	e0bfff17 	ldw	r2,-4(fp)
 40011c4:	2085883a 	add	r2,r4,r2
 40011c8:	10805204 	addi	r2,r2,328
 40011cc:	10c00005 	stb	r3,0(r2)
 40011d0:	e0bffd17 	ldw	r2,-12(fp)
 40011d4:	10800044 	addi	r2,r2,1
 40011d8:	e0bffd15 	stw	r2,-12(fp)
    sNios->sUart0.ucTxBuf[idx] = (unsigned char )sNios->sMotor.sMotorBp.uiMotorFBSpeed & 0xff; idx++;      /* [29] motor B feedback speed(LSB Byte) */
 40011dc:	e0fffd17 	ldw	r3,-12(fp)
 40011e0:	e0bfff17 	ldw	r2,-4(fp)
 40011e4:	10800e17 	ldw	r2,56(r2)
 40011e8:	1009883a 	mov	r4,r2
 40011ec:	e0bfff17 	ldw	r2,-4(fp)
 40011f0:	1885883a 	add	r2,r3,r2
 40011f4:	10805204 	addi	r2,r2,328
 40011f8:	11000005 	stb	r4,0(r2)
 40011fc:	e0bffd17 	ldw	r2,-12(fp)
 4001200:	10800044 	addi	r2,r2,1
 4001204:	e0bffd15 	stw	r2,-12(fp)
    sNios->sUart0.ucTxBuf[idx] = (unsigned char )sNios->sMotor.sMotorCp.uiMotorFBSpeed>>8 & 0xff; idx++;   /* [30] motor C feedback speed(MSB Byte)*/
 4001208:	e13ffd17 	ldw	r4,-12(fp)
 400120c:	e0bfff17 	ldw	r2,-4(fp)
 4001210:	10801617 	ldw	r2,88(r2)
 4001214:	10803fcc 	andi	r2,r2,255
 4001218:	1005d23a 	srai	r2,r2,8
 400121c:	1007883a 	mov	r3,r2
 4001220:	00bfffc4 	movi	r2,-1
 4001224:	1884703a 	and	r2,r3,r2
 4001228:	1007883a 	mov	r3,r2
 400122c:	e0bfff17 	ldw	r2,-4(fp)
 4001230:	2085883a 	add	r2,r4,r2
 4001234:	10805204 	addi	r2,r2,328
 4001238:	10c00005 	stb	r3,0(r2)
 400123c:	e0bffd17 	ldw	r2,-12(fp)
 4001240:	10800044 	addi	r2,r2,1
 4001244:	e0bffd15 	stw	r2,-12(fp)
    sNios->sUart0.ucTxBuf[idx] = (unsigned char )sNios->sMotor.sMotorCp.uiMotorFBSpeed & 0xff; idx++;      /* [31] motor C feedback speed(LSB Byte) */
 4001248:	e0fffd17 	ldw	r3,-12(fp)
 400124c:	e0bfff17 	ldw	r2,-4(fp)
 4001250:	10801617 	ldw	r2,88(r2)
 4001254:	1009883a 	mov	r4,r2
 4001258:	e0bfff17 	ldw	r2,-4(fp)
 400125c:	1885883a 	add	r2,r3,r2
 4001260:	10805204 	addi	r2,r2,328
 4001264:	11000005 	stb	r4,0(r2)
 4001268:	e0bffd17 	ldw	r2,-12(fp)
 400126c:	10800044 	addi	r2,r2,1
 4001270:	e0bffd15 	stw	r2,-12(fp)
    sNios->sUart0.ucTxBuf[idx] = (unsigned char )sNios->sMotor.sMotorDp.uiMotorFBSpeed>>8 & 0xff; idx++;   /* [32] motor D feedback speed(MSB Byte) */
 4001274:	e13ffd17 	ldw	r4,-12(fp)
 4001278:	e0bfff17 	ldw	r2,-4(fp)
 400127c:	10801e17 	ldw	r2,120(r2)
 4001280:	10803fcc 	andi	r2,r2,255
 4001284:	1005d23a 	srai	r2,r2,8
 4001288:	1007883a 	mov	r3,r2
 400128c:	00bfffc4 	movi	r2,-1
 4001290:	1884703a 	and	r2,r3,r2
 4001294:	1007883a 	mov	r3,r2
 4001298:	e0bfff17 	ldw	r2,-4(fp)
 400129c:	2085883a 	add	r2,r4,r2
 40012a0:	10805204 	addi	r2,r2,328
 40012a4:	10c00005 	stb	r3,0(r2)
 40012a8:	e0bffd17 	ldw	r2,-12(fp)
 40012ac:	10800044 	addi	r2,r2,1
 40012b0:	e0bffd15 	stw	r2,-12(fp)
    sNios->sUart0.ucTxBuf[idx] = (unsigned char )sNios->sMotor.sMotorDp.uiMotorFBSpeed & 0xff; idx++;      /* [33] motor D feedback speed(LSB Byte) */
 40012b4:	e0fffd17 	ldw	r3,-12(fp)
 40012b8:	e0bfff17 	ldw	r2,-4(fp)
 40012bc:	10801e17 	ldw	r2,120(r2)
 40012c0:	1009883a 	mov	r4,r2
 40012c4:	e0bfff17 	ldw	r2,-4(fp)
 40012c8:	1885883a 	add	r2,r3,r2
 40012cc:	10805204 	addi	r2,r2,328
 40012d0:	11000005 	stb	r4,0(r2)
 40012d4:	e0bffd17 	ldw	r2,-12(fp)
 40012d8:	10800044 	addi	r2,r2,1
 40012dc:	e0bffd15 	stw	r2,-12(fp)
    sNios->sUart0.ucTxBuf[idx] = (unsigned char )sNios->sMotor.sMotorAp.uiVoltage>>8 & 0xff; idx++;        /* [34] motor A feedback Voltage(MsB Byte)*/
 40012e0:	e13ffd17 	ldw	r4,-12(fp)
 40012e4:	e0bfff17 	ldw	r2,-4(fp)
 40012e8:	10800817 	ldw	r2,32(r2)
 40012ec:	10803fcc 	andi	r2,r2,255
 40012f0:	1005d23a 	srai	r2,r2,8
 40012f4:	1007883a 	mov	r3,r2
 40012f8:	00bfffc4 	movi	r2,-1
 40012fc:	1884703a 	and	r2,r3,r2
 4001300:	1007883a 	mov	r3,r2
 4001304:	e0bfff17 	ldw	r2,-4(fp)
 4001308:	2085883a 	add	r2,r4,r2
 400130c:	10805204 	addi	r2,r2,328
 4001310:	10c00005 	stb	r3,0(r2)
 4001314:	e0bffd17 	ldw	r2,-12(fp)
 4001318:	10800044 	addi	r2,r2,1
 400131c:	e0bffd15 	stw	r2,-12(fp)
    sNios->sUart0.ucTxBuf[idx] = (unsigned char )sNios->sMotor.sMotorAp.uiVoltage & 0xff; idx++;           /* [35] motor A feedback Voltage(LSB Byte) */
 4001320:	e0fffd17 	ldw	r3,-12(fp)
 4001324:	e0bfff17 	ldw	r2,-4(fp)
 4001328:	10800817 	ldw	r2,32(r2)
 400132c:	1009883a 	mov	r4,r2
 4001330:	e0bfff17 	ldw	r2,-4(fp)
 4001334:	1885883a 	add	r2,r3,r2
 4001338:	10805204 	addi	r2,r2,328
 400133c:	11000005 	stb	r4,0(r2)
 4001340:	e0bffd17 	ldw	r2,-12(fp)
 4001344:	10800044 	addi	r2,r2,1
 4001348:	e0bffd15 	stw	r2,-12(fp)
    sNios->sUart0.ucTxBuf[idx] = (unsigned char )sNios->sMotor.sMotorBp.uiVoltage>>8 & 0xff; idx++;        /* [36] motor B feedback Voltage(MSB Byte) */
 400134c:	e13ffd17 	ldw	r4,-12(fp)
 4001350:	e0bfff17 	ldw	r2,-4(fp)
 4001354:	10801017 	ldw	r2,64(r2)
 4001358:	10803fcc 	andi	r2,r2,255
 400135c:	1005d23a 	srai	r2,r2,8
 4001360:	1007883a 	mov	r3,r2
 4001364:	00bfffc4 	movi	r2,-1
 4001368:	1884703a 	and	r2,r3,r2
 400136c:	1007883a 	mov	r3,r2
 4001370:	e0bfff17 	ldw	r2,-4(fp)
 4001374:	2085883a 	add	r2,r4,r2
 4001378:	10805204 	addi	r2,r2,328
 400137c:	10c00005 	stb	r3,0(r2)
 4001380:	e0bffd17 	ldw	r2,-12(fp)
 4001384:	10800044 	addi	r2,r2,1
 4001388:	e0bffd15 	stw	r2,-12(fp)
    sNios->sUart0.ucTxBuf[idx] = (unsigned char )sNios->sMotor.sMotorBp.uiVoltage & 0xff; idx++;           /* [37] motor B feedback Voltage(LSB Byte) */
 400138c:	e0fffd17 	ldw	r3,-12(fp)
 4001390:	e0bfff17 	ldw	r2,-4(fp)
 4001394:	10801017 	ldw	r2,64(r2)
 4001398:	1009883a 	mov	r4,r2
 400139c:	e0bfff17 	ldw	r2,-4(fp)
 40013a0:	1885883a 	add	r2,r3,r2
 40013a4:	10805204 	addi	r2,r2,328
 40013a8:	11000005 	stb	r4,0(r2)
 40013ac:	e0bffd17 	ldw	r2,-12(fp)
 40013b0:	10800044 	addi	r2,r2,1
 40013b4:	e0bffd15 	stw	r2,-12(fp)
    sNios->sUart0.ucTxBuf[idx] = (unsigned char )sNios->sMotor.sMotorCp.uiVoltage>>8 & 0xff; idx++;        /* [38] motor C feedback Voltage(MSB Byte)*/
 40013b8:	e13ffd17 	ldw	r4,-12(fp)
 40013bc:	e0bfff17 	ldw	r2,-4(fp)
 40013c0:	10801817 	ldw	r2,96(r2)
 40013c4:	10803fcc 	andi	r2,r2,255
 40013c8:	1005d23a 	srai	r2,r2,8
 40013cc:	1007883a 	mov	r3,r2
 40013d0:	00bfffc4 	movi	r2,-1
 40013d4:	1884703a 	and	r2,r3,r2
 40013d8:	1007883a 	mov	r3,r2
 40013dc:	e0bfff17 	ldw	r2,-4(fp)
 40013e0:	2085883a 	add	r2,r4,r2
 40013e4:	10805204 	addi	r2,r2,328
 40013e8:	10c00005 	stb	r3,0(r2)
 40013ec:	e0bffd17 	ldw	r2,-12(fp)
 40013f0:	10800044 	addi	r2,r2,1
 40013f4:	e0bffd15 	stw	r2,-12(fp)
    sNios->sUart0.ucTxBuf[idx] = (unsigned char )sNios->sMotor.sMotorCp.uiVoltage & 0xff; idx++;           /* [39] motor C feedback Voltage(LSB Byte) */
 40013f8:	e0fffd17 	ldw	r3,-12(fp)
 40013fc:	e0bfff17 	ldw	r2,-4(fp)
 4001400:	10801817 	ldw	r2,96(r2)
 4001404:	1009883a 	mov	r4,r2
 4001408:	e0bfff17 	ldw	r2,-4(fp)
 400140c:	1885883a 	add	r2,r3,r2
 4001410:	10805204 	addi	r2,r2,328
 4001414:	11000005 	stb	r4,0(r2)
 4001418:	e0bffd17 	ldw	r2,-12(fp)
 400141c:	10800044 	addi	r2,r2,1
 4001420:	e0bffd15 	stw	r2,-12(fp)
    sNios->sUart0.ucTxBuf[idx] = (unsigned char )sNios->sMotor.sMotorDp.uiVoltage>>8 & 0xff; idx++;        /* [40] motor D feedback Voltage(MSB Byte) */
 4001424:	e13ffd17 	ldw	r4,-12(fp)
 4001428:	e0bfff17 	ldw	r2,-4(fp)
 400142c:	10802017 	ldw	r2,128(r2)
 4001430:	10803fcc 	andi	r2,r2,255
 4001434:	1005d23a 	srai	r2,r2,8
 4001438:	1007883a 	mov	r3,r2
 400143c:	00bfffc4 	movi	r2,-1
 4001440:	1884703a 	and	r2,r3,r2
 4001444:	1007883a 	mov	r3,r2
 4001448:	e0bfff17 	ldw	r2,-4(fp)
 400144c:	2085883a 	add	r2,r4,r2
 4001450:	10805204 	addi	r2,r2,328
 4001454:	10c00005 	stb	r3,0(r2)
 4001458:	e0bffd17 	ldw	r2,-12(fp)
 400145c:	10800044 	addi	r2,r2,1
 4001460:	e0bffd15 	stw	r2,-12(fp)
    sNios->sUart0.ucTxBuf[idx] = (unsigned char )sNios->sMotor.sMotorDp.uiVoltage & 0xff; idx++;           /* [41] motor D feedback Voltage(LSB Byte) */
 4001464:	e0fffd17 	ldw	r3,-12(fp)
 4001468:	e0bfff17 	ldw	r2,-4(fp)
 400146c:	10802017 	ldw	r2,128(r2)
 4001470:	1009883a 	mov	r4,r2
 4001474:	e0bfff17 	ldw	r2,-4(fp)
 4001478:	1885883a 	add	r2,r3,r2
 400147c:	10805204 	addi	r2,r2,328
 4001480:	11000005 	stb	r4,0(r2)
 4001484:	e0bffd17 	ldw	r2,-12(fp)
 4001488:	10800044 	addi	r2,r2,1
 400148c:	e0bffd15 	stw	r2,-12(fp)
    sNios->sUart0.ucTxBuf[idx] = (unsigned char )sNios->sMotor.sMotorAp.uiCurrent>>8 & 0xff; idx++;        /* [42] motor A feedback Current(MsB Byte)*/
 4001490:	e13ffd17 	ldw	r4,-12(fp)
 4001494:	e0bfff17 	ldw	r2,-4(fp)
 4001498:	10800917 	ldw	r2,36(r2)
 400149c:	10803fcc 	andi	r2,r2,255
 40014a0:	1005d23a 	srai	r2,r2,8
 40014a4:	1007883a 	mov	r3,r2
 40014a8:	00bfffc4 	movi	r2,-1
 40014ac:	1884703a 	and	r2,r3,r2
 40014b0:	1007883a 	mov	r3,r2
 40014b4:	e0bfff17 	ldw	r2,-4(fp)
 40014b8:	2085883a 	add	r2,r4,r2
 40014bc:	10805204 	addi	r2,r2,328
 40014c0:	10c00005 	stb	r3,0(r2)
 40014c4:	e0bffd17 	ldw	r2,-12(fp)
 40014c8:	10800044 	addi	r2,r2,1
 40014cc:	e0bffd15 	stw	r2,-12(fp)
    sNios->sUart0.ucTxBuf[idx] = (unsigned char )sNios->sMotor.sMotorAp.uiCurrent & 0xff; idx++;           /* [43] motor A feedback Current(LSB Byte) */
 40014d0:	e0fffd17 	ldw	r3,-12(fp)
 40014d4:	e0bfff17 	ldw	r2,-4(fp)
 40014d8:	10800917 	ldw	r2,36(r2)
 40014dc:	1009883a 	mov	r4,r2
 40014e0:	e0bfff17 	ldw	r2,-4(fp)
 40014e4:	1885883a 	add	r2,r3,r2
 40014e8:	10805204 	addi	r2,r2,328
 40014ec:	11000005 	stb	r4,0(r2)
 40014f0:	e0bffd17 	ldw	r2,-12(fp)
 40014f4:	10800044 	addi	r2,r2,1
 40014f8:	e0bffd15 	stw	r2,-12(fp)
    sNios->sUart0.ucTxBuf[idx] = (unsigned char )sNios->sMotor.sMotorBp.uiCurrent>>8 & 0xff; idx++;        /* [44] motor B feedback Current(MSB Byte) */
 40014fc:	e13ffd17 	ldw	r4,-12(fp)
 4001500:	e0bfff17 	ldw	r2,-4(fp)
 4001504:	10801117 	ldw	r2,68(r2)
 4001508:	10803fcc 	andi	r2,r2,255
 400150c:	1005d23a 	srai	r2,r2,8
 4001510:	1007883a 	mov	r3,r2
 4001514:	00bfffc4 	movi	r2,-1
 4001518:	1884703a 	and	r2,r3,r2
 400151c:	1007883a 	mov	r3,r2
 4001520:	e0bfff17 	ldw	r2,-4(fp)
 4001524:	2085883a 	add	r2,r4,r2
 4001528:	10805204 	addi	r2,r2,328
 400152c:	10c00005 	stb	r3,0(r2)
 4001530:	e0bffd17 	ldw	r2,-12(fp)
 4001534:	10800044 	addi	r2,r2,1
 4001538:	e0bffd15 	stw	r2,-12(fp)
    sNios->sUart0.ucTxBuf[idx] = (unsigned char )sNios->sMotor.sMotorBp.uiCurrent & 0xff; idx++;           /* [45] motor B feedback Current(LSB Byte) */
 400153c:	e0fffd17 	ldw	r3,-12(fp)
 4001540:	e0bfff17 	ldw	r2,-4(fp)
 4001544:	10801117 	ldw	r2,68(r2)
 4001548:	1009883a 	mov	r4,r2
 400154c:	e0bfff17 	ldw	r2,-4(fp)
 4001550:	1885883a 	add	r2,r3,r2
 4001554:	10805204 	addi	r2,r2,328
 4001558:	11000005 	stb	r4,0(r2)
 400155c:	e0bffd17 	ldw	r2,-12(fp)
 4001560:	10800044 	addi	r2,r2,1
 4001564:	e0bffd15 	stw	r2,-12(fp)
    sNios->sUart0.ucTxBuf[idx] = (unsigned char )sNios->sMotor.sMotorCp.uiCurrent>>8 & 0xff; idx++;        /* [46] motor C feedback Current(MSB Byte)*/
 4001568:	e13ffd17 	ldw	r4,-12(fp)
 400156c:	e0bfff17 	ldw	r2,-4(fp)
 4001570:	10801917 	ldw	r2,100(r2)
 4001574:	10803fcc 	andi	r2,r2,255
 4001578:	1005d23a 	srai	r2,r2,8
 400157c:	1007883a 	mov	r3,r2
 4001580:	00bfffc4 	movi	r2,-1
 4001584:	1884703a 	and	r2,r3,r2
 4001588:	1007883a 	mov	r3,r2
 400158c:	e0bfff17 	ldw	r2,-4(fp)
 4001590:	2085883a 	add	r2,r4,r2
 4001594:	10805204 	addi	r2,r2,328
 4001598:	10c00005 	stb	r3,0(r2)
 400159c:	e0bffd17 	ldw	r2,-12(fp)
 40015a0:	10800044 	addi	r2,r2,1
 40015a4:	e0bffd15 	stw	r2,-12(fp)
    sNios->sUart0.ucTxBuf[idx] = (unsigned char )sNios->sMotor.sMotorCp.uiCurrent & 0xff; idx++;           /* [47] motor C feedback Current(LSB Byte) */
 40015a8:	e0fffd17 	ldw	r3,-12(fp)
 40015ac:	e0bfff17 	ldw	r2,-4(fp)
 40015b0:	10801917 	ldw	r2,100(r2)
 40015b4:	1009883a 	mov	r4,r2
 40015b8:	e0bfff17 	ldw	r2,-4(fp)
 40015bc:	1885883a 	add	r2,r3,r2
 40015c0:	10805204 	addi	r2,r2,328
 40015c4:	11000005 	stb	r4,0(r2)
 40015c8:	e0bffd17 	ldw	r2,-12(fp)
 40015cc:	10800044 	addi	r2,r2,1
 40015d0:	e0bffd15 	stw	r2,-12(fp)
    sNios->sUart0.ucTxBuf[idx] = (unsigned char )sNios->sMotor.sMotorDp.uiCurrent>>8 & 0xff; idx++;        /* [48] motor D feedback Current(MSB Byte) */
 40015d4:	e13ffd17 	ldw	r4,-12(fp)
 40015d8:	e0bfff17 	ldw	r2,-4(fp)
 40015dc:	10802117 	ldw	r2,132(r2)
 40015e0:	10803fcc 	andi	r2,r2,255
 40015e4:	1005d23a 	srai	r2,r2,8
 40015e8:	1007883a 	mov	r3,r2
 40015ec:	00bfffc4 	movi	r2,-1
 40015f0:	1884703a 	and	r2,r3,r2
 40015f4:	1007883a 	mov	r3,r2
 40015f8:	e0bfff17 	ldw	r2,-4(fp)
 40015fc:	2085883a 	add	r2,r4,r2
 4001600:	10805204 	addi	r2,r2,328
 4001604:	10c00005 	stb	r3,0(r2)
 4001608:	e0bffd17 	ldw	r2,-12(fp)
 400160c:	10800044 	addi	r2,r2,1
 4001610:	e0bffd15 	stw	r2,-12(fp)
    sNios->sUart0.ucTxBuf[idx] = (unsigned char )sNios->sMotor.sMotorDp.uiCurrent & 0xff; idx++;           /* [49] motor D feedback Current(LSB Byte) */
 4001614:	e0fffd17 	ldw	r3,-12(fp)
 4001618:	e0bfff17 	ldw	r2,-4(fp)
 400161c:	10802117 	ldw	r2,132(r2)
 4001620:	1009883a 	mov	r4,r2
 4001624:	e0bfff17 	ldw	r2,-4(fp)
 4001628:	1885883a 	add	r2,r3,r2
 400162c:	10805204 	addi	r2,r2,328
 4001630:	11000005 	stb	r4,0(r2)
 4001634:	e0bffd17 	ldw	r2,-12(fp)
 4001638:	10800044 	addi	r2,r2,1
 400163c:	e0bffd15 	stw	r2,-12(fp)
    sNios->sUart0.ucTxBuf[idx] = (unsigned char )sNios->sIMU.uiRawAcce>>24 & 0xff; idx++;                  /* [50] IMU Accelerometer (4th Byte)*/
 4001640:	e13ffd17 	ldw	r4,-12(fp)
 4001644:	e0bfff17 	ldw	r2,-4(fp)
 4001648:	10807b17 	ldw	r2,492(r2)
 400164c:	10803fcc 	andi	r2,r2,255
 4001650:	1005d63a 	srai	r2,r2,24
 4001654:	1007883a 	mov	r3,r2
 4001658:	00bfffc4 	movi	r2,-1
 400165c:	1884703a 	and	r2,r3,r2
 4001660:	1007883a 	mov	r3,r2
 4001664:	e0bfff17 	ldw	r2,-4(fp)
 4001668:	2085883a 	add	r2,r4,r2
 400166c:	10805204 	addi	r2,r2,328
 4001670:	10c00005 	stb	r3,0(r2)
 4001674:	e0bffd17 	ldw	r2,-12(fp)
 4001678:	10800044 	addi	r2,r2,1
 400167c:	e0bffd15 	stw	r2,-12(fp)
    sNios->sUart0.ucTxBuf[idx] = (unsigned char )sNios->sIMU.uiRawAcce>>16 & 0xff; idx++;                  /* [51] IMU Accelerometer (3th Byte)*/
 4001680:	e13ffd17 	ldw	r4,-12(fp)
 4001684:	e0bfff17 	ldw	r2,-4(fp)
 4001688:	10807b17 	ldw	r2,492(r2)
 400168c:	10803fcc 	andi	r2,r2,255
 4001690:	1005d43a 	srai	r2,r2,16
 4001694:	1007883a 	mov	r3,r2
 4001698:	00bfffc4 	movi	r2,-1
 400169c:	1884703a 	and	r2,r3,r2
 40016a0:	1007883a 	mov	r3,r2
 40016a4:	e0bfff17 	ldw	r2,-4(fp)
 40016a8:	2085883a 	add	r2,r4,r2
 40016ac:	10805204 	addi	r2,r2,328
 40016b0:	10c00005 	stb	r3,0(r2)
 40016b4:	e0bffd17 	ldw	r2,-12(fp)
 40016b8:	10800044 	addi	r2,r2,1
 40016bc:	e0bffd15 	stw	r2,-12(fp)
    sNios->sUart0.ucTxBuf[idx] = (unsigned char )sNios->sIMU.uiRawAcce>>8 & 0xff; idx++;                   /* [52] IMU Accelerometer (2th Byte)*/
 40016c0:	e13ffd17 	ldw	r4,-12(fp)
 40016c4:	e0bfff17 	ldw	r2,-4(fp)
 40016c8:	10807b17 	ldw	r2,492(r2)
 40016cc:	10803fcc 	andi	r2,r2,255
 40016d0:	1005d23a 	srai	r2,r2,8
 40016d4:	1007883a 	mov	r3,r2
 40016d8:	00bfffc4 	movi	r2,-1
 40016dc:	1884703a 	and	r2,r3,r2
 40016e0:	1007883a 	mov	r3,r2
 40016e4:	e0bfff17 	ldw	r2,-4(fp)
 40016e8:	2085883a 	add	r2,r4,r2
 40016ec:	10805204 	addi	r2,r2,328
 40016f0:	10c00005 	stb	r3,0(r2)
 40016f4:	e0bffd17 	ldw	r2,-12(fp)
 40016f8:	10800044 	addi	r2,r2,1
 40016fc:	e0bffd15 	stw	r2,-12(fp)
    sNios->sUart0.ucTxBuf[idx] = (unsigned char )sNios->sIMU.uiRawAcce & 0xff; idx++;                      /* [53] IMU Accelerometer (1th Byte)*/
 4001700:	e0fffd17 	ldw	r3,-12(fp)
 4001704:	e0bfff17 	ldw	r2,-4(fp)
 4001708:	10807b17 	ldw	r2,492(r2)
 400170c:	1009883a 	mov	r4,r2
 4001710:	e0bfff17 	ldw	r2,-4(fp)
 4001714:	1885883a 	add	r2,r3,r2
 4001718:	10805204 	addi	r2,r2,328
 400171c:	11000005 	stb	r4,0(r2)
 4001720:	e0bffd17 	ldw	r2,-12(fp)
 4001724:	10800044 	addi	r2,r2,1
 4001728:	e0bffd15 	stw	r2,-12(fp)
    sNios->sUart0.ucTxBuf[idx] = (unsigned char )sNios->sIMU.uiRawGyro>>24 & 0xff; idx++;                  /* [54] IMU Gyroscope (4th Byte)*/
 400172c:	e13ffd17 	ldw	r4,-12(fp)
 4001730:	e0bfff17 	ldw	r2,-4(fp)
 4001734:	10807f17 	ldw	r2,508(r2)
 4001738:	10803fcc 	andi	r2,r2,255
 400173c:	1005d63a 	srai	r2,r2,24
 4001740:	1007883a 	mov	r3,r2
 4001744:	00bfffc4 	movi	r2,-1
 4001748:	1884703a 	and	r2,r3,r2
 400174c:	1007883a 	mov	r3,r2
 4001750:	e0bfff17 	ldw	r2,-4(fp)
 4001754:	2085883a 	add	r2,r4,r2
 4001758:	10805204 	addi	r2,r2,328
 400175c:	10c00005 	stb	r3,0(r2)
 4001760:	e0bffd17 	ldw	r2,-12(fp)
 4001764:	10800044 	addi	r2,r2,1
 4001768:	e0bffd15 	stw	r2,-12(fp)
    sNios->sUart0.ucTxBuf[idx] = (unsigned char )sNios->sIMU.uiRawGyro>>16 & 0xff; idx++;                  /* [55] IMU Gyroscope (3th Byte)*/
 400176c:	e13ffd17 	ldw	r4,-12(fp)
 4001770:	e0bfff17 	ldw	r2,-4(fp)
 4001774:	10807f17 	ldw	r2,508(r2)
 4001778:	10803fcc 	andi	r2,r2,255
 400177c:	1005d43a 	srai	r2,r2,16
 4001780:	1007883a 	mov	r3,r2
 4001784:	00bfffc4 	movi	r2,-1
 4001788:	1884703a 	and	r2,r3,r2
 400178c:	1007883a 	mov	r3,r2
 4001790:	e0bfff17 	ldw	r2,-4(fp)
 4001794:	2085883a 	add	r2,r4,r2
 4001798:	10805204 	addi	r2,r2,328
 400179c:	10c00005 	stb	r3,0(r2)
 40017a0:	e0bffd17 	ldw	r2,-12(fp)
 40017a4:	10800044 	addi	r2,r2,1
 40017a8:	e0bffd15 	stw	r2,-12(fp)
    sNios->sUart0.ucTxBuf[idx] = (unsigned char )sNios->sIMU.uiRawGyro>>8 & 0xff; idx++;                   /* [56] IMU Gyroscope (2th Byte)*/
 40017ac:	e13ffd17 	ldw	r4,-12(fp)
 40017b0:	e0bfff17 	ldw	r2,-4(fp)
 40017b4:	10807f17 	ldw	r2,508(r2)
 40017b8:	10803fcc 	andi	r2,r2,255
 40017bc:	1005d23a 	srai	r2,r2,8
 40017c0:	1007883a 	mov	r3,r2
 40017c4:	00bfffc4 	movi	r2,-1
 40017c8:	1884703a 	and	r2,r3,r2
 40017cc:	1007883a 	mov	r3,r2
 40017d0:	e0bfff17 	ldw	r2,-4(fp)
 40017d4:	2085883a 	add	r2,r4,r2
 40017d8:	10805204 	addi	r2,r2,328
 40017dc:	10c00005 	stb	r3,0(r2)
 40017e0:	e0bffd17 	ldw	r2,-12(fp)
 40017e4:	10800044 	addi	r2,r2,1
 40017e8:	e0bffd15 	stw	r2,-12(fp)
    sNios->sUart0.ucTxBuf[idx] = (unsigned char )sNios->sIMU.uiRawGyro & 0xff; idx++;                      /* [57] IMU Gyroscope (1th Byte)*/
 40017ec:	e0fffd17 	ldw	r3,-12(fp)
 40017f0:	e0bfff17 	ldw	r2,-4(fp)
 40017f4:	10807f17 	ldw	r2,508(r2)
 40017f8:	1009883a 	mov	r4,r2
 40017fc:	e0bfff17 	ldw	r2,-4(fp)
 4001800:	1885883a 	add	r2,r3,r2
 4001804:	10805204 	addi	r2,r2,328
 4001808:	11000005 	stb	r4,0(r2)
 400180c:	e0bffd17 	ldw	r2,-12(fp)
 4001810:	10800044 	addi	r2,r2,1
 4001814:	e0bffd15 	stw	r2,-12(fp)
    sNios->sUart0.ucTxBuf[idx] = (unsigned char )sNios->sIMU.uiRawMagn>>24 & 0xff; idx++;                  /* [58] IMU Magneticmeter (4th Byte)*/
 4001818:	e13ffd17 	ldw	r4,-12(fp)
 400181c:	e0bfff17 	ldw	r2,-4(fp)
 4001820:	10808317 	ldw	r2,524(r2)
 4001824:	10803fcc 	andi	r2,r2,255
 4001828:	1005d63a 	srai	r2,r2,24
 400182c:	1007883a 	mov	r3,r2
 4001830:	00bfffc4 	movi	r2,-1
 4001834:	1884703a 	and	r2,r3,r2
 4001838:	1007883a 	mov	r3,r2
 400183c:	e0bfff17 	ldw	r2,-4(fp)
 4001840:	2085883a 	add	r2,r4,r2
 4001844:	10805204 	addi	r2,r2,328
 4001848:	10c00005 	stb	r3,0(r2)
 400184c:	e0bffd17 	ldw	r2,-12(fp)
 4001850:	10800044 	addi	r2,r2,1
 4001854:	e0bffd15 	stw	r2,-12(fp)
    sNios->sUart0.ucTxBuf[idx] = (unsigned char )sNios->sIMU.uiRawMagn>>16 & 0xff; idx++;                  /* [59] IMU Magneticmeter (3th Byte)*/
 4001858:	e13ffd17 	ldw	r4,-12(fp)
 400185c:	e0bfff17 	ldw	r2,-4(fp)
 4001860:	10808317 	ldw	r2,524(r2)
 4001864:	10803fcc 	andi	r2,r2,255
 4001868:	1005d43a 	srai	r2,r2,16
 400186c:	1007883a 	mov	r3,r2
 4001870:	00bfffc4 	movi	r2,-1
 4001874:	1884703a 	and	r2,r3,r2
 4001878:	1007883a 	mov	r3,r2
 400187c:	e0bfff17 	ldw	r2,-4(fp)
 4001880:	2085883a 	add	r2,r4,r2
 4001884:	10805204 	addi	r2,r2,328
 4001888:	10c00005 	stb	r3,0(r2)
 400188c:	e0bffd17 	ldw	r2,-12(fp)
 4001890:	10800044 	addi	r2,r2,1
 4001894:	e0bffd15 	stw	r2,-12(fp)
    sNios->sUart0.ucTxBuf[idx] = (unsigned char )sNios->sIMU.uiRawMagn>>8 & 0xff; idx++;                   /* [60] IMU Magneticmeter (2th Byte)*/
 4001898:	e13ffd17 	ldw	r4,-12(fp)
 400189c:	e0bfff17 	ldw	r2,-4(fp)
 40018a0:	10808317 	ldw	r2,524(r2)
 40018a4:	10803fcc 	andi	r2,r2,255
 40018a8:	1005d23a 	srai	r2,r2,8
 40018ac:	1007883a 	mov	r3,r2
 40018b0:	00bfffc4 	movi	r2,-1
 40018b4:	1884703a 	and	r2,r3,r2
 40018b8:	1007883a 	mov	r3,r2
 40018bc:	e0bfff17 	ldw	r2,-4(fp)
 40018c0:	2085883a 	add	r2,r4,r2
 40018c4:	10805204 	addi	r2,r2,328
 40018c8:	10c00005 	stb	r3,0(r2)
 40018cc:	e0bffd17 	ldw	r2,-12(fp)
 40018d0:	10800044 	addi	r2,r2,1
 40018d4:	e0bffd15 	stw	r2,-12(fp)
    sNios->sUart0.ucTxBuf[idx] = (unsigned char )sNios->sIMU.uiRawMagn & 0xff; idx++;                      /* [61] IMU Magneticmeter (1th Byte)*/
 40018d8:	e0fffd17 	ldw	r3,-12(fp)
 40018dc:	e0bfff17 	ldw	r2,-4(fp)
 40018e0:	10808317 	ldw	r2,524(r2)
 40018e4:	1009883a 	mov	r4,r2
 40018e8:	e0bfff17 	ldw	r2,-4(fp)
 40018ec:	1885883a 	add	r2,r3,r2
 40018f0:	10805204 	addi	r2,r2,328
 40018f4:	11000005 	stb	r4,0(r2)
 40018f8:	e0bffd17 	ldw	r2,-12(fp)
 40018fc:	10800044 	addi	r2,r2,1
 4001900:	e0bffd15 	stw	r2,-12(fp)
    /* generate crc code */
    for(i=1, ucCRC = 0; i < UartPackageLengthToHost-1; i++){
 4001904:	00800044 	movi	r2,1
 4001908:	e0bffe15 	stw	r2,-8(fp)
 400190c:	e03ffc05 	stb	zero,-16(fp)
 4001910:	00000b06 	br	4001940 <PackUartDataToHost+0xd90>
        ucCRC +=  sNios->sUart0.ucTxBuf[i];
 4001914:	e0fffe17 	ldw	r3,-8(fp)
 4001918:	e0bfff17 	ldw	r2,-4(fp)
 400191c:	1885883a 	add	r2,r3,r2
 4001920:	10805204 	addi	r2,r2,328
 4001924:	10c00003 	ldbu	r3,0(r2)
 4001928:	e0bffc03 	ldbu	r2,-16(fp)
 400192c:	10c5883a 	add	r2,r2,r3
 4001930:	e0bffc05 	stb	r2,-16(fp)
    sNios->sUart0.ucTxBuf[idx] = (unsigned char )sNios->sIMU.uiRawMagn>>24 & 0xff; idx++;                  /* [58] IMU Magneticmeter (4th Byte)*/
    sNios->sUart0.ucTxBuf[idx] = (unsigned char )sNios->sIMU.uiRawMagn>>16 & 0xff; idx++;                  /* [59] IMU Magneticmeter (3th Byte)*/
    sNios->sUart0.ucTxBuf[idx] = (unsigned char )sNios->sIMU.uiRawMagn>>8 & 0xff; idx++;                   /* [60] IMU Magneticmeter (2th Byte)*/
    sNios->sUart0.ucTxBuf[idx] = (unsigned char )sNios->sIMU.uiRawMagn & 0xff; idx++;                      /* [61] IMU Magneticmeter (1th Byte)*/
    /* generate crc code */
    for(i=1, ucCRC = 0; i < UartPackageLengthToHost-1; i++){
 4001934:	e0bffe17 	ldw	r2,-8(fp)
 4001938:	10800044 	addi	r2,r2,1
 400193c:	e0bffe15 	stw	r2,-8(fp)
 4001940:	e0bffe17 	ldw	r2,-8(fp)
 4001944:	10800f90 	cmplti	r2,r2,62
 4001948:	103ff21e 	bne	r2,zero,4001914 <PackUartDataToHost+0xd64>
        ucCRC +=  sNios->sUart0.ucTxBuf[i];
    }
    sNios->sUart0.ucTxBuf[idx] = ucCRC; idx++;        /* [62] IMU Magneticmeter (1th Byte)*/
 400194c:	e0fffd17 	ldw	r3,-12(fp)
 4001950:	e0bfff17 	ldw	r2,-4(fp)
 4001954:	1885883a 	add	r2,r3,r2
 4001958:	10c05204 	addi	r3,r2,328
 400195c:	e0bffc03 	ldbu	r2,-16(fp)
 4001960:	18800005 	stb	r2,0(r3)
 4001964:	e0bffd17 	ldw	r2,-12(fp)
 4001968:	10800044 	addi	r2,r2,1
 400196c:	e0bffd15 	stw	r2,-12(fp)
    sNios->sUart0.ucTxBuf[idx] = UartPackageFrameEnd; /* [63] package end */
 4001970:	e0fffd17 	ldw	r3,-12(fp)
 4001974:	e0bfff17 	ldw	r2,-4(fp)
 4001978:	1885883a 	add	r2,r3,r2
 400197c:	10c05204 	addi	r3,r2,328
 4001980:	00bffb84 	movi	r2,-18
 4001984:	18800005 	stb	r2,0(r3)
    sNios->sUart0.uiTxBuf_Head = 0;
 4001988:	e0bfff17 	ldw	r2,-4(fp)
 400198c:	10007215 	stw	zero,456(r2)
    sNios->sUart0.uiTxBuf_End = UartPackageLengthToHost;
 4001990:	e0ffff17 	ldw	r3,-4(fp)
 4001994:	00800fc4 	movi	r2,63
 4001998:	18807315 	stw	r2,460(r3)

#endif
}
 400199c:	e037883a 	mov	sp,fp
 40019a0:	df000017 	ldw	fp,0(sp)
 40019a4:	dec00104 	addi	sp,sp,4
 40019a8:	f800283a 	ret

040019ac <InitSystem>:

#define DEBUG_MESSAGE /* open debug message */

extern void MotorDriverInit(sMotor_s *sMotor); /* initial motor driver */

void InitSystem(sNios_s *sNios){
 40019ac:	defffd04 	addi	sp,sp,-12
 40019b0:	dfc00215 	stw	ra,8(sp)
 40019b4:	df000115 	stw	fp,4(sp)
 40019b8:	df000104 	addi	fp,sp,4
 40019bc:	e13fff15 	stw	r4,-4(fp)
    /* init fifo */

    MotorDriverInit(&sNios->sMotor); /* initial motor driver */
 40019c0:	e13fff17 	ldw	r4,-4(fp)
 40019c4:	40021900 	call	4002190 <MotorDriverInit>

    /* initial PID controller*/
    PIDinit(&sNios->sPID_MA, PIDControlTimeUnit);
 40019c8:	e0bfff17 	ldw	r2,-4(fp)
 40019cc:	11008404 	addi	r4,r2,528
 40019d0:	01400044 	movi	r5,1
 40019d4:	4001d3c0 	call	4001d3c <PIDinit>
    PIDinit(&sNios->sPID_MB, PIDControlTimeUnit);
 40019d8:	e0bfff17 	ldw	r2,-4(fp)
 40019dc:	11009104 	addi	r4,r2,580
 40019e0:	01400044 	movi	r5,1
 40019e4:	4001d3c0 	call	4001d3c <PIDinit>
    PIDinit(&sNios->sPID_MC, PIDControlTimeUnit);
 40019e8:	e0bfff17 	ldw	r2,-4(fp)
 40019ec:	11009e04 	addi	r4,r2,632
 40019f0:	01400044 	movi	r5,1
 40019f4:	4001d3c0 	call	4001d3c <PIDinit>
    PIDinit(&sNios->sPID_MD, PIDControlTimeUnit);
 40019f8:	e0bfff17 	ldw	r2,-4(fp)
 40019fc:	1100ab04 	addi	r4,r2,684
 4001a00:	01400044 	movi	r5,1
 4001a04:	4001d3c0 	call	4001d3c <PIDinit>


    /* final initial */
        /* initial Uart0 */
        UartISRInitial(&sNios->sUart0);
 4001a08:	e0bfff17 	ldw	r2,-4(fp)
 4001a0c:	11002c04 	addi	r4,r2,176
 4001a10:	4002e7c0 	call	4002e7c <UartISRInitial>
        /* initial timer0 */
        TimerISRInitial(&sNios->sTimer0, TimerInterruptTime); /* timer initial, in timer.c */
 4001a14:	e0bfff17 	ldw	r2,-4(fp)
 4001a18:	11002404 	addi	r4,r2,144
 4001a1c:	014ea0f4 	movhi	r5,14979
 4001a20:	29449bc4 	addi	r5,r5,4719
 4001a24:	4002bf80 	call	4002bf8 <TimerISRInitial>


    IOWR(SYSREG_BASE,3,0x80000000);  /* clear all fifo */
 4001a28:	00c60304 	movi	r3,6156
 4001a2c:	00a00034 	movhi	r2,32768
 4001a30:	18800035 	stwio	r2,0(r3)
    IOWR(SYSREG_BASE,3,0x00000000);  /* clear all fisfo */
 4001a34:	00860304 	movi	r2,6156
 4001a38:	10000035 	stwio	zero,0(r2)
}
 4001a3c:	e037883a 	mov	sp,fp
 4001a40:	dfc00117 	ldw	ra,4(sp)
 4001a44:	df000017 	ldw	fp,0(sp)
 4001a48:	dec00204 	addi	sp,sp,8
 4001a4c:	f800283a 	ret

04001a50 <main>:


int main()
{
 4001a50:	deff4604 	addi	sp,sp,-744
 4001a54:	dfc0b915 	stw	ra,740(sp)
 4001a58:	df00b815 	stw	fp,736(sp)
 4001a5c:	df00b804 	addi	fp,sp,736
    sNios_s sNios;      /* declare sMotor structure variable */
    InitSystem(&sNios); /* initial system */
 4001a60:	e13f4804 	addi	r4,fp,-736
 4001a64:	40019ac0 	call	40019ac <InitSystem>
//    sNios.sTimer0.sNios_p = (unsigned int)(&sNios); /* store sNios address */
    sNios.sTimer0.sNios_p = &sNios; /* store sNios address */
 4001a68:	e0bf4804 	addi	r2,fp,-736
 4001a6c:	e0bf7315 	stw	r2,-564(fp)
    printf("Start..\n");
 4001a70:	01010074 	movhi	r4,1025
 4001a74:	2106cf04 	addi	r4,r4,6972
 4001a78:	4003ed00 	call	4003ed0 <puts>
    while(1){

//        MotorTestFun(&sNios.sMotor);    /* Test motor function */
        PackUartDataToHost(&sNios);     /* pack uart data */
 4001a7c:	e13f4804 	addi	r4,fp,-736
 4001a80:	4000bb00 	call	4000bb0 <PackUartDataToHost>
//        ReadIMU(&sNios.sIMU);           /* read IMU */
//        usleep(10000);
//        if(sNios.sMotor.sMotorAp.uiMotorFBSpeed != 0xdeadbeef)
//            printf("SPD=%d, PWM=%d.\n", sNios.sMotor.sMotorAp.uiMotorFBSpeed,  sNios.sMotor.sMotorAp.ucMotorPWM);

    }
 4001a84:	003ffd06 	br	4001a7c <main+0x2c>

04001a88 <ReadIMU>:
#include "imu.h"

void ReadIMU(sIMU_s *sIMU){
 4001a88:	defffb04 	addi	sp,sp,-20
 4001a8c:	df000415 	stw	fp,16(sp)
 4001a90:	df000404 	addi	fp,sp,16
 4001a94:	e13fff15 	stw	r4,-4(fp)
    unsigned int uiFifoStatus;
    int uiIMUdata, iTmp;
    uiFifoStatus = IORD(SYSREG_BASE, 4); /* read sensor fifo register */
 4001a98:	00860404 	movi	r2,6160
 4001a9c:	10800037 	ldwio	r2,0(r2)
 4001aa0:	e0bffe15 	stw	r2,-8(fp)
    if(uiFifoStatus & 0x100000) { /* 20th bit, Accelerometer fifo */
 4001aa4:	e0bffe17 	ldw	r2,-8(fp)
 4001aa8:	1080042c 	andhi	r2,r2,16
 4001aac:	1005003a 	cmpeq	r2,r2,zero
 4001ab0:	1000221e 	bne	r2,zero,4001b3c <ReadIMU+0xb4>
        uiIMUdata = IORD(SYSREG_BASE, 29); /* read accelerometer value*/
 4001ab4:	00861d04 	movi	r2,6260
 4001ab8:	10800037 	ldwio	r2,0(r2)
 4001abc:	e0bffd15 	stw	r2,-12(fp)
        sIMU->uiRawAcce = uiIMUdata;    /* store raw data */
 4001ac0:	e0fffd17 	ldw	r3,-12(fp)
 4001ac4:	e0bfff17 	ldw	r2,-4(fp)
 4001ac8:	10c00315 	stw	r3,12(r2)
        iTmp = (int) (uiIMUdata & 0x000003FF) << 22;    /* [9:0]bit is X-asis */
 4001acc:	e0bffd17 	ldw	r2,-12(fp)
 4001ad0:	1080ffcc 	andi	r2,r2,1023
 4001ad4:	100495ba 	slli	r2,r2,22
 4001ad8:	e0bffc15 	stw	r2,-16(fp)
        sIMU->iAccX = (int) (iTmp) >> 22;          /* X-asis */
 4001adc:	e0bffc17 	ldw	r2,-16(fp)
 4001ae0:	1007d5ba 	srai	r3,r2,22
 4001ae4:	e0bfff17 	ldw	r2,-4(fp)
 4001ae8:	10c00015 	stw	r3,0(r2)
        iTmp = (int) (uiIMUdata & 0x000FFC00) << 12;  /* [19:10]bit is Y-asis */
 4001aec:	e0fffd17 	ldw	r3,-12(fp)
 4001af0:	00800434 	movhi	r2,16
 4001af4:	10bf0004 	addi	r2,r2,-1024
 4001af8:	1884703a 	and	r2,r3,r2
 4001afc:	1004933a 	slli	r2,r2,12
 4001b00:	e0bffc15 	stw	r2,-16(fp)
        sIMU->iAccY = (int) (iTmp) >> 22;          /* Y-asis */
 4001b04:	e0bffc17 	ldw	r2,-16(fp)
 4001b08:	1007d5ba 	srai	r3,r2,22
 4001b0c:	e0bfff17 	ldw	r2,-4(fp)
 4001b10:	10c00115 	stw	r3,4(r2)
        iTmp = (int) (uiIMUdata & 0x3FF00000) << 2; /* [29:20]bit is Z-asis */
 4001b14:	e0bffd17 	ldw	r2,-12(fp)
 4001b18:	108ffc2c 	andhi	r2,r2,16368
 4001b1c:	1085883a 	add	r2,r2,r2
 4001b20:	1085883a 	add	r2,r2,r2
 4001b24:	e0bffc15 	stw	r2,-16(fp)
        sIMU->iAccZ = (int) (iTmp) >> 22;          /* Z-asis */
 4001b28:	e0bffc17 	ldw	r2,-16(fp)
 4001b2c:	1007d5ba 	srai	r3,r2,22
 4001b30:	e0bfff17 	ldw	r2,-4(fp)
 4001b34:	10c00215 	stw	r3,8(r2)
 4001b38:	00001006 	br	4001b7c <ReadIMU+0xf4>
#ifdef DEBUG_IMU
        printf("[MSG][IMU]Acce: x(%4d), Y(%4d), Z(%4d)\n",sIMU->iAccX, sIMU->iAccY, sIMU->iAccZ);
#endif
    }else{
        sIMU->uiRawAcce = 0xDeadBeef;   /* no data */
 4001b3c:	e0ffff17 	ldw	r3,-4(fp)
 4001b40:	00b7abb4 	movhi	r2,57006
 4001b44:	10afbbc4 	addi	r2,r2,-16657
 4001b48:	18800315 	stw	r2,12(r3)
        sIMU->iAccX = 0xDeadBeef;      /* no data */
 4001b4c:	e0ffff17 	ldw	r3,-4(fp)
 4001b50:	00b7abb4 	movhi	r2,57006
 4001b54:	10afbbc4 	addi	r2,r2,-16657
 4001b58:	18800015 	stw	r2,0(r3)
        sIMU->iAccY = 0xDeadBeef;      /* no data */
 4001b5c:	e0ffff17 	ldw	r3,-4(fp)
 4001b60:	00b7abb4 	movhi	r2,57006
 4001b64:	10afbbc4 	addi	r2,r2,-16657
 4001b68:	18800115 	stw	r2,4(r3)
        sIMU->iAccZ = 0xDeadBeef;      /* no data */
 4001b6c:	e0ffff17 	ldw	r3,-4(fp)
 4001b70:	00b7abb4 	movhi	r2,57006
 4001b74:	10afbbc4 	addi	r2,r2,-16657
 4001b78:	18800215 	stw	r2,8(r3)
    }
    if(uiFifoStatus & 0x200000){ /*21th bit, Gyroscope fifo */
 4001b7c:	e0bffe17 	ldw	r2,-8(fp)
 4001b80:	1080082c 	andhi	r2,r2,32
 4001b84:	1005003a 	cmpeq	r2,r2,zero
 4001b88:	1000221e 	bne	r2,zero,4001c14 <ReadIMU+0x18c>
        uiIMUdata = IORD(SYSREG_BASE, 30); /* read accelerometer value*/
 4001b8c:	00861e04 	movi	r2,6264
 4001b90:	10800037 	ldwio	r2,0(r2)
 4001b94:	e0bffd15 	stw	r2,-12(fp)
        sIMU->uiRawGyro = uiIMUdata;    /* store raw data */
 4001b98:	e0fffd17 	ldw	r3,-12(fp)
 4001b9c:	e0bfff17 	ldw	r2,-4(fp)
 4001ba0:	10c00715 	stw	r3,28(r2)
        iTmp = (int) (uiIMUdata & 0x000003FF) << 22;    /* [9:0]bit is X-asis */
 4001ba4:	e0bffd17 	ldw	r2,-12(fp)
 4001ba8:	1080ffcc 	andi	r2,r2,1023
 4001bac:	100495ba 	slli	r2,r2,22
 4001bb0:	e0bffc15 	stw	r2,-16(fp)
        sIMU->iGyroX = (int) (iTmp) >> 22;               /* X-asis */
 4001bb4:	e0bffc17 	ldw	r2,-16(fp)
 4001bb8:	1007d5ba 	srai	r3,r2,22
 4001bbc:	e0bfff17 	ldw	r2,-4(fp)
 4001bc0:	10c00415 	stw	r3,16(r2)
        iTmp = (int) (uiIMUdata & 0x000FFC00) << 12;    /* [19:10]bit is Y-asis */
 4001bc4:	e0fffd17 	ldw	r3,-12(fp)
 4001bc8:	00800434 	movhi	r2,16
 4001bcc:	10bf0004 	addi	r2,r2,-1024
 4001bd0:	1884703a 	and	r2,r3,r2
 4001bd4:	1004933a 	slli	r2,r2,12
 4001bd8:	e0bffc15 	stw	r2,-16(fp)
        sIMU->iGyroY = (int) (iTmp) >> 22;               /* Y-asis */
 4001bdc:	e0bffc17 	ldw	r2,-16(fp)
 4001be0:	1007d5ba 	srai	r3,r2,22
 4001be4:	e0bfff17 	ldw	r2,-4(fp)
 4001be8:	10c00515 	stw	r3,20(r2)
        iTmp = (int) (uiIMUdata & 0x3FF00000) << 2;     /* [29:20]bit is Z-asis */
 4001bec:	e0bffd17 	ldw	r2,-12(fp)
 4001bf0:	108ffc2c 	andhi	r2,r2,16368
 4001bf4:	1085883a 	add	r2,r2,r2
 4001bf8:	1085883a 	add	r2,r2,r2
 4001bfc:	e0bffc15 	stw	r2,-16(fp)
        sIMU->iGyroZ = (int) (iTmp) >> 22;               /* Z-asis */
 4001c00:	e0bffc17 	ldw	r2,-16(fp)
 4001c04:	1007d5ba 	srai	r3,r2,22
 4001c08:	e0bfff17 	ldw	r2,-4(fp)
 4001c0c:	10c00615 	stw	r3,24(r2)
 4001c10:	00001006 	br	4001c54 <ReadIMU+0x1cc>
//        printf("Gyro: x(%4d), Y(%4d), Z(%4d)\n",sIMU->iGyroX, sIMU->iGyroY, sIMU->iGyroZ);
    }else{
        sIMU->uiRawGyro = 0xDeadBeef;   /* no data */
 4001c14:	e0ffff17 	ldw	r3,-4(fp)
 4001c18:	00b7abb4 	movhi	r2,57006
 4001c1c:	10afbbc4 	addi	r2,r2,-16657
 4001c20:	18800715 	stw	r2,28(r3)
        sIMU->iGyroX = 0xDeadBeef;      /* no data */
 4001c24:	e0ffff17 	ldw	r3,-4(fp)
 4001c28:	00b7abb4 	movhi	r2,57006
 4001c2c:	10afbbc4 	addi	r2,r2,-16657
 4001c30:	18800415 	stw	r2,16(r3)
        sIMU->iGyroY = 0xDeadBeef;      /* no data */
 4001c34:	e0ffff17 	ldw	r3,-4(fp)
 4001c38:	00b7abb4 	movhi	r2,57006
 4001c3c:	10afbbc4 	addi	r2,r2,-16657
 4001c40:	18800515 	stw	r2,20(r3)
        sIMU->iGyroZ = 0xDeadBeef;      /* no data */
 4001c44:	e0ffff17 	ldw	r3,-4(fp)
 4001c48:	00b7abb4 	movhi	r2,57006
 4001c4c:	10afbbc4 	addi	r2,r2,-16657
 4001c50:	18800615 	stw	r2,24(r3)
    }
    if(uiFifoStatus & 0x400000){ /*22th bit, Magnetic fifo */
 4001c54:	e0bffe17 	ldw	r2,-8(fp)
 4001c58:	1080102c 	andhi	r2,r2,64
 4001c5c:	1005003a 	cmpeq	r2,r2,zero
 4001c60:	1000221e 	bne	r2,zero,4001cec <ReadIMU+0x264>
        uiIMUdata = IORD(SYSREG_BASE, 31); /* read Magneticmeter value*/
 4001c64:	00861f04 	movi	r2,6268
 4001c68:	10800037 	ldwio	r2,0(r2)
 4001c6c:	e0bffd15 	stw	r2,-12(fp)
        sIMU->uiRawMagn = uiIMUdata;    /* store raw data */
 4001c70:	e0fffd17 	ldw	r3,-12(fp)
 4001c74:	e0bfff17 	ldw	r2,-4(fp)
 4001c78:	10c00b15 	stw	r3,44(r2)
        iTmp = (int) (uiIMUdata & 0x000003FF) << 22;    /* [9:0]bit is X-asis */
 4001c7c:	e0bffd17 	ldw	r2,-12(fp)
 4001c80:	1080ffcc 	andi	r2,r2,1023
 4001c84:	100495ba 	slli	r2,r2,22
 4001c88:	e0bffc15 	stw	r2,-16(fp)
        sIMU->iMagnX = (int) (iTmp) >> 22;               /* X-asis */
 4001c8c:	e0bffc17 	ldw	r2,-16(fp)
 4001c90:	1007d5ba 	srai	r3,r2,22
 4001c94:	e0bfff17 	ldw	r2,-4(fp)
 4001c98:	10c00815 	stw	r3,32(r2)
        iTmp = (int) (uiIMUdata & 0x000FFC00) << 12;    /* [19:10]bit is Y-asis */
 4001c9c:	e0fffd17 	ldw	r3,-12(fp)
 4001ca0:	00800434 	movhi	r2,16
 4001ca4:	10bf0004 	addi	r2,r2,-1024
 4001ca8:	1884703a 	and	r2,r3,r2
 4001cac:	1004933a 	slli	r2,r2,12
 4001cb0:	e0bffc15 	stw	r2,-16(fp)
        sIMU->iMagnY = (int) (iTmp) >> 22;               /* Y-asis */
 4001cb4:	e0bffc17 	ldw	r2,-16(fp)
 4001cb8:	1007d5ba 	srai	r3,r2,22
 4001cbc:	e0bfff17 	ldw	r2,-4(fp)
 4001cc0:	10c00915 	stw	r3,36(r2)
        iTmp = (int) (uiIMUdata & 0x3FF00000) << 2;     /* [29:20]bit is Z-asis */
 4001cc4:	e0bffd17 	ldw	r2,-12(fp)
 4001cc8:	108ffc2c 	andhi	r2,r2,16368
 4001ccc:	1085883a 	add	r2,r2,r2
 4001cd0:	1085883a 	add	r2,r2,r2
 4001cd4:	e0bffc15 	stw	r2,-16(fp)
        sIMU->iMagnZ = (int) (iTmp) >> 22;               /* Z-asis */
 4001cd8:	e0bffc17 	ldw	r2,-16(fp)
 4001cdc:	1007d5ba 	srai	r3,r2,22
 4001ce0:	e0bfff17 	ldw	r2,-4(fp)
 4001ce4:	10c00a15 	stw	r3,40(r2)
 4001ce8:	00001006 	br	4001d2c <ReadIMU+0x2a4>
//        printf("Magn: x(%4d), Y(%4d), Z(%4d)\n",sIMU->iMagnX, sIMU->iMagnY, sIMU->iMagnZ);
    }else{
        sIMU->uiRawMagn = 0xDeadBeef;   /* no data */
 4001cec:	e0ffff17 	ldw	r3,-4(fp)
 4001cf0:	00b7abb4 	movhi	r2,57006
 4001cf4:	10afbbc4 	addi	r2,r2,-16657
 4001cf8:	18800b15 	stw	r2,44(r3)
        sIMU->iMagnX = 0xDeadBeef;      /* no data */
 4001cfc:	e0ffff17 	ldw	r3,-4(fp)
 4001d00:	00b7abb4 	movhi	r2,57006
 4001d04:	10afbbc4 	addi	r2,r2,-16657
 4001d08:	18800815 	stw	r2,32(r3)
        sIMU->iMagnY = 0xDeadBeef;      /* no data */
 4001d0c:	e0ffff17 	ldw	r3,-4(fp)
 4001d10:	00b7abb4 	movhi	r2,57006
 4001d14:	10afbbc4 	addi	r2,r2,-16657
 4001d18:	18800915 	stw	r2,36(r3)
        sIMU->iMagnZ = 0xDeadBeef;      /* no data */
 4001d1c:	e0ffff17 	ldw	r3,-4(fp)
 4001d20:	00b7abb4 	movhi	r2,57006
 4001d24:	10afbbc4 	addi	r2,r2,-16657
 4001d28:	18800a15 	stw	r2,40(r3)
    }
}
 4001d2c:	e037883a 	mov	sp,fp
 4001d30:	df000017 	ldw	fp,0(sp)
 4001d34:	dec00104 	addi	sp,sp,4
 4001d38:	f800283a 	ret

04001d3c <PIDinit>:
#include "controller.h"


void PIDinit(sPIDCtrl_s *sCtrl, unsigned int uiCtrlTimeUnit){
 4001d3c:	defffd04 	addi	sp,sp,-12
 4001d40:	df000215 	stw	fp,8(sp)
 4001d44:	df000204 	addi	fp,sp,8
 4001d48:	e13ffe15 	stw	r4,-8(fp)
 4001d4c:	e17fff15 	stw	r5,-4(fp)
    /* PID digital controller formula:
     *      yo(kT) = KpE(kT) +Ki(sigma{j=0}{t}E(jT))+Kd[E(kT)-E((k-1)T)])
     *
     *
     * */
    sCtrl->fRefCom = 0;
 4001d50:	e0bffe17 	ldw	r2,-8(fp)
 4001d54:	10000115 	stw	zero,4(r2)
    sCtrl->fErrT = 0;
 4001d58:	e0bffe17 	ldw	r2,-8(fp)
 4001d5c:	10000515 	stw	zero,20(r2)
    sCtrl->fDeltaErr = 0;
 4001d60:	e0bffe17 	ldw	r2,-8(fp)
 4001d64:	10000715 	stw	zero,28(r2)
    sCtrl->fErrLastTime = 0; /* timer interrupt unit */
 4001d68:	e0bffe17 	ldw	r2,-8(fp)
 4001d6c:	10000615 	stw	zero,24(r2)
    sCtrl->fIntegralErr = 0;
 4001d70:	e0bffe17 	ldw	r2,-8(fp)
 4001d74:	10000815 	stw	zero,32(r2)
    sCtrl->fDeltaCmd = 0;
 4001d78:	e0bffe17 	ldw	r2,-8(fp)
 4001d7c:	10000b15 	stw	zero,44(r2)
    sCtrl->iCtrlOutCmd = 0;
 4001d80:	e0bffe17 	ldw	r2,-8(fp)
 4001d84:	10000c15 	stw	zero,48(r2)

    /* set parameters */
    sCtrl->fKp = PID_Kp;
 4001d88:	e0fffe17 	ldw	r3,-8(fp)
 4001d8c:	008fc034 	movhi	r2,16128
 4001d90:	18800215 	stw	r2,8(r3)
    sCtrl->fKi = PID_Ki;
 4001d94:	e0fffe17 	ldw	r3,-8(fp)
 4001d98:	008fa034 	movhi	r2,16000
 4001d9c:	18800315 	stw	r2,12(r3)
    sCtrl->fKd = PID_Kd;
 4001da0:	e0fffe17 	ldw	r3,-8(fp)
 4001da4:	008fa034 	movhi	r2,16000
 4001da8:	18800415 	stw	r2,16(r3)
    sCtrl->uiControlTime = uiCtrlTimeUnit;
 4001dac:	e0fffe17 	ldw	r3,-8(fp)
 4001db0:	e0bfff17 	ldw	r2,-4(fp)
 4001db4:	18800915 	stw	r2,36(r3)
    sCtrl->uiSpdCntCmd = 0;
 4001db8:	e0bffe17 	ldw	r2,-8(fp)
 4001dbc:	10000015 	stw	zero,0(r2)

    sCtrl->cSpd_posN = PID_Spd_posN; /* choice control method */
 4001dc0:	e0fffe17 	ldw	r3,-8(fp)
 4001dc4:	00800044 	movi	r2,1
 4001dc8:	18800a05 	stb	r2,40(r3)


}
 4001dcc:	e037883a 	mov	sp,fp
 4001dd0:	df000017 	ldw	fp,0(sp)
 4001dd4:	dec00104 	addi	sp,sp,4
 4001dd8:	f800283a 	ret

04001ddc <PIDctrl>:

void PIDctrl(sPIDCtrl_s *sCtrl, float fSensorValue){
 4001ddc:	defffa04 	addi	sp,sp,-24
 4001de0:	dfc00515 	stw	ra,20(sp)
 4001de4:	df000415 	stw	fp,16(sp)
 4001de8:	dc000315 	stw	r16,12(sp)
 4001dec:	df000304 	addi	fp,sp,12
 4001df0:	e13ffe15 	stw	r4,-8(fp)
 4001df4:	e17fff15 	stw	r5,-4(fp)
    int     iTmpCmd;

//    printf("refcmd=%f\n", sCtrl->fRefCom);

    { /* calculate Error(t), boundary: -1 ~ 1*/
        sCtrl->fErrT = sCtrl->fRefCom - fSensorValue;
 4001df8:	e0bffe17 	ldw	r2,-8(fp)
 4001dfc:	10c00117 	ldw	r3,4(r2)
 4001e00:	e0bfff17 	ldw	r2,-4(fp)
 4001e04:	1887ffb2 	custom	254,r3,r3,r2
 4001e08:	e0bffe17 	ldw	r2,-8(fp)
 4001e0c:	10c00515 	stw	r3,20(r2)
        if(sCtrl->fErrT > 1.0) sCtrl->fErrT = 1.0;
 4001e10:	e0bffe17 	ldw	r2,-8(fp)
 4001e14:	10800517 	ldw	r2,20(r2)
 4001e18:	1009883a 	mov	r4,r2
 4001e1c:	014fe034 	movhi	r5,16256
 4001e20:	40032c00 	call	40032c0 <__gtsf2>
 4001e24:	10800048 	cmpgei	r2,r2,1
 4001e28:	1000011e 	bne	r2,zero,4001e30 <PIDctrl+0x54>
 4001e2c:	00000406 	br	4001e40 <PIDctrl+0x64>
 4001e30:	e0fffe17 	ldw	r3,-8(fp)
 4001e34:	008fe034 	movhi	r2,16256
 4001e38:	18800515 	stw	r2,20(r3)
 4001e3c:	00000b06 	br	4001e6c <PIDctrl+0x90>
        else if (sCtrl->fErrT < -1.0) sCtrl->fErrT = -1.0;
 4001e40:	e0bffe17 	ldw	r2,-8(fp)
 4001e44:	10800517 	ldw	r2,20(r2)
 4001e48:	1009883a 	mov	r4,r2
 4001e4c:	016fe034 	movhi	r5,49024
 4001e50:	40033b00 	call	40033b0 <__ltsf2>
 4001e54:	1004803a 	cmplt	r2,r2,zero
 4001e58:	1000011e 	bne	r2,zero,4001e60 <PIDctrl+0x84>
 4001e5c:	00000306 	br	4001e6c <PIDctrl+0x90>
 4001e60:	e0fffe17 	ldw	r3,-8(fp)
 4001e64:	00afe034 	movhi	r2,49024
 4001e68:	18800515 	stw	r2,20(r3)
    }
    { /* calculate DeltaErr(t) boundary: -1 ~ 1*/
        sCtrl->fDeltaErr = sCtrl->fErrT - sCtrl->fErrLastTime;
 4001e6c:	e0bffe17 	ldw	r2,-8(fp)
 4001e70:	10c00517 	ldw	r3,20(r2)
 4001e74:	e0bffe17 	ldw	r2,-8(fp)
 4001e78:	10800617 	ldw	r2,24(r2)
 4001e7c:	1887ffb2 	custom	254,r3,r3,r2
 4001e80:	e0bffe17 	ldw	r2,-8(fp)
 4001e84:	10c00715 	stw	r3,28(r2)
        if(sCtrl->fDeltaErr > 1.0) sCtrl->fDeltaErr = 1.0;
 4001e88:	e0bffe17 	ldw	r2,-8(fp)
 4001e8c:	10800717 	ldw	r2,28(r2)
 4001e90:	1009883a 	mov	r4,r2
 4001e94:	014fe034 	movhi	r5,16256
 4001e98:	40032c00 	call	40032c0 <__gtsf2>
 4001e9c:	10800048 	cmpgei	r2,r2,1
 4001ea0:	1000011e 	bne	r2,zero,4001ea8 <PIDctrl+0xcc>
 4001ea4:	00000406 	br	4001eb8 <PIDctrl+0xdc>
 4001ea8:	e0fffe17 	ldw	r3,-8(fp)
 4001eac:	008fe034 	movhi	r2,16256
 4001eb0:	18800715 	stw	r2,28(r3)
 4001eb4:	00000b06 	br	4001ee4 <PIDctrl+0x108>
        else if (sCtrl->fDeltaErr < -1.0) sCtrl->fDeltaErr = -1.0;
 4001eb8:	e0bffe17 	ldw	r2,-8(fp)
 4001ebc:	10800717 	ldw	r2,28(r2)
 4001ec0:	1009883a 	mov	r4,r2
 4001ec4:	016fe034 	movhi	r5,49024
 4001ec8:	40033b00 	call	40033b0 <__ltsf2>
 4001ecc:	1004803a 	cmplt	r2,r2,zero
 4001ed0:	1000011e 	bne	r2,zero,4001ed8 <PIDctrl+0xfc>
 4001ed4:	00000306 	br	4001ee4 <PIDctrl+0x108>
 4001ed8:	e0fffe17 	ldw	r3,-8(fp)
 4001edc:	00afe034 	movhi	r2,49024
 4001ee0:	18800715 	stw	r2,28(r3)
    }
    { /* calculate Integral error boundary: -1 ~ 1*/
        sCtrl->fIntegralErr = sCtrl->fIntegralErr + sCtrl->fErrT;
 4001ee4:	e0bffe17 	ldw	r2,-8(fp)
 4001ee8:	10c00817 	ldw	r3,32(r2)
 4001eec:	e0bffe17 	ldw	r2,-8(fp)
 4001ef0:	10800517 	ldw	r2,20(r2)
 4001ef4:	1887ff72 	custom	253,r3,r3,r2
 4001ef8:	e0bffe17 	ldw	r2,-8(fp)
 4001efc:	10c00815 	stw	r3,32(r2)
        if(sCtrl->fIntegralErr > 1.0) sCtrl->fIntegralErr = 1.0;
 4001f00:	e0bffe17 	ldw	r2,-8(fp)
 4001f04:	10800817 	ldw	r2,32(r2)
 4001f08:	1009883a 	mov	r4,r2
 4001f0c:	014fe034 	movhi	r5,16256
 4001f10:	40032c00 	call	40032c0 <__gtsf2>
 4001f14:	10800048 	cmpgei	r2,r2,1
 4001f18:	1000011e 	bne	r2,zero,4001f20 <PIDctrl+0x144>
 4001f1c:	00000406 	br	4001f30 <PIDctrl+0x154>
 4001f20:	e0fffe17 	ldw	r3,-8(fp)
 4001f24:	008fe034 	movhi	r2,16256
 4001f28:	18800815 	stw	r2,32(r3)
 4001f2c:	00000b06 	br	4001f5c <PIDctrl+0x180>
        else if (sCtrl->fIntegralErr < -1.0) sCtrl->fIntegralErr = -1.0;
 4001f30:	e0bffe17 	ldw	r2,-8(fp)
 4001f34:	10800817 	ldw	r2,32(r2)
 4001f38:	1009883a 	mov	r4,r2
 4001f3c:	016fe034 	movhi	r5,49024
 4001f40:	40033b00 	call	40033b0 <__ltsf2>
 4001f44:	1004803a 	cmplt	r2,r2,zero
 4001f48:	1000011e 	bne	r2,zero,4001f50 <PIDctrl+0x174>
 4001f4c:	00000306 	br	4001f5c <PIDctrl+0x180>
 4001f50:	e0fffe17 	ldw	r3,-8(fp)
 4001f54:	00afe034 	movhi	r2,49024
 4001f58:	18800815 	stw	r2,32(r3)
    }
    if(sCtrl->cSpd_posN){ /* speed control */
 4001f5c:	e0bffe17 	ldw	r2,-8(fp)
 4001f60:	10800a03 	ldbu	r2,40(r2)
 4001f64:	10803fcc 	andi	r2,r2,255
 4001f68:	1080201c 	xori	r2,r2,128
 4001f6c:	10bfe004 	addi	r2,r2,-128
 4001f70:	1005003a 	cmpeq	r2,r2,zero
 4001f74:	10002e1e 	bne	r2,zero,4002030 <PIDctrl+0x254>
        sCtrl->fDeltaCmd = sCtrl->fKp*sCtrl->fErrT +
 4001f78:	e0bffe17 	ldw	r2,-8(fp)
 4001f7c:	10c00217 	ldw	r3,8(r2)
 4001f80:	e0bffe17 	ldw	r2,-8(fp)
 4001f84:	10800517 	ldw	r2,20(r2)
 4001f88:	1889ff32 	custom	252,r4,r3,r2
 4001f8c:	e0bffe17 	ldw	r2,-8(fp)
 4001f90:	10c00317 	ldw	r3,12(r2)
 4001f94:	e0bffe17 	ldw	r2,-8(fp)
 4001f98:	10800817 	ldw	r2,32(r2)
 4001f9c:	1885ff32 	custom	252,r2,r3,r2
 4001fa0:	2089ff72 	custom	253,r4,r4,r2
 4001fa4:	e0bffe17 	ldw	r2,-8(fp)
 4001fa8:	10c00417 	ldw	r3,16(r2)
 4001fac:	e0bffe17 	ldw	r2,-8(fp)
 4001fb0:	10800717 	ldw	r2,28(r2)
 4001fb4:	1885ff32 	custom	252,r2,r3,r2
 4001fb8:	2087ff72 	custom	253,r3,r4,r2
 4001fbc:	e0bffe17 	ldw	r2,-8(fp)
 4001fc0:	10c00b15 	stw	r3,44(r2)
                    sCtrl->fKi*(sCtrl->fIntegralErr) +
                    sCtrl->fKd*sCtrl->fDeltaErr;
        iTmpCmd = (int) (sCtrl->iCtrlOutCmd + (int) (sCtrl->fDeltaCmd * PID_OutX));
 4001fc4:	e0bffe17 	ldw	r2,-8(fp)
 4001fc8:	14000c17 	ldw	r16,48(r2)
 4001fcc:	e0bffe17 	ldw	r2,-8(fp)
 4001fd0:	10c00b17 	ldw	r3,44(r2)
 4001fd4:	00904834 	movhi	r2,16672
 4001fd8:	1885ff32 	custom	252,r2,r3,r2
 4001fdc:	1009883a 	mov	r4,r2
 4001fe0:	40034280 	call	4003428 <__fixsfsi>
 4001fe4:	8085883a 	add	r2,r16,r2
 4001fe8:	e0bffd15 	stw	r2,-12(fp)
        if( iTmpCmd >= PwmMaxDuty){
 4001fec:	e0bffd17 	ldw	r2,-12(fp)
 4001ff0:	10801910 	cmplti	r2,r2,100
 4001ff4:	1000041e 	bne	r2,zero,4002008 <PIDctrl+0x22c>
            sCtrl->iCtrlOutCmd = PwmMaxDuty;
 4001ff8:	e0fffe17 	ldw	r3,-8(fp)
 4001ffc:	00801904 	movi	r2,100
 4002000:	18800c15 	stw	r2,48(r3)
 4002004:	00002006 	br	4002088 <PIDctrl+0x2ac>
        }else if(iTmpCmd <= PwmMinDuty){
 4002008:	e0bffd17 	ldw	r2,-12(fp)
 400200c:	10800048 	cmpgei	r2,r2,1
 4002010:	1000031e 	bne	r2,zero,4002020 <PIDctrl+0x244>
            sCtrl->iCtrlOutCmd = PwmMinDuty;
 4002014:	e0bffe17 	ldw	r2,-8(fp)
 4002018:	10000c15 	stw	zero,48(r2)
 400201c:	00001a06 	br	4002088 <PIDctrl+0x2ac>
        }else {
            sCtrl->iCtrlOutCmd = iTmpCmd;
 4002020:	e0fffe17 	ldw	r3,-8(fp)
 4002024:	e0bffd17 	ldw	r2,-12(fp)
 4002028:	18800c15 	stw	r2,48(r3)
 400202c:	00001606 	br	4002088 <PIDctrl+0x2ac>
        }
    } else { /* position control */
        sCtrl->iCtrlOutCmd = sCtrl->fKp*sCtrl->fErrT +
 4002030:	e0bffe17 	ldw	r2,-8(fp)
 4002034:	10c00217 	ldw	r3,8(r2)
 4002038:	e0bffe17 	ldw	r2,-8(fp)
 400203c:	10800517 	ldw	r2,20(r2)
 4002040:	1889ff32 	custom	252,r4,r3,r2
 4002044:	e0bffe17 	ldw	r2,-8(fp)
 4002048:	10c00317 	ldw	r3,12(r2)
 400204c:	e0bffe17 	ldw	r2,-8(fp)
 4002050:	10800817 	ldw	r2,32(r2)
 4002054:	1885ff32 	custom	252,r2,r3,r2
 4002058:	2089ff72 	custom	253,r4,r4,r2
 400205c:	e0bffe17 	ldw	r2,-8(fp)
 4002060:	10c00417 	ldw	r3,16(r2)
 4002064:	e0bffe17 	ldw	r2,-8(fp)
 4002068:	10800717 	ldw	r2,28(r2)
 400206c:	1885ff32 	custom	252,r2,r3,r2
 4002070:	2085ff72 	custom	253,r2,r4,r2
 4002074:	1009883a 	mov	r4,r2
 4002078:	40034280 	call	4003428 <__fixsfsi>
 400207c:	1007883a 	mov	r3,r2
 4002080:	e0bffe17 	ldw	r2,-8(fp)
 4002084:	10c00c15 	stw	r3,48(r2)
                             sCtrl->fKi*(sCtrl->fIntegralErr) +
                             sCtrl->fKd*sCtrl->fDeltaErr;
    }
    /* update variable */
    sCtrl->fErrLastTime = sCtrl->fErrT; /* release Error(t-1)*/
 4002088:	e0bffe17 	ldw	r2,-8(fp)
 400208c:	10c00517 	ldw	r3,20(r2)
 4002090:	e0bffe17 	ldw	r2,-8(fp)
 4002094:	10c00615 	stw	r3,24(r2)
}
 4002098:	e037883a 	mov	sp,fp
 400209c:	dfc00217 	ldw	ra,8(sp)
 40020a0:	df000117 	ldw	fp,4(sp)
 40020a4:	dc000017 	ldw	r16,0(sp)
 40020a8:	dec00304 	addi	sp,sp,12
 40020ac:	f800283a 	ret

040020b0 <InitMotorValue>:
void Read4XMotorSpeed(sMotor_s *sMotor);  /* read motor speed */
void Read4XMotorSensor(sMotor_s *sMotor); /* read motor voltage and current */
void MotorTestFun(sMotor_s *sMotor );     /* test motor fundamental function. */
void MotorDriverInit(sMotor_s *sMotor);   /* motor driver init*/

void InitMotorValue(sMotor_s *sMotor){
 40020b0:	defffe04 	addi	sp,sp,-8
 40020b4:	df000115 	stw	fp,4(sp)
 40020b8:	df000104 	addi	fp,sp,4
 40020bc:	e13fff15 	stw	r4,-4(fp)
    sMotor->sMotorAp.iMotorFBEncoder = 0;
 40020c0:	e0bfff17 	ldw	r2,-4(fp)
 40020c4:	10000715 	stw	zero,28(r2)
    sMotor->sMotorAp.ucMotorPWM = 0;
 40020c8:	e0bfff17 	ldw	r2,-4(fp)
 40020cc:	10000505 	stb	zero,20(r2)
    sMotor->sMotorAp.uiCurrent = 0;
 40020d0:	e0bfff17 	ldw	r2,-4(fp)
 40020d4:	10000915 	stw	zero,36(r2)
    sMotor->sMotorAp.uiMotorFBDir = 0;
 40020d8:	e0bfff17 	ldw	r2,-4(fp)
 40020dc:	10000415 	stw	zero,16(r2)
    sMotor->sMotorAp.uiMotorFBSpeed = 0;
 40020e0:	e0bfff17 	ldw	r2,-4(fp)
 40020e4:	10000615 	stw	zero,24(r2)
    sMotor->sMotorAp.uiVoltage = 0;
 40020e8:	e0bfff17 	ldw	r2,-4(fp)
 40020ec:	10000815 	stw	zero,32(r2)

    sMotor->sMotorBp.iMotorFBEncoder = 0;
 40020f0:	e0bfff17 	ldw	r2,-4(fp)
 40020f4:	10000f15 	stw	zero,60(r2)
    sMotor->sMotorBp.ucMotorPWM = 0;
 40020f8:	e0bfff17 	ldw	r2,-4(fp)
 40020fc:	10000d05 	stb	zero,52(r2)
    sMotor->sMotorBp.uiCurrent = 0;
 4002100:	e0bfff17 	ldw	r2,-4(fp)
 4002104:	10001115 	stw	zero,68(r2)
    sMotor->sMotorBp.uiMotorFBDir = 0;
 4002108:	e0bfff17 	ldw	r2,-4(fp)
 400210c:	10000c15 	stw	zero,48(r2)
    sMotor->sMotorBp.uiMotorFBSpeed = 0;
 4002110:	e0bfff17 	ldw	r2,-4(fp)
 4002114:	10000e15 	stw	zero,56(r2)
    sMotor->sMotorBp.uiVoltage = 0;
 4002118:	e0bfff17 	ldw	r2,-4(fp)
 400211c:	10001015 	stw	zero,64(r2)

    sMotor->sMotorCp.iMotorFBEncoder = 0;
 4002120:	e0bfff17 	ldw	r2,-4(fp)
 4002124:	10001715 	stw	zero,92(r2)
    sMotor->sMotorCp.ucMotorPWM = 0;
 4002128:	e0bfff17 	ldw	r2,-4(fp)
 400212c:	10001505 	stb	zero,84(r2)
    sMotor->sMotorCp.uiCurrent = 0;
 4002130:	e0bfff17 	ldw	r2,-4(fp)
 4002134:	10001915 	stw	zero,100(r2)
    sMotor->sMotorCp.uiMotorFBDir = 0;
 4002138:	e0bfff17 	ldw	r2,-4(fp)
 400213c:	10001415 	stw	zero,80(r2)
    sMotor->sMotorCp.uiMotorFBSpeed = 0;
 4002140:	e0bfff17 	ldw	r2,-4(fp)
 4002144:	10001615 	stw	zero,88(r2)
    sMotor->sMotorCp.uiVoltage = 0;
 4002148:	e0bfff17 	ldw	r2,-4(fp)
 400214c:	10001815 	stw	zero,96(r2)

    sMotor->sMotorDp.iMotorFBEncoder = 0;
 4002150:	e0bfff17 	ldw	r2,-4(fp)
 4002154:	10001f15 	stw	zero,124(r2)
    sMotor->sMotorDp.ucMotorPWM = 0;
 4002158:	e0bfff17 	ldw	r2,-4(fp)
 400215c:	10001d05 	stb	zero,116(r2)
    sMotor->sMotorDp.uiCurrent = 0;
 4002160:	e0bfff17 	ldw	r2,-4(fp)
 4002164:	10002115 	stw	zero,132(r2)
    sMotor->sMotorDp.uiMotorFBDir = 0;
 4002168:	e0bfff17 	ldw	r2,-4(fp)
 400216c:	10001c15 	stw	zero,112(r2)
    sMotor->sMotorDp.uiMotorFBSpeed = 0;
 4002170:	e0bfff17 	ldw	r2,-4(fp)
 4002174:	10001e15 	stw	zero,120(r2)
    sMotor->sMotorDp.uiVoltage = 0;
 4002178:	e0bfff17 	ldw	r2,-4(fp)
 400217c:	10002015 	stw	zero,128(r2)
}
 4002180:	e037883a 	mov	sp,fp
 4002184:	df000017 	ldw	fp,0(sp)
 4002188:	dec00104 	addi	sp,sp,4
 400218c:	f800283a 	ret

04002190 <MotorDriverInit>:
void MotorDriverInit(sMotor_s *sMotor){
 4002190:	defffc04 	addi	sp,sp,-16
 4002194:	dfc00315 	stw	ra,12(sp)
 4002198:	df000215 	stw	fp,8(sp)
 400219c:	df000204 	addi	fp,sp,8
 40021a0:	e13fff15 	stw	r4,-4(fp)
    Send4XwheelPwm(sMotor, 0, 0, 0, 0);  /* Stop 4 wheel PWM */
 40021a4:	d8000015 	stw	zero,0(sp)
 40021a8:	e13fff17 	ldw	r4,-4(fp)
 40021ac:	000b883a 	mov	r5,zero
 40021b0:	000d883a 	mov	r6,zero
 40021b4:	000f883a 	mov	r7,zero
 40021b8:	40022cc0 	call	40022cc <Send4XwheelPwm>
    Send4XwheelDir(sMotor, 0, 0, 0, 0);  /* send 4 wheel direction */
 40021bc:	d8000015 	stw	zero,0(sp)
 40021c0:	e13fff17 	ldw	r4,-4(fp)
 40021c4:	000b883a 	mov	r5,zero
 40021c8:	000d883a 	mov	r6,zero
 40021cc:	000f883a 	mov	r7,zero
 40021d0:	40023880 	call	4002388 <Send4XwheelDir>
    usleep(1000);
 40021d4:	0100fa04 	movi	r4,1000
 40021d8:	400db3c0 	call	400db3c <usleep>
    Send2XMotorDriverEnable(sMotor, 1, 1);    /* enable motor driver */
 40021dc:	e13fff17 	ldw	r4,-4(fp)
 40021e0:	01400044 	movi	r5,1
 40021e4:	01800044 	movi	r6,1
 40021e8:	40024000 	call	4002400 <Send2XMotorDriverEnable>
    Send4XClrMotorEncoder(sMotor, 1, 1, 1, 1); /* send clear feedback counter */
 40021ec:	00800044 	movi	r2,1
 40021f0:	d8800015 	stw	r2,0(sp)
 40021f4:	e13fff17 	ldw	r4,-4(fp)
 40021f8:	01400044 	movi	r5,1
 40021fc:	01800044 	movi	r6,1
 4002200:	01c00044 	movi	r7,1
 4002204:	40024a40 	call	40024a4 <Send4XClrMotorEncoder>
    IOWR(SYSREG_BASE, 3, 0);    /* clear 03 register (MotorControl)*/
 4002208:	00860304 	movi	r2,6156
 400220c:	10000035 	stwio	zero,0(r2)
    InitMotorValue(sMotor);
 4002210:	e13fff17 	ldw	r4,-4(fp)
 4002214:	40020b00 	call	40020b0 <InitMotorValue>
}
 4002218:	e037883a 	mov	sp,fp
 400221c:	dfc00117 	ldw	ra,4(sp)
 4002220:	df000017 	ldw	fp,0(sp)
 4002224:	dec00204 	addi	sp,sp,8
 4002228:	f800283a 	ret

0400222c <MotorTestFun>:

/* 馬達測試程式  */
void MotorTestFun(sMotor_s *sMotor ){
 400222c:	defffc04 	addi	sp,sp,-16
 4002230:	dfc00315 	stw	ra,12(sp)
 4002234:	df000215 	stw	fp,8(sp)
 4002238:	df000204 	addi	fp,sp,8
 400223c:	e13fff15 	stw	r4,-4(fp)

    printf("This is motor test function !\n");
 4002240:	01010074 	movhi	r4,1025
 4002244:	2106d104 	addi	r4,r4,6980
 4002248:	4003ed00 	call	4003ed0 <puts>

    Send4XwheelDir(sMotor, 0,1,1,1);    /* send motor direction, 0:CW, 1:CCW  */
 400224c:	00800044 	movi	r2,1
 4002250:	d8800015 	stw	r2,0(sp)
 4002254:	e13fff17 	ldw	r4,-4(fp)
 4002258:	000b883a 	mov	r5,zero
 400225c:	01800044 	movi	r6,1
 4002260:	01c00044 	movi	r7,1
 4002264:	40023880 	call	4002388 <Send4XwheelDir>
    Send4XwheelPwm(sMotor, 100,0,0,0);  /* send motor PWM duty cycle, 0~100 */
 4002268:	d8000015 	stw	zero,0(sp)
 400226c:	e13fff17 	ldw	r4,-4(fp)
 4002270:	01401904 	movi	r5,100
 4002274:	000d883a 	mov	r6,zero
 4002278:	000f883a 	mov	r7,zero
 400227c:	40022cc0 	call	40022cc <Send4XwheelPwm>
    Send2XMotorDriverEnable(sMotor,1, 1);  /* open motor driver, 1: enable, 0: disable */
 4002280:	e13fff17 	ldw	r4,-4(fp)
 4002284:	01400044 	movi	r5,1
 4002288:	01800044 	movi	r6,1
 400228c:	40024000 	call	4002400 <Send2XMotorDriverEnable>
    usleep(10000);  /* delay time */
 4002290:	0109c404 	movi	r4,10000
 4002294:	400db3c0 	call	400db3c <usleep>
    Read4XMotorDir( sMotor);    /* read motor feed back direction */
 4002298:	e13fff17 	ldw	r4,-4(fp)
 400229c:	40026180 	call	4002618 <Read4XMotorDir>
    Read4XMotorEncoder( sMotor);/* read motor feedback encoder */
 40022a0:	e13fff17 	ldw	r4,-4(fp)
 40022a4:	40026900 	call	4002690 <Read4XMotorEncoder>
    Read4XMotorSpeed(sMotor);  /* read motor speed */
 40022a8:	e13fff17 	ldw	r4,-4(fp)
 40022ac:	40026f00 	call	40026f0 <Read4XMotorSpeed>
    Read4XMotorSensor(sMotor); /* read motor voltage and current */
 40022b0:	e13fff17 	ldw	r4,-4(fp)
 40022b4:	40028900 	call	4002890 <Read4XMotorSensor>
//    Read4XMotorEncoder( sMotor);/* read motor feedback encoder */
//    Read4XMotorSpeed( sMotor);  /* read motor speed */
//    Read4XMotorSensor( sMotor); /* read motor voltage and current */
//    printf("===============================\n");

}
 40022b8:	e037883a 	mov	sp,fp
 40022bc:	dfc00117 	ldw	ra,4(sp)
 40022c0:	df000017 	ldw	fp,0(sp)
 40022c4:	dec00204 	addi	sp,sp,8
 40022c8:	f800283a 	ret

040022cc <Send4XwheelPwm>:

void Send4XwheelPwm(sMotor_s *sMotor, unsigned int PWM1, unsigned int PWM2,
                   unsigned int PWM3, unsigned int PWM4){
 40022cc:	defffa04 	addi	sp,sp,-24
 40022d0:	df000515 	stw	fp,20(sp)
 40022d4:	df000504 	addi	fp,sp,20
 40022d8:	e13ffc15 	stw	r4,-16(fp)
 40022dc:	e17ffd15 	stw	r5,-12(fp)
 40022e0:	e1bffe15 	stw	r6,-8(fp)
 40022e4:	e1ffff15 	stw	r7,-4(fp)
	unsigned int PMWDuty;

	PMWDuty = TRIGGER | PWM1| (PWM2<<7) | (PWM3<<14) | (PWM4<<21);
 40022e8:	e0bffe17 	ldw	r2,-8(fp)
 40022ec:	100691fa 	slli	r3,r2,7
 40022f0:	e0bffd17 	ldw	r2,-12(fp)
 40022f4:	1886b03a 	or	r3,r3,r2
 40022f8:	e0bfff17 	ldw	r2,-4(fp)
 40022fc:	100493ba 	slli	r2,r2,14
 4002300:	1886b03a 	or	r3,r3,r2
 4002304:	e0800117 	ldw	r2,4(fp)
 4002308:	1004957a 	slli	r2,r2,21
 400230c:	1884b03a 	or	r2,r3,r2
 4002310:	10a00034 	orhi	r2,r2,32768
 4002314:	e0bffb15 	stw	r2,-20(fp)
//	printf("0x%x\n", PWM1);
	IOWR(SYSREG_BASE, 0, PMWDuty); /* write PWM duty */
 4002318:	e0fffb17 	ldw	r3,-20(fp)
 400231c:	00860004 	movi	r2,6144
 4002320:	10c00035 	stwio	r3,0(r2)
	IOWR(SYSREG_BASE, 0, 0);       /* set trigger to 0 */
 4002324:	00860004 	movi	r2,6144
 4002328:	10000035 	stwio	zero,0(r2)
	sMotor->uiR00MotorPWMduty = PMWDuty;
 400232c:	e0fffc17 	ldw	r3,-16(fp)
 4002330:	e0bffb17 	ldw	r2,-20(fp)
 4002334:	18800015 	stw	r2,0(r3)
	/* record pWM*/
	sMotor->sMotorAp.ucMotorPWM = PWM1;
 4002338:	e0bffd17 	ldw	r2,-12(fp)
 400233c:	1007883a 	mov	r3,r2
 4002340:	e0bffc17 	ldw	r2,-16(fp)
 4002344:	10c00505 	stb	r3,20(r2)
    sMotor->sMotorBp.ucMotorPWM = PWM2;
 4002348:	e0bffe17 	ldw	r2,-8(fp)
 400234c:	1007883a 	mov	r3,r2
 4002350:	e0bffc17 	ldw	r2,-16(fp)
 4002354:	10c00d05 	stb	r3,52(r2)
    sMotor->sMotorCp.ucMotorPWM = PWM3;
 4002358:	e0bfff17 	ldw	r2,-4(fp)
 400235c:	1007883a 	mov	r3,r2
 4002360:	e0bffc17 	ldw	r2,-16(fp)
 4002364:	10c01505 	stb	r3,84(r2)
    sMotor->sMotorDp.ucMotorPWM = PWM4;
 4002368:	e0800117 	ldw	r2,4(fp)
 400236c:	1007883a 	mov	r3,r2
 4002370:	e0bffc17 	ldw	r2,-16(fp)
 4002374:	10c01d05 	stb	r3,116(r2)
                                 sMotor->sMotorAp.ucMotorPWM, \
                                 sMotor->sMotorBp.ucMotorPWM, \
                                 sMotor->sMotorCp.ucMotorPWM, \
                                 sMotor->sMotorDp.ucMotorPWM);
#endif
}
 4002378:	e037883a 	mov	sp,fp
 400237c:	df000017 	ldw	fp,0(sp)
 4002380:	dec00104 	addi	sp,sp,4
 4002384:	f800283a 	ret

04002388 <Send4XwheelDir>:

void Send4XwheelDir(sMotor_s *sMotor, unsigned int uiWheelDir1, unsigned int uiWheelDir2,
                   unsigned int uiWheelDir3, unsigned int uiWheelDir4){
 4002388:	defffa04 	addi	sp,sp,-24
 400238c:	df000515 	stw	fp,20(sp)
 4002390:	df000504 	addi	fp,sp,20
 4002394:	e13ffc15 	stw	r4,-16(fp)
 4002398:	e17ffd15 	stw	r5,-12(fp)
 400239c:	e1bffe15 	stw	r6,-8(fp)
 40023a0:	e1ffff15 	stw	r7,-4(fp)
	unsigned int uiRegData;

	uiRegData = uiWheelDir1| (uiWheelDir2<<2) | (uiWheelDir3<<4) | (uiWheelDir4<<6);
 40023a4:	e0bffe17 	ldw	r2,-8(fp)
 40023a8:	1085883a 	add	r2,r2,r2
 40023ac:	1085883a 	add	r2,r2,r2
 40023b0:	1007883a 	mov	r3,r2
 40023b4:	e0bffd17 	ldw	r2,-12(fp)
 40023b8:	1886b03a 	or	r3,r3,r2
 40023bc:	e0bfff17 	ldw	r2,-4(fp)
 40023c0:	1004913a 	slli	r2,r2,4
 40023c4:	1886b03a 	or	r3,r3,r2
 40023c8:	e0800117 	ldw	r2,4(fp)
 40023cc:	100491ba 	slli	r2,r2,6
 40023d0:	1884b03a 	or	r2,r3,r2
 40023d4:	e0bffb15 	stw	r2,-20(fp)
	IOWR(SYSREG_BASE, 1, uiRegData); /* write motor direction register */
 40023d8:	e0fffb17 	ldw	r3,-20(fp)
 40023dc:	00860104 	movi	r2,6148
 40023e0:	10c00035 	stwio	r3,0(r2)
	sMotor->uiR01MotorDriverDirection = uiRegData;
 40023e4:	e0fffc17 	ldw	r3,-16(fp)
 40023e8:	e0bffb17 	ldw	r2,-20(fp)
 40023ec:	18800115 	stw	r2,4(r3)
        printf("D(CW). \n");
    }else {
        printf("D(CCW). \n");
    }
#endif
}
 40023f0:	e037883a 	mov	sp,fp
 40023f4:	df000017 	ldw	fp,0(sp)
 40023f8:	dec00104 	addi	sp,sp,4
 40023fc:	f800283a 	ret

04002400 <Send2XMotorDriverEnable>:

void Send2XMotorDriverEnable(sMotor_s *sMotor, unsigned int uiDriver1, unsigned int uiDriver2){
 4002400:	defffb04 	addi	sp,sp,-20
 4002404:	df000415 	stw	fp,16(sp)
 4002408:	df000404 	addi	fp,sp,16
 400240c:	e13ffd15 	stw	r4,-12(fp)
 4002410:	e17ffe15 	stw	r5,-8(fp)
 4002414:	e1bfff15 	stw	r6,-4(fp)
    unsigned int uiRegData;

    uiRegData = IORD(SYSREG_BASE, 3); /* read motor control register */
 4002418:	00860304 	movi	r2,6156
 400241c:	10800037 	ldwio	r2,0(r2)
 4002420:	e0bffc15 	stw	r2,-16(fp)
    if(uiDriver1 > 0){
 4002424:	e0bffe17 	ldw	r2,-8(fp)
 4002428:	1005003a 	cmpeq	r2,r2,zero
 400242c:	1000041e 	bne	r2,zero,4002440 <Send2XMotorDriverEnable+0x40>
        uiRegData = uiRegData | 0x00000100; /* set driver 1 flag */
 4002430:	e0bffc17 	ldw	r2,-16(fp)
 4002434:	10804014 	ori	r2,r2,256
 4002438:	e0bffc15 	stw	r2,-16(fp)
 400243c:	00000406 	br	4002450 <Send2XMotorDriverEnable+0x50>
    }else {
        uiRegData = uiRegData & 0xfffffeff; /* clear flag */
 4002440:	e0bffc17 	ldw	r2,-16(fp)
 4002444:	00ffbfc4 	movi	r3,-257
 4002448:	10c4703a 	and	r2,r2,r3
 400244c:	e0bffc15 	stw	r2,-16(fp)
    }
    if(uiDriver2 > 0){
 4002450:	e0bfff17 	ldw	r2,-4(fp)
 4002454:	1005003a 	cmpeq	r2,r2,zero
 4002458:	1000041e 	bne	r2,zero,400246c <Send2XMotorDriverEnable+0x6c>
        uiRegData = uiRegData | 0x00000200; /* set driver 2 flag */
 400245c:	e0bffc17 	ldw	r2,-16(fp)
 4002460:	10808014 	ori	r2,r2,512
 4002464:	e0bffc15 	stw	r2,-16(fp)
 4002468:	00000406 	br	400247c <Send2XMotorDriverEnable+0x7c>
    }else {
        uiRegData = uiRegData & 0xfffffdff; /* clear driver 2 flag */
 400246c:	e0bffc17 	ldw	r2,-16(fp)
 4002470:	00ff7fc4 	movi	r3,-513
 4002474:	10c4703a 	and	r2,r2,r3
 4002478:	e0bffc15 	stw	r2,-16(fp)
    }

//  printf("0x%x\n", uiRegData);
    IOWR(SYSREG_BASE, 3, uiRegData); /* write PWM duty */
 400247c:	e0fffc17 	ldw	r3,-16(fp)
 4002480:	00860304 	movi	r2,6156
 4002484:	10c00035 	stwio	r3,0(r2)
    sMotor->uiR03MotorControl = uiRegData; /* store R03 */
 4002488:	e0fffd17 	ldw	r3,-12(fp)
 400248c:	e0bffc17 	ldw	r2,-16(fp)
 4002490:	18800315 	stw	r2,12(r3)
        }else {
            printf(" Disable(#1, #2).\n");
        }
    }
#endif
}
 4002494:	e037883a 	mov	sp,fp
 4002498:	df000017 	ldw	fp,0(sp)
 400249c:	dec00104 	addi	sp,sp,4
 40024a0:	f800283a 	ret

040024a4 <Send4XClrMotorEncoder>:

void Send4XClrMotorEncoder(sMotor_s *sMotor, unsigned int uiME1, unsigned int uiME2,
                         unsigned int uiME3, unsigned int uiME4){
 40024a4:	defff904 	addi	sp,sp,-28
 40024a8:	dfc00615 	stw	ra,24(sp)
 40024ac:	df000515 	stw	fp,20(sp)
 40024b0:	df000504 	addi	fp,sp,20
 40024b4:	e13ffc15 	stw	r4,-16(fp)
 40024b8:	e17ffd15 	stw	r5,-12(fp)
 40024bc:	e1bffe15 	stw	r6,-8(fp)
 40024c0:	e1ffff15 	stw	r7,-4(fp)
        [3]: clear Top motor feedback Accumulate counter
        [8]: 1: driver 1 enable, 0: driver 1 disable
        [9]: 1: driver 2 enable, 0: driver 2 disable
*/

    uiRegData = IORD(SYSREG_BASE, 3); /* read motor control register */
 40024c4:	00860304 	movi	r2,6156
 40024c8:	10800037 	ldwio	r2,0(r2)
 40024cc:	e0bffb15 	stw	r2,-20(fp)
    if(uiME1 > 0){
 40024d0:	e0bffd17 	ldw	r2,-12(fp)
 40024d4:	1005003a 	cmpeq	r2,r2,zero
 40024d8:	1000041e 	bne	r2,zero,40024ec <Send4XClrMotorEncoder+0x48>
        uiRegData = uiRegData | 0x01;       /* send clear motor A encoder counter command */
 40024dc:	e0bffb17 	ldw	r2,-20(fp)
 40024e0:	10800054 	ori	r2,r2,1
 40024e4:	e0bffb15 	stw	r2,-20(fp)
 40024e8:	00000406 	br	40024fc <Send4XClrMotorEncoder+0x58>
    }else {
        uiRegData = uiRegData & 0xFFFFFFFE; /* close clear motor A encoder counter command */
 40024ec:	e0bffb17 	ldw	r2,-20(fp)
 40024f0:	00ffff84 	movi	r3,-2
 40024f4:	10c4703a 	and	r2,r2,r3
 40024f8:	e0bffb15 	stw	r2,-20(fp)
    }
    if(uiME2 > 0){
 40024fc:	e0bffe17 	ldw	r2,-8(fp)
 4002500:	1005003a 	cmpeq	r2,r2,zero
 4002504:	1000041e 	bne	r2,zero,4002518 <Send4XClrMotorEncoder+0x74>
        uiRegData = uiRegData | 0x02;       /* send clear motor B encoder counter command */
 4002508:	e0bffb17 	ldw	r2,-20(fp)
 400250c:	10800094 	ori	r2,r2,2
 4002510:	e0bffb15 	stw	r2,-20(fp)
 4002514:	00000406 	br	4002528 <Send4XClrMotorEncoder+0x84>
    }else {
        uiRegData = uiRegData & 0xFFFFFFFD; /* close clear motor B encoder counter command */
 4002518:	e0bffb17 	ldw	r2,-20(fp)
 400251c:	00ffff44 	movi	r3,-3
 4002520:	10c4703a 	and	r2,r2,r3
 4002524:	e0bffb15 	stw	r2,-20(fp)
    }
    if(uiME3 > 0){
 4002528:	e0bfff17 	ldw	r2,-4(fp)
 400252c:	1005003a 	cmpeq	r2,r2,zero
 4002530:	1000041e 	bne	r2,zero,4002544 <Send4XClrMotorEncoder+0xa0>
        uiRegData = uiRegData | 0x04; /* close clear motor C encoder counter command */
 4002534:	e0bffb17 	ldw	r2,-20(fp)
 4002538:	10800114 	ori	r2,r2,4
 400253c:	e0bffb15 	stw	r2,-20(fp)
 4002540:	00000406 	br	4002554 <Send4XClrMotorEncoder+0xb0>
    }else {
        uiRegData = uiRegData & 0xFFFFFFFB; /* close clear motor C encoder counter command */
 4002544:	e0bffb17 	ldw	r2,-20(fp)
 4002548:	00fffec4 	movi	r3,-5
 400254c:	10c4703a 	and	r2,r2,r3
 4002550:	e0bffb15 	stw	r2,-20(fp)
    }
    if(uiME4 > 0){
 4002554:	e0800217 	ldw	r2,8(fp)
 4002558:	1005003a 	cmpeq	r2,r2,zero
 400255c:	1000041e 	bne	r2,zero,4002570 <Send4XClrMotorEncoder+0xcc>
        uiRegData = uiRegData | 0x08;       /* send clear motor D encoder counter command */
 4002560:	e0bffb17 	ldw	r2,-20(fp)
 4002564:	10800214 	ori	r2,r2,8
 4002568:	e0bffb15 	stw	r2,-20(fp)
 400256c:	00000406 	br	4002580 <Send4XClrMotorEncoder+0xdc>
    }else {
        uiRegData = uiRegData & 0xFFFFFFF7; /* close clear motor D encoder counter command */
 4002570:	e0bffb17 	ldw	r2,-20(fp)
 4002574:	00fffdc4 	movi	r3,-9
 4002578:	10c4703a 	and	r2,r2,r3
 400257c:	e0bffb15 	stw	r2,-20(fp)
    }

//  printf("0x%x\n", iRegData);
    IOWR(SYSREG_BASE, 3, uiRegData); /* send clear motor encoder command  */
 4002580:	e0fffb17 	ldw	r3,-20(fp)
 4002584:	00860304 	movi	r2,6156
 4002588:	10c00035 	stwio	r3,0(r2)
    usleep(1);
 400258c:	01000044 	movi	r4,1
 4002590:	400db3c0 	call	400db3c <usleep>
    IOWR(SYSREG_BASE, 3, uiRegData&0xfffffff0); /* close clear motor encoder command  */
 4002594:	e0fffb17 	ldw	r3,-20(fp)
 4002598:	00bffc04 	movi	r2,-16
 400259c:	1886703a 	and	r3,r3,r2
 40025a0:	00860304 	movi	r2,6156
 40025a4:	10c00035 	stwio	r3,0(r2)
    sMotor->uiR03MotorControl = uiRegData; /* store R03 */
 40025a8:	e0fffc17 	ldw	r3,-16(fp)
 40025ac:	e0bffb17 	ldw	r2,-20(fp)
 40025b0:	18800315 	stw	r2,12(r3)
        printf(" #D(1)\n ");
    }else {
        printf(" #D(0)\n ");
    }
#endif
}
 40025b4:	e037883a 	mov	sp,fp
 40025b8:	dfc00117 	ldw	ra,4(sp)
 40025bc:	df000017 	ldw	fp,0(sp)
 40025c0:	dec00204 	addi	sp,sp,8
 40025c4:	f800283a 	ret

040025c8 <ClearMotorSensorFifo>:

void ClearMotorSensorFifo(sMotor_s *sMotor, unsigned int uiME1, unsigned int uiME2,
                         unsigned int uiME3, unsigned int uiME4){
 40025c8:	defffa04 	addi	sp,sp,-24
 40025cc:	dfc00515 	stw	ra,20(sp)
 40025d0:	df000415 	stw	fp,16(sp)
 40025d4:	df000404 	addi	fp,sp,16
 40025d8:	e13ffc15 	stw	r4,-16(fp)
 40025dc:	e17ffd15 	stw	r5,-12(fp)
 40025e0:	e1bffe15 	stw	r6,-8(fp)
 40025e4:	e1ffff15 	stw	r7,-4(fp)
    IOWR(SYSREG_BASE, 3, 0x80000000); /* send [31] clear fifo command */
 40025e8:	00860304 	movi	r2,6156
 40025ec:	00e00034 	movhi	r3,32768
 40025f0:	10c00035 	stwio	r3,0(r2)
    usleep(1);
 40025f4:	01000044 	movi	r4,1
 40025f8:	400db3c0 	call	400db3c <usleep>
    IOWR(SYSREG_BASE, 3, 0x00000000); /* send [31] clear fifo command */
 40025fc:	00860304 	movi	r2,6156
 4002600:	10000035 	stwio	zero,0(r2)
#ifdef DEBUG_MESSAGE
    printf("[Motor Msg][CMD] Clear Motor Sensor fifo completed.\n");
#endif
}
 4002604:	e037883a 	mov	sp,fp
 4002608:	dfc00117 	ldw	ra,4(sp)
 400260c:	df000017 	ldw	fp,0(sp)
 4002610:	dec00204 	addi	sp,sp,8
 4002614:	f800283a 	ret

04002618 <Read4XMotorDir>:

void Read4XMotorDir(sMotor_s *sMotor){
 4002618:	defffd04 	addi	sp,sp,-12
 400261c:	df000215 	stw	fp,8(sp)
 4002620:	df000204 	addi	fp,sp,8
 4002624:	e13fff15 	stw	r4,-4(fp)
    unsigned int uiMotorFBDir;

    uiMotorFBDir = IORD(SYSREG_BASE, 2);
 4002628:	00860204 	movi	r2,6152
 400262c:	10800037 	ldwio	r2,0(r2)
 4002630:	e0bffe15 	stw	r2,-8(fp)

    sMotor->sMotorAp.uiMotorFBDir = uiMotorFBDir      & 0x01;
 4002634:	e0bffe17 	ldw	r2,-8(fp)
 4002638:	10c0004c 	andi	r3,r2,1
 400263c:	e0bfff17 	ldw	r2,-4(fp)
 4002640:	10c00415 	stw	r3,16(r2)
    sMotor->sMotorBp.uiMotorFBDir = (uiMotorFBDir>>1) & 0x01;
 4002644:	e0bffe17 	ldw	r2,-8(fp)
 4002648:	1004d07a 	srli	r2,r2,1
 400264c:	10c0004c 	andi	r3,r2,1
 4002650:	e0bfff17 	ldw	r2,-4(fp)
 4002654:	10c00c15 	stw	r3,48(r2)
    sMotor->sMotorCp.uiMotorFBDir = (uiMotorFBDir>>2) & 0x01;
 4002658:	e0bffe17 	ldw	r2,-8(fp)
 400265c:	1004d0ba 	srli	r2,r2,2
 4002660:	10c0004c 	andi	r3,r2,1
 4002664:	e0bfff17 	ldw	r2,-4(fp)
 4002668:	10c01415 	stw	r3,80(r2)
    sMotor->sMotorDp.uiMotorFBDir = (uiMotorFBDir>>3) & 0x01;
 400266c:	e0bffe17 	ldw	r2,-8(fp)
 4002670:	1004d0fa 	srli	r2,r2,3
 4002674:	10c0004c 	andi	r3,r2,1
 4002678:	e0bfff17 	ldw	r2,-4(fp)
 400267c:	10c01c15 	stw	r3,112(r2)
    printf("A(%6d), B(%6d), C(%6d), D(%6d).\n", sMotor->sMotorAp.uiMotorFBDir, \
                                          sMotor->sMotorBp.uiMotorFBDir, \
                                          sMotor->sMotorCp.uiMotorFBDir, \
                                          sMotor->sMotorDp.uiMotorFBDir);
#endif
}
 4002680:	e037883a 	mov	sp,fp
 4002684:	df000017 	ldw	fp,0(sp)
 4002688:	dec00104 	addi	sp,sp,4
 400268c:	f800283a 	ret

04002690 <Read4XMotorEncoder>:
void Read4XMotorEncoder(sMotor_s *sMotor){
 4002690:	defffe04 	addi	sp,sp,-8
 4002694:	df000115 	stw	fp,4(sp)
 4002698:	df000104 	addi	fp,sp,4
 400269c:	e13fff15 	stw	r4,-4(fp)

    sMotor->sMotorAp.iMotorFBEncoder = IORD(SYSREG_BASE, 7);
 40026a0:	00860704 	movi	r2,6172
 40026a4:	10c00037 	ldwio	r3,0(r2)
 40026a8:	e0bfff17 	ldw	r2,-4(fp)
 40026ac:	10c00715 	stw	r3,28(r2)
    sMotor->sMotorBp.iMotorFBEncoder = IORD(SYSREG_BASE, 12);
 40026b0:	00860c04 	movi	r2,6192
 40026b4:	10c00037 	ldwio	r3,0(r2)
 40026b8:	e0bfff17 	ldw	r2,-4(fp)
 40026bc:	10c00f15 	stw	r3,60(r2)
    sMotor->sMotorCp.iMotorFBEncoder = IORD(SYSREG_BASE, 17);
 40026c0:	00861104 	movi	r2,6212
 40026c4:	10c00037 	ldwio	r3,0(r2)
 40026c8:	e0bfff17 	ldw	r2,-4(fp)
 40026cc:	10c01715 	stw	r3,92(r2)
    sMotor->sMotorDp.iMotorFBEncoder = IORD(SYSREG_BASE, 22);
 40026d0:	00861604 	movi	r2,6232
 40026d4:	10c00037 	ldwio	r3,0(r2)
 40026d8:	e0bfff17 	ldw	r2,-4(fp)
 40026dc:	10c01f15 	stw	r3,124(r2)
    printf("A(%6d), B(%6d), C(%6d), D(%6d).\n", sMotor->sMotorAp.iMotorFBEncoder, \
                                             sMotor->sMotorBp.iMotorFBEncoder, \
                                             sMotor->sMotorCp.iMotorFBEncoder, \
                                             sMotor->sMotorDp.iMotorFBEncoder);
#endif
}
 40026e0:	e037883a 	mov	sp,fp
 40026e4:	df000017 	ldw	fp,0(sp)
 40026e8:	dec00104 	addi	sp,sp,4
 40026ec:	f800283a 	ret

040026f0 <Read4XMotorSpeed>:
void Read4XMotorSpeed(sMotor_s *sMotor){
 40026f0:	defffd04 	addi	sp,sp,-12
 40026f4:	df000215 	stw	fp,8(sp)
 40026f8:	df000204 	addi	fp,sp,8
 40026fc:	e13fff15 	stw	r4,-4(fp)
//                                        [14]: Motor D voltage sensor fifo status, (1: indicated fifo not empty)
//                                        [15]: Motor D current sensor fifo status, (1: indicated fifo not empty)
//                                        [30:16]: reserve.
//                                     */
    /*-------------read speed ---------------*/
    uiFifostatus = IORD(SYSREG_BASE, 4); /* r04 motor fifo status */
 4002700:	00860404 	movi	r2,6160
 4002704:	10800037 	ldwio	r2,0(r2)
 4002708:	e0bffe15 	stw	r2,-8(fp)
    if(uiFifostatus & 0x01){ /* check motor A speed fifo status */
 400270c:	e0bffe17 	ldw	r2,-8(fp)
 4002710:	1080004c 	andi	r2,r2,1
 4002714:	10803fcc 	andi	r2,r2,255
 4002718:	1005003a 	cmpeq	r2,r2,zero
 400271c:	10000f1e 	bne	r2,zero,400275c <Read4XMotorSpeed+0x6c>
        sMotor->sMotorAp.uiMotorFBSpeed = IORD(SYSREG_BASE, 8); /* motor A speed counter */
 4002720:	00860804 	movi	r2,6176
 4002724:	10800037 	ldwio	r2,0(r2)
 4002728:	1007883a 	mov	r3,r2
 400272c:	e0bfff17 	ldw	r2,-4(fp)
 4002730:	10c00615 	stw	r3,24(r2)
        if(sMotor->sMotorAp.uiMotorFBSpeed > 100000){
 4002734:	e0bfff17 	ldw	r2,-4(fp)
 4002738:	10c00617 	ldw	r3,24(r2)
 400273c:	008000b4 	movhi	r2,2
 4002740:	10a1a804 	addi	r2,r2,-31072
 4002744:	10c0092e 	bgeu	r2,r3,400276c <Read4XMotorSpeed+0x7c>
            sMotor->sMotorAp.uiMotorFBSpeed = 0xdeadbeef; /* no data */
 4002748:	e0ffff17 	ldw	r3,-4(fp)
 400274c:	00b7abb4 	movhi	r2,57006
 4002750:	10afbbc4 	addi	r2,r2,-16657
 4002754:	18800615 	stw	r2,24(r3)
 4002758:	00000406 	br	400276c <Read4XMotorSpeed+0x7c>
        }
    }else{
    	sMotor->sMotorAp.uiMotorFBSpeed = 0xdeadbeef; /* no data */
 400275c:	e0ffff17 	ldw	r3,-4(fp)
 4002760:	00b7abb4 	movhi	r2,57006
 4002764:	10afbbc4 	addi	r2,r2,-16657
 4002768:	18800615 	stw	r2,24(r3)
    }
    if(uiFifostatus & 0x02){ /* check motor B speed fifo status */
 400276c:	e0bffe17 	ldw	r2,-8(fp)
 4002770:	1080008c 	andi	r2,r2,2
 4002774:	1005003a 	cmpeq	r2,r2,zero
 4002778:	10000f1e 	bne	r2,zero,40027b8 <Read4XMotorSpeed+0xc8>
        sMotor->sMotorBp.uiMotorFBSpeed = IORD(SYSREG_BASE, 13); /* motor A speed counter */
 400277c:	00860d04 	movi	r2,6196
 4002780:	10800037 	ldwio	r2,0(r2)
 4002784:	1007883a 	mov	r3,r2
 4002788:	e0bfff17 	ldw	r2,-4(fp)
 400278c:	10c00e15 	stw	r3,56(r2)
        if(sMotor->sMotorBp.uiMotorFBSpeed > 100000){
 4002790:	e0bfff17 	ldw	r2,-4(fp)
 4002794:	10c00e17 	ldw	r3,56(r2)
 4002798:	008000b4 	movhi	r2,2
 400279c:	10a1a804 	addi	r2,r2,-31072
 40027a0:	10c0092e 	bgeu	r2,r3,40027c8 <Read4XMotorSpeed+0xd8>
            sMotor->sMotorBp.uiMotorFBSpeed = 0xdeadbeef; /* no data */
 40027a4:	e0ffff17 	ldw	r3,-4(fp)
 40027a8:	00b7abb4 	movhi	r2,57006
 40027ac:	10afbbc4 	addi	r2,r2,-16657
 40027b0:	18800e15 	stw	r2,56(r3)
 40027b4:	00000406 	br	40027c8 <Read4XMotorSpeed+0xd8>
        }
    }else{
    	sMotor->sMotorBp.uiMotorFBSpeed = 0xdeadbeef; /* no data */
 40027b8:	e0ffff17 	ldw	r3,-4(fp)
 40027bc:	00b7abb4 	movhi	r2,57006
 40027c0:	10afbbc4 	addi	r2,r2,-16657
 40027c4:	18800e15 	stw	r2,56(r3)
    }
    if(uiFifostatus & 0x04){ /* check motor C speed fifo status */
 40027c8:	e0bffe17 	ldw	r2,-8(fp)
 40027cc:	1080010c 	andi	r2,r2,4
 40027d0:	1005003a 	cmpeq	r2,r2,zero
 40027d4:	10000f1e 	bne	r2,zero,4002814 <Read4XMotorSpeed+0x124>
        sMotor->sMotorCp.uiMotorFBSpeed = IORD(SYSREG_BASE, 18); /* motor A speed counter */
 40027d8:	00861204 	movi	r2,6216
 40027dc:	10800037 	ldwio	r2,0(r2)
 40027e0:	1007883a 	mov	r3,r2
 40027e4:	e0bfff17 	ldw	r2,-4(fp)
 40027e8:	10c01615 	stw	r3,88(r2)
        if(sMotor->sMotorCp.uiMotorFBSpeed > 100000){
 40027ec:	e0bfff17 	ldw	r2,-4(fp)
 40027f0:	10c01617 	ldw	r3,88(r2)
 40027f4:	008000b4 	movhi	r2,2
 40027f8:	10a1a804 	addi	r2,r2,-31072
 40027fc:	10c0092e 	bgeu	r2,r3,4002824 <Read4XMotorSpeed+0x134>
            sMotor->sMotorCp.uiMotorFBSpeed = 0xdeadbeef; /* no data */
 4002800:	e0ffff17 	ldw	r3,-4(fp)
 4002804:	00b7abb4 	movhi	r2,57006
 4002808:	10afbbc4 	addi	r2,r2,-16657
 400280c:	18801615 	stw	r2,88(r3)
 4002810:	00000406 	br	4002824 <Read4XMotorSpeed+0x134>
        }
    }else{
    	sMotor->sMotorCp.uiMotorFBSpeed = 0xdeadbeef; /* no data */
 4002814:	e0ffff17 	ldw	r3,-4(fp)
 4002818:	00b7abb4 	movhi	r2,57006
 400281c:	10afbbc4 	addi	r2,r2,-16657
 4002820:	18801615 	stw	r2,88(r3)
    }
    if(uiFifostatus & 0x08){ /* check motor D speed fifo status */
 4002824:	e0bffe17 	ldw	r2,-8(fp)
 4002828:	1080020c 	andi	r2,r2,8
 400282c:	1005003a 	cmpeq	r2,r2,zero
 4002830:	10000f1e 	bne	r2,zero,4002870 <Read4XMotorSpeed+0x180>
        sMotor->sMotorDp.uiMotorFBSpeed = IORD(SYSREG_BASE, 23); /* motor A speed counter */
 4002834:	00861704 	movi	r2,6236
 4002838:	10800037 	ldwio	r2,0(r2)
 400283c:	1007883a 	mov	r3,r2
 4002840:	e0bfff17 	ldw	r2,-4(fp)
 4002844:	10c01e15 	stw	r3,120(r2)
        if(sMotor->sMotorDp.uiMotorFBSpeed > 100000){
 4002848:	e0bfff17 	ldw	r2,-4(fp)
 400284c:	10c01e17 	ldw	r3,120(r2)
 4002850:	008000b4 	movhi	r2,2
 4002854:	10a1a804 	addi	r2,r2,-31072
 4002858:	10c0092e 	bgeu	r2,r3,4002880 <Read4XMotorSpeed+0x190>
            sMotor->sMotorDp.uiMotorFBSpeed = 0xdeadbeef; /* no data */
 400285c:	e0ffff17 	ldw	r3,-4(fp)
 4002860:	00b7abb4 	movhi	r2,57006
 4002864:	10afbbc4 	addi	r2,r2,-16657
 4002868:	18801e15 	stw	r2,120(r3)
 400286c:	00000406 	br	4002880 <Read4XMotorSpeed+0x190>
        }
    }else{
    	sMotor->sMotorDp.uiMotorFBSpeed = 0xdeadbeef; /* no data */
 4002870:	e0ffff17 	ldw	r3,-4(fp)
 4002874:	00b7abb4 	movhi	r2,57006
 4002878:	10afbbc4 	addi	r2,r2,-16657
 400287c:	18801e15 	stw	r2,120(r3)
                                             sMotor->sMotorBp.uiMotorFBSpeed, \
                                             sMotor->sMotorCp.uiMotorFBSpeed, \
                                             sMotor->sMotorDp.uiMotorFBSpeed);

#endif
}
 4002880:	e037883a 	mov	sp,fp
 4002884:	df000017 	ldw	fp,0(sp)
 4002888:	dec00104 	addi	sp,sp,4
 400288c:	f800283a 	ret

04002890 <Read4XMotorSensor>:
void Read4XMotorSensor(sMotor_s *sMotor){
 4002890:	defffd04 	addi	sp,sp,-12
 4002894:	df000215 	stw	fp,8(sp)
 4002898:	df000204 	addi	fp,sp,8
 400289c:	e13fff15 	stw	r4,-4(fp)
//                                        [15]: Motor D current sensor fifo status, (1: indicated fifo not empty)
//                                        [30:16]: reserve.
//                                     */

    /*-------------read voltage & current  ---------------*/
    uiFifostatus = IORD(SYSREG_BASE, 4); /* r04 motor fifo status */
 40028a0:	00860404 	movi	r2,6160
 40028a4:	10800037 	ldwio	r2,0(r2)
 40028a8:	e0bffe15 	stw	r2,-8(fp)
    if(uiFifostatus & 0x0100){ /* check motor A voltage fifo status */
 40028ac:	e0bffe17 	ldw	r2,-8(fp)
 40028b0:	1080400c 	andi	r2,r2,256
 40028b4:	1005003a 	cmpeq	r2,r2,zero
 40028b8:	1000061e 	bne	r2,zero,40028d4 <Read4XMotorSensor+0x44>
    	sMotor->sMotorAp.uiVoltage = IORD(SYSREG_BASE, 9)&0x0FFF; /* motor A voltage */
 40028bc:	00860904 	movi	r2,6180
 40028c0:	10800037 	ldwio	r2,0(r2)
 40028c4:	10c3ffcc 	andi	r3,r2,4095
 40028c8:	e0bfff17 	ldw	r2,-4(fp)
 40028cc:	10c00815 	stw	r3,32(r2)
 40028d0:	00000406 	br	40028e4 <Read4XMotorSensor+0x54>
    }else{
        sMotor->sMotorAp.uiVoltage = 0xdeedbeef; /* motor A voltage */
 40028d4:	e0ffff17 	ldw	r3,-4(fp)
 40028d8:	00b7bbb4 	movhi	r2,57070
 40028dc:	10afbbc4 	addi	r2,r2,-16657
 40028e0:	18800815 	stw	r2,32(r3)
    }
    if(uiFifostatus & 0x0200){ /* check motor A current fifo status */
 40028e4:	e0bffe17 	ldw	r2,-8(fp)
 40028e8:	1080800c 	andi	r2,r2,512
 40028ec:	1005003a 	cmpeq	r2,r2,zero
 40028f0:	1000061e 	bne	r2,zero,400290c <Read4XMotorSensor+0x7c>
    	sMotor->sMotorAp.uiCurrent = IORD(SYSREG_BASE, 10)&0x0FFF; /* motor A current */
 40028f4:	00860a04 	movi	r2,6184
 40028f8:	10800037 	ldwio	r2,0(r2)
 40028fc:	10c3ffcc 	andi	r3,r2,4095
 4002900:	e0bfff17 	ldw	r2,-4(fp)
 4002904:	10c00915 	stw	r3,36(r2)
 4002908:	00000406 	br	400291c <Read4XMotorSensor+0x8c>
    }else{
        sMotor->sMotorAp.uiCurrent = 0xdeedbeef; /* motor A Current */
 400290c:	e0ffff17 	ldw	r3,-4(fp)
 4002910:	00b7bbb4 	movhi	r2,57070
 4002914:	10afbbc4 	addi	r2,r2,-16657
 4002918:	18800915 	stw	r2,36(r3)
    }
    if(uiFifostatus & 0x0400){ /* check motor B voltage fifo status */
 400291c:	e0bffe17 	ldw	r2,-8(fp)
 4002920:	1081000c 	andi	r2,r2,1024
 4002924:	1005003a 	cmpeq	r2,r2,zero
 4002928:	1000061e 	bne	r2,zero,4002944 <Read4XMotorSensor+0xb4>
        sMotor->sMotorBp.uiVoltage = IORD(SYSREG_BASE, 14)&0x0FFF; /* motor B voltage */
 400292c:	00860e04 	movi	r2,6200
 4002930:	10800037 	ldwio	r2,0(r2)
 4002934:	10c3ffcc 	andi	r3,r2,4095
 4002938:	e0bfff17 	ldw	r2,-4(fp)
 400293c:	10c01015 	stw	r3,64(r2)
 4002940:	00000406 	br	4002954 <Read4XMotorSensor+0xc4>
    }else{
        sMotor->sMotorBp.uiVoltage = 0xdeedbeef; /* motor B voltage */
 4002944:	e0ffff17 	ldw	r3,-4(fp)
 4002948:	00b7bbb4 	movhi	r2,57070
 400294c:	10afbbc4 	addi	r2,r2,-16657
 4002950:	18801015 	stw	r2,64(r3)
    }
    if(uiFifostatus & 0x0800){ /* check motor B current fifo status */
 4002954:	e0bffe17 	ldw	r2,-8(fp)
 4002958:	1082000c 	andi	r2,r2,2048
 400295c:	1005003a 	cmpeq	r2,r2,zero
 4002960:	1000061e 	bne	r2,zero,400297c <Read4XMotorSensor+0xec>
        sMotor->sMotorBp.uiCurrent = IORD(SYSREG_BASE, 15)&0x0FFF; /* motor B current */
 4002964:	00860f04 	movi	r2,6204
 4002968:	10800037 	ldwio	r2,0(r2)
 400296c:	10c3ffcc 	andi	r3,r2,4095
 4002970:	e0bfff17 	ldw	r2,-4(fp)
 4002974:	10c01115 	stw	r3,68(r2)
 4002978:	00000406 	br	400298c <Read4XMotorSensor+0xfc>
    }else{
        sMotor->sMotorBp.uiCurrent = 0xdeedbeef; /* motor B Current */
 400297c:	e0ffff17 	ldw	r3,-4(fp)
 4002980:	00b7bbb4 	movhi	r2,57070
 4002984:	10afbbc4 	addi	r2,r2,-16657
 4002988:	18801115 	stw	r2,68(r3)
    }
    if(uiFifostatus & 0x1000){ /* check motor C voltage fifo status */
 400298c:	e0bffe17 	ldw	r2,-8(fp)
 4002990:	1084000c 	andi	r2,r2,4096
 4002994:	1005003a 	cmpeq	r2,r2,zero
 4002998:	1000061e 	bne	r2,zero,40029b4 <Read4XMotorSensor+0x124>
    	sMotor->sMotorCp.uiVoltage = IORD(SYSREG_BASE, 19)&0x0FFF; /* motor C voltage */
 400299c:	00861304 	movi	r2,6220
 40029a0:	10800037 	ldwio	r2,0(r2)
 40029a4:	10c3ffcc 	andi	r3,r2,4095
 40029a8:	e0bfff17 	ldw	r2,-4(fp)
 40029ac:	10c01815 	stw	r3,96(r2)
 40029b0:	00000406 	br	40029c4 <Read4XMotorSensor+0x134>
    }else{
        sMotor->sMotorCp.uiVoltage = 0xdeedbeef; /* motor C voltage */
 40029b4:	e0ffff17 	ldw	r3,-4(fp)
 40029b8:	00b7bbb4 	movhi	r2,57070
 40029bc:	10afbbc4 	addi	r2,r2,-16657
 40029c0:	18801815 	stw	r2,96(r3)
    }
    if(uiFifostatus & 0x2000){ /* check motor C current fifo status */
 40029c4:	e0bffe17 	ldw	r2,-8(fp)
 40029c8:	1088000c 	andi	r2,r2,8192
 40029cc:	1005003a 	cmpeq	r2,r2,zero
 40029d0:	1000061e 	bne	r2,zero,40029ec <Read4XMotorSensor+0x15c>
    	sMotor->sMotorCp.uiCurrent = IORD(SYSREG_BASE, 20)&0x0FFF; /* motor C current */
 40029d4:	00861404 	movi	r2,6224
 40029d8:	10800037 	ldwio	r2,0(r2)
 40029dc:	10c3ffcc 	andi	r3,r2,4095
 40029e0:	e0bfff17 	ldw	r2,-4(fp)
 40029e4:	10c01915 	stw	r3,100(r2)
 40029e8:	00000406 	br	40029fc <Read4XMotorSensor+0x16c>
    }else{
        sMotor->sMotorCp.uiCurrent = 0xdeedbeef; /* motor C Current */
 40029ec:	e0ffff17 	ldw	r3,-4(fp)
 40029f0:	00b7bbb4 	movhi	r2,57070
 40029f4:	10afbbc4 	addi	r2,r2,-16657
 40029f8:	18801915 	stw	r2,100(r3)
    }
    if(uiFifostatus & 0x4000){ /* check motor D voltage fifo status */
 40029fc:	e0bffe17 	ldw	r2,-8(fp)
 4002a00:	1090000c 	andi	r2,r2,16384
 4002a04:	1005003a 	cmpeq	r2,r2,zero
 4002a08:	1000061e 	bne	r2,zero,4002a24 <Read4XMotorSensor+0x194>
        sMotor->sMotorDp.uiVoltage = IORD(SYSREG_BASE, 24)&0x0FFF; /* motor D voltage */
 4002a0c:	00861804 	movi	r2,6240
 4002a10:	10800037 	ldwio	r2,0(r2)
 4002a14:	10c3ffcc 	andi	r3,r2,4095
 4002a18:	e0bfff17 	ldw	r2,-4(fp)
 4002a1c:	10c02015 	stw	r3,128(r2)
 4002a20:	00000406 	br	4002a34 <Read4XMotorSensor+0x1a4>
    }else{
        sMotor->sMotorDp.uiVoltage = 0xdeedbeef; /* motor D voltage */
 4002a24:	e0ffff17 	ldw	r3,-4(fp)
 4002a28:	00b7bbb4 	movhi	r2,57070
 4002a2c:	10afbbc4 	addi	r2,r2,-16657
 4002a30:	18802015 	stw	r2,128(r3)
    }
    if(uiFifostatus & 0x8000){ /* check motor D current fifo status */
 4002a34:	e0bffe17 	ldw	r2,-8(fp)
 4002a38:	10a0000c 	andi	r2,r2,32768
 4002a3c:	1005003a 	cmpeq	r2,r2,zero
 4002a40:	1000061e 	bne	r2,zero,4002a5c <Read4XMotorSensor+0x1cc>
        sMotor->sMotorDp.uiCurrent = IORD(SYSREG_BASE, 25)&0x0FFF; /* motor D current */
 4002a44:	00861904 	movi	r2,6244
 4002a48:	10800037 	ldwio	r2,0(r2)
 4002a4c:	10c3ffcc 	andi	r3,r2,4095
 4002a50:	e0bfff17 	ldw	r2,-4(fp)
 4002a54:	10c02115 	stw	r3,132(r2)
 4002a58:	00000406 	br	4002a6c <Read4XMotorSensor+0x1dc>
    }else{
        sMotor->sMotorDp.uiCurrent = 0xdeedbeef; /* motor D Current */
 4002a5c:	e0ffff17 	ldw	r3,-4(fp)
 4002a60:	00b7bbb4 	movhi	r2,57070
 4002a64:	10afbbc4 	addi	r2,r2,-16657
 4002a68:	18802115 	stw	r2,132(r3)
    printf("A(%6d), B(%6d), C(%6d), D(%6d).\n", sMotor->sMotorAp.uiCurrent, \
                                             sMotor->sMotorBp.uiCurrent, \
                                             sMotor->sMotorCp.uiCurrent, \
                                             sMotor->sMotorDp.uiCurrent);
#endif
}
 4002a6c:	e037883a 	mov	sp,fp
 4002a70:	df000017 	ldw	fp,0(sp)
 4002a74:	dec00104 	addi	sp,sp,4
 4002a78:	f800283a 	ret

04002a7c <DoEnableTimerInterrupt>:
/* extern function */
//extern void TimerISRmain(sMotor_s *sMotor);

//Enable Timer Interrupt Routine
void DoEnableTimerInterrupt(sTimer_s *sTimer)
{
 4002a7c:	defffb04 	addi	sp,sp,-20
 4002a80:	dfc00415 	stw	ra,16(sp)
 4002a84:	df000315 	stw	fp,12(sp)
 4002a88:	df000304 	addi	fp,sp,12
 4002a8c:	e13fff15 	stw	r4,-4(fp)
    unsigned int wCLKValue; // interrupt time counter value
    int i;
#ifdef TIMER0_NAME
    printf("[MSG][Timer]Find Timer0 and start initial timer0 interrupt.\n");
 4002a90:	01010074 	movhi	r4,1025
 4002a94:	2106d904 	addi	r4,r4,7012
 4002a98:	4003ed00 	call	4003ed0 <puts>
    printf("[MSG][Timer]Interrupt Time = %1.3f (s)\n", sTimer->fInterruptTime);
 4002a9c:	e0bfff17 	ldw	r2,-4(fp)
 4002aa0:	10800317 	ldw	r2,12(r2)
 4002aa4:	1009883a 	mov	r4,r2
 4002aa8:	40034bc0 	call	40034bc <__extendsfdf2>
 4002aac:	100d883a 	mov	r6,r2
 4002ab0:	180f883a 	mov	r7,r3
 4002ab4:	01010074 	movhi	r4,1025
 4002ab8:	2106e804 	addi	r4,r4,7072
 4002abc:	300b883a 	mov	r5,r6
 4002ac0:	380d883a 	mov	r6,r7
 4002ac4:	4003db80 	call	4003db8 <printf>

    wCLKValue = (unsigned int ) (sTimer->uiFREQ * sTimer->fInterruptTime); /* set Interrupt time */
 4002ac8:	e0bfff17 	ldw	r2,-4(fp)
 4002acc:	11000217 	ldw	r4,8(r2)
 4002ad0:	40035100 	call	4003510 <__floatunsisf>
 4002ad4:	1007883a 	mov	r3,r2
 4002ad8:	e0bfff17 	ldw	r2,-4(fp)
 4002adc:	10800317 	ldw	r2,12(r2)
 4002ae0:	1885ff32 	custom	252,r2,r3,r2
 4002ae4:	1009883a 	mov	r4,r2
 4002ae8:	4002f980 	call	4002f98 <__fixunssfsi>
 4002aec:	e0bffe15 	stw	r2,-8(fp)

    i = alt_irq_register( sTimer->uiIRQ, sTimer, sTimer->ISRFun_p);
 4002af0:	e0bfff17 	ldw	r2,-4(fp)
 4002af4:	11000117 	ldw	r4,4(r2)
 4002af8:	e0bfff17 	ldw	r2,-4(fp)
 4002afc:	10800617 	ldw	r2,24(r2)
 4002b00:	100d883a 	mov	r6,r2
 4002b04:	e17fff17 	ldw	r5,-4(fp)
 4002b08:	400d2d80 	call	400d2d8 <alt_irq_register>
 4002b0c:	e0bffd15 	stw	r2,-12(fp)
    /* Setting timer interrupt time register */
    IOWR(sTimer->uiBase,2,(short)(wCLKValue & 0x0000ffff)); /* get low 16-bits */
 4002b10:	e0bfff17 	ldw	r2,-4(fp)
 4002b14:	10800017 	ldw	r2,0(r2)
 4002b18:	11000204 	addi	r4,r2,8
 4002b1c:	e0bffe17 	ldw	r2,-8(fp)
 4002b20:	10ffffcc 	andi	r3,r2,65535
 4002b24:	18e0001c 	xori	r3,r3,32768
 4002b28:	18e00004 	addi	r3,r3,-32768
 4002b2c:	2005883a 	mov	r2,r4
 4002b30:	10c00035 	stwio	r3,0(r2)
    IOWR(sTimer->uiBase,3,(short)((wCLKValue >> 16) & 0x0000ffff));/* get high 16-bits */
 4002b34:	e0bfff17 	ldw	r2,-4(fp)
 4002b38:	10800017 	ldw	r2,0(r2)
 4002b3c:	11000304 	addi	r4,r2,12
 4002b40:	e0bffe17 	ldw	r2,-8(fp)
 4002b44:	1004d43a 	srli	r2,r2,16
 4002b48:	10ffffcc 	andi	r3,r2,65535
 4002b4c:	18e0001c 	xori	r3,r3,32768
 4002b50:	18e00004 	addi	r3,r3,-32768
 4002b54:	2005883a 	mov	r2,r4
 4002b58:	10c00035 	stwio	r3,0(r2)

    IOWR(sTimer->uiBase,1,0x07);    /* Set timer running, looping and interrupting */
 4002b5c:	e0bfff17 	ldw	r2,-4(fp)
 4002b60:	10800017 	ldw	r2,0(r2)
 4002b64:	10800104 	addi	r2,r2,4
 4002b68:	1007883a 	mov	r3,r2
 4002b6c:	008001c4 	movi	r2,7
 4002b70:	18800035 	stwio	r2,0(r3)
    IOWR(sTimer->uiBase, 0, 0); /* Clear Timeout flag */
 4002b74:	e0bfff17 	ldw	r2,-4(fp)
 4002b78:	10800017 	ldw	r2,0(r2)
 4002b7c:	10000035 	stwio	zero,0(r2)
    printf("[MSG][Timer]Timer interrupt is activated.\n");
 4002b80:	01010074 	movhi	r4,1025
 4002b84:	2106f204 	addi	r4,r4,7112
 4002b88:	4003ed00 	call	4003ed0 <puts>
#else
    printf("[MSG][Timer]Can't find Timer0 peripheral. \n");
#endif
}
 4002b8c:	e037883a 	mov	sp,fp
 4002b90:	dfc00117 	ldw	ra,4(sp)
 4002b94:	df000017 	ldw	fp,0(sp)
 4002b98:	dec00204 	addi	sp,sp,8
 4002b9c:	f800283a 	ret

04002ba0 <DoDisableTimerInterrupt>:

void DoDisableTimerInterrupt(sTimer_s *sTimer)
{
 4002ba0:	defffd04 	addi	sp,sp,-12
 4002ba4:	dfc00215 	stw	ra,8(sp)
 4002ba8:	df000115 	stw	fp,4(sp)
 4002bac:	df000104 	addi	fp,sp,4
 4002bb0:	e13fff15 	stw	r4,-4(fp)
     alt_irq_register(sTimer->uiIRQ, 0, 0); /* disable timer */
 4002bb4:	e0bfff17 	ldw	r2,-4(fp)
 4002bb8:	11000117 	ldw	r4,4(r2)
 4002bbc:	000b883a 	mov	r5,zero
 4002bc0:	000d883a 	mov	r6,zero
 4002bc4:	400d2d80 	call	400d2d8 <alt_irq_register>
     IOWR(sTimer->uiBase, 1, 0); /* Stop Timer Interrupt */
 4002bc8:	e0bfff17 	ldw	r2,-4(fp)
 4002bcc:	10800017 	ldw	r2,0(r2)
 4002bd0:	10800104 	addi	r2,r2,4
 4002bd4:	10000035 	stwio	zero,0(r2)
     printf("[MSG][Timer]Timer0 interrupt is disabled.\n");
 4002bd8:	01010074 	movhi	r4,1025
 4002bdc:	2106fd04 	addi	r4,r4,7156
 4002be0:	4003ed00 	call	4003ed0 <puts>
}
 4002be4:	e037883a 	mov	sp,fp
 4002be8:	dfc00117 	ldw	ra,4(sp)
 4002bec:	df000017 	ldw	fp,0(sp)
 4002bf0:	dec00204 	addi	sp,sp,8
 4002bf4:	f800283a 	ret

04002bf8 <TimerISRInitial>:


void TimerISRInitial(sTimer_s *sTimer, float fIntTime ){
 4002bf8:	defffc04 	addi	sp,sp,-16
 4002bfc:	dfc00315 	stw	ra,12(sp)
 4002c00:	df000215 	stw	fp,8(sp)
 4002c04:	df000204 	addi	fp,sp,8
 4002c08:	e13ffe15 	stw	r4,-8(fp)
 4002c0c:	e17fff15 	stw	r5,-4(fp)
    // initial timer0
    #ifdef TIMER0_NAME
        printf("[MSG][Timer]Find Timer0 and start initial timer0 process.\n");
 4002c10:	01010074 	movhi	r4,1025
 4002c14:	21070804 	addi	r4,r4,7200
 4002c18:	4003ed00 	call	4003ed0 <puts>
        sTimer->uiBase = TIMER0_BASE;
 4002c1c:	e0fffe17 	ldw	r3,-8(fp)
 4002c20:	00862004 	movi	r2,6272
 4002c24:	18800015 	stw	r2,0(r3)
        sTimer->uiIRQ  = TIMER0_IRQ;
 4002c28:	e0fffe17 	ldw	r3,-8(fp)
 4002c2c:	008000c4 	movi	r2,3
 4002c30:	18800115 	stw	r2,4(r3)
        sTimer->uiFREQ = TIMER0_FREQ;
 4002c34:	e0fffe17 	ldw	r3,-8(fp)
 4002c38:	00817db4 	movhi	r2,1526
 4002c3c:	10b84004 	addi	r2,r2,-7936
 4002c40:	18800215 	stw	r2,8(r3)
        sTimer->fInterruptTime = fIntTime;   /* set interrupt time */
 4002c44:	e0fffe17 	ldw	r3,-8(fp)
 4002c48:	e0bfff17 	ldw	r2,-4(fp)
 4002c4c:	18800315 	stw	r2,12(r3)
        sTimer->uiTICnt = 0;          /* set interrupt time counter */
 4002c50:	e0bffe17 	ldw	r2,-8(fp)
 4002c54:	10000415 	stw	zero,16(r2)
        sTimer->ucTimeout = 0;        /* clear timeout */
 4002c58:	e0bffe17 	ldw	r2,-8(fp)
 4002c5c:	10000505 	stb	zero,20(r2)
        sTimer->ISRFun_p = TimerISR;  /* set interrupt ISR function */
 4002c60:	e0fffe17 	ldw	r3,-8(fp)
 4002c64:	00810034 	movhi	r2,1024
 4002c68:	108b2304 	addi	r2,r2,11404
 4002c6c:	18800615 	stw	r2,24(r3)
        DoEnableTimerInterrupt(sTimer);      /* Enable interrupt */
 4002c70:	e13ffe17 	ldw	r4,-8(fp)
 4002c74:	4002a7c0 	call	4002a7c <DoEnableTimerInterrupt>
    #else
        printf("[MSG][Timer]Can't find Timer0.\n");
    #endif
}
 4002c78:	e037883a 	mov	sp,fp
 4002c7c:	dfc00117 	ldw	ra,4(sp)
 4002c80:	df000017 	ldw	fp,0(sp)
 4002c84:	dec00204 	addi	sp,sp,8
 4002c88:	f800283a 	ret

04002c8c <TimerISR>:
extern void NiosProcessMain( );

// adjust Freq base on phase
void TimerISR(sTimer_s *sTimer, unsigned int id) {
 4002c8c:	defffc04 	addi	sp,sp,-16
 4002c90:	dfc00315 	stw	ra,12(sp)
 4002c94:	df000215 	stw	fp,8(sp)
 4002c98:	df000204 	addi	fp,sp,8
 4002c9c:	e13ffe15 	stw	r4,-8(fp)
 4002ca0:	e17fff15 	stw	r5,-4(fp)
    IOWR(sTimer->uiBase, 0, 0); /* Clear Timeout flag */
 4002ca4:	e0bffe17 	ldw	r2,-8(fp)
 4002ca8:	10800017 	ldw	r2,0(r2)
 4002cac:	10000035 	stwio	zero,0(r2)
    sTimer->uiTICnt++;          /* accumulate interrupt times */
 4002cb0:	e0bffe17 	ldw	r2,-8(fp)
 4002cb4:	10800417 	ldw	r2,16(r2)
 4002cb8:	10c00044 	addi	r3,r2,1
 4002cbc:	e0bffe17 	ldw	r2,-8(fp)
 4002cc0:	10c00415 	stw	r3,16(r2)
    sTimer->ucTimeout = 1;      /* set timeout flag */
 4002cc4:	e0fffe17 	ldw	r3,-8(fp)
 4002cc8:	00800044 	movi	r2,1
 4002ccc:	18800505 	stb	r2,20(r3)
    /* Interrupt Serve Routine */
    #ifdef LEDG_NAME
        IOWR(LEDG_BASE, 0, sTimer->uiTICnt & 0x01); /* on or off LED */
 4002cd0:	e0bffe17 	ldw	r2,-8(fp)
 4002cd4:	10800417 	ldw	r2,16(r2)
 4002cd8:	10c0004c 	andi	r3,r2,1
 4002cdc:	00863804 	movi	r2,6368
 4002ce0:	10c00035 	stwio	r3,0(r2)
    #endif

    NiosProcessMain(sTimer->sNios_p);
 4002ce4:	e0bffe17 	ldw	r2,-8(fp)
 4002ce8:	11000717 	ldw	r4,28(r2)
 4002cec:	40002000 	call	4000200 <NiosProcessMain>

}
 4002cf0:	e037883a 	mov	sp,fp
 4002cf4:	dfc00117 	ldw	ra,4(sp)
 4002cf8:	df000017 	ldw	fp,0(sp)
 4002cfc:	dec00204 	addi	sp,sp,8
 4002d00:	f800283a 	ret

04002d04 <SendUart>:
// adjust Freq base on phase
void UartISR(sUart_s *sUart, unsigned int id);


char SendUart( sUart_s *sUart, unsigned char ucTxData)
{   /* return -1: error, 0: uart busy, 1:successful */
 4002d04:	defffb04 	addi	sp,sp,-20
 4002d08:	df000415 	stw	fp,16(sp)
 4002d0c:	df000404 	addi	fp,sp,16
 4002d10:	e13ffd15 	stw	r4,-12(fp)
 4002d14:	e17ffe05 	stb	r5,-8(fp)
    unsigned int uiStatus;
    uiStatus = IORD(sUart->uiBase, 2);              /* read uart0 status register */
 4002d18:	e0bffd17 	ldw	r2,-12(fp)
 4002d1c:	10800017 	ldw	r2,0(r2)
 4002d20:	10800204 	addi	r2,r2,8
 4002d24:	10800037 	ldwio	r2,0(r2)
 4002d28:	e0bffc15 	stw	r2,-16(fp)
    if(uiStatus & ALTERA_AVALON_UART_STATUS_E_MSK){ /* check error flag */
 4002d2c:	e0bffc17 	ldw	r2,-16(fp)
 4002d30:	1080400c 	andi	r2,r2,256
 4002d34:	1005003a 	cmpeq	r2,r2,zero
 4002d38:	1000071e 	bne	r2,zero,4002d58 <SendUart+0x54>
        IOWR(sUart->uiBase, 2, 0);                  /* clear flag, write to status register */
 4002d3c:	e0bffd17 	ldw	r2,-12(fp)
 4002d40:	10800017 	ldw	r2,0(r2)
 4002d44:	10800204 	addi	r2,r2,8
 4002d48:	10000035 	stwio	zero,0(r2)
        #ifdef DEBUG_MESSAGE
            printf("[MSG]Uart0 have exception condition.");
        #endif
        return -1;
 4002d4c:	00bfffc4 	movi	r2,-1
 4002d50:	e0bfff15 	stw	r2,-4(fp)
 4002d54:	00000d06 	br	4002d8c <SendUart+0x88>
    } else {
        if(uiStatus & ALTERA_AVALON_UART_STATUS_TRDY_MSK){ /* check TRDY flag */
 4002d58:	e0bffc17 	ldw	r2,-16(fp)
 4002d5c:	1080100c 	andi	r2,r2,64
 4002d60:	1005003a 	cmpeq	r2,r2,zero
 4002d64:	1000081e 	bne	r2,zero,4002d88 <SendUart+0x84>
            IOWR(sUart->uiBase, 1, ucTxData);
 4002d68:	e0bffd17 	ldw	r2,-12(fp)
 4002d6c:	10800017 	ldw	r2,0(r2)
 4002d70:	10800104 	addi	r2,r2,4
 4002d74:	e0fffe03 	ldbu	r3,-8(fp)
 4002d78:	10c00035 	stwio	r3,0(r2)
            return 1; /* send successful */
 4002d7c:	00800044 	movi	r2,1
 4002d80:	e0bfff15 	stw	r2,-4(fp)
 4002d84:	00000106 	br	4002d8c <SendUart+0x88>
        } else {
            #ifdef DEBUG_MESSAGE
                printf("[MSG]Uart0 is busy to transmit data.\n");
            #endif
            return 0; /* busy */
 4002d88:	e03fff15 	stw	zero,-4(fp)
 4002d8c:	e0bfff17 	ldw	r2,-4(fp)
        }
    }
}
 4002d90:	e037883a 	mov	sp,fp
 4002d94:	df000017 	ldw	fp,0(sp)
 4002d98:	dec00104 	addi	sp,sp,4
 4002d9c:	f800283a 	ret

04002da0 <DoEnableUartInterrupt>:

/* Enable Timer Interrupt Routine */
void DoEnableUartInterrupt(sUart_s *sUart) {
 4002da0:	defffb04 	addi	sp,sp,-20
 4002da4:	dfc00415 	stw	ra,16(sp)
 4002da8:	df000315 	stw	fp,12(sp)
 4002dac:	df000304 	addi	fp,sp,12
 4002db0:	e13fff15 	stw	r4,-4(fp)
    int i, flag;
#ifdef UART0_NAME
    /* Set UART0 ISR*/
    i = alt_irq_register( sUart->uiIRQ, sUart, sUart->ISRFun_p);
 4002db4:	e0bfff17 	ldw	r2,-4(fp)
 4002db8:	11000117 	ldw	r4,4(r2)
 4002dbc:	e0bfff17 	ldw	r2,-4(fp)
 4002dc0:	10804a17 	ldw	r2,296(r2)
 4002dc4:	100d883a 	mov	r6,r2
 4002dc8:	e17fff17 	ldw	r5,-4(fp)
 4002dcc:	400d2d80 	call	400d2d8 <alt_irq_register>
 4002dd0:	e0bffe15 	stw	r2,-8(fp)
    /* activate uart0 interrupt and set control register */
    flag = ALTERA_AVALON_UART_CONTROL_RRDY_MSK   /* set ie */  \
 4002dd4:	00806004 	movi	r2,384
 4002dd8:	e0bffd15 	stw	r2,-12(fp)
           | ALTERA_AVALON_UART_CONTROL_E_MSK;   /* set irrdy */
    IOWR(sUart->uiBase, 3, flag); /* set control register */
 4002ddc:	e0bfff17 	ldw	r2,-4(fp)
 4002de0:	10800017 	ldw	r2,0(r2)
 4002de4:	10800304 	addi	r2,r2,12
 4002de8:	1007883a 	mov	r3,r2
 4002dec:	e0bffd17 	ldw	r2,-12(fp)
 4002df0:	18800035 	stwio	r2,0(r3)
    /* clear status flag*/
    IOWR(sUart->uiBase, 2, 0);    /* clear status register  */
 4002df4:	e0bfff17 	ldw	r2,-4(fp)
 4002df8:	10800017 	ldw	r2,0(r2)
 4002dfc:	10800204 	addi	r2,r2,8
 4002e00:	10000035 	stwio	zero,0(r2)
    printf("[MSG]Uart0 interrupt is activated.\n");
 4002e04:	01010074 	movhi	r4,1025
 4002e08:	21071704 	addi	r4,r4,7260
 4002e0c:	4003ed00 	call	4003ed0 <puts>
#else
    printf("[MSG]Can't find Uart0 peripheral. \n");
#endif
}
 4002e10:	e037883a 	mov	sp,fp
 4002e14:	dfc00117 	ldw	ra,4(sp)
 4002e18:	df000017 	ldw	fp,0(sp)
 4002e1c:	dec00204 	addi	sp,sp,8
 4002e20:	f800283a 	ret

04002e24 <DoDisableUartInterrupt>:

void DoDisableUartInterrupt(sUart_s *sUart)
{
 4002e24:	defffd04 	addi	sp,sp,-12
 4002e28:	dfc00215 	stw	ra,8(sp)
 4002e2c:	df000115 	stw	fp,4(sp)
 4002e30:	df000104 	addi	fp,sp,4
 4002e34:	e13fff15 	stw	r4,-4(fp)
     alt_irq_register(sUart->uiIRQ, 0, 0); /* disable timer */
 4002e38:	e0bfff17 	ldw	r2,-4(fp)
 4002e3c:	11000117 	ldw	r4,4(r2)
 4002e40:	000b883a 	mov	r5,zero
 4002e44:	000d883a 	mov	r6,zero
 4002e48:	400d2d80 	call	400d2d8 <alt_irq_register>
     IOWR(sUart->uiBase, 3, 0); /* set control register to 0, Stop uart0 Interrupt */
 4002e4c:	e0bfff17 	ldw	r2,-4(fp)
 4002e50:	10800017 	ldw	r2,0(r2)
 4002e54:	10800304 	addi	r2,r2,12
 4002e58:	10000035 	stwio	zero,0(r2)
     printf("[MSG]sUart0 interrupt is disabled.\n");
 4002e5c:	01010074 	movhi	r4,1025
 4002e60:	21072004 	addi	r4,r4,7296
 4002e64:	4003ed00 	call	4003ed0 <puts>
}
 4002e68:	e037883a 	mov	sp,fp
 4002e6c:	dfc00117 	ldw	ra,4(sp)
 4002e70:	df000017 	ldw	fp,0(sp)
 4002e74:	dec00204 	addi	sp,sp,8
 4002e78:	f800283a 	ret

04002e7c <UartISRInitial>:



void UartISRInitial(sUart_s *sUart){
 4002e7c:	defffd04 	addi	sp,sp,-12
 4002e80:	dfc00215 	stw	ra,8(sp)
 4002e84:	df000115 	stw	fp,4(sp)
 4002e88:	df000104 	addi	fp,sp,4
 4002e8c:	e13fff15 	stw	r4,-4(fp)
    // initial timer0
    #ifdef UART0_NAME
        printf("[MSG]Uart0 initialization..\n");
 4002e90:	01010074 	movhi	r4,1025
 4002e94:	21072904 	addi	r4,r4,7332
 4002e98:	4003ed00 	call	4003ed0 <puts>
        sUart->uiBase = UART0_BASE;     /* Uart address base */
 4002e9c:	e0ffff17 	ldw	r3,-4(fp)
 4002ea0:	00862804 	movi	r2,6304
 4002ea4:	18800015 	stw	r2,0(r3)
        sUart->uiIRQ = UART0_IRQ;       /* Uart irq */
 4002ea8:	e0ffff17 	ldw	r3,-4(fp)
 4002eac:	00800084 	movi	r2,2
 4002eb0:	18800115 	stw	r2,4(r3)
        sUart->uiBaud = UART0_BAUD;     /* Uart baud rate */
 4002eb4:	e0ffff17 	ldw	r3,-4(fp)
 4002eb8:	008000b4 	movhi	r2,2
 4002ebc:	10b08004 	addi	r2,r2,-15872
 4002ec0:	18800215 	stw	r2,8(r3)
        sUart->ucParity = UART0_PARITY; /* Uart parity */
 4002ec4:	e0ffff17 	ldw	r3,-4(fp)
 4002ec8:	00801384 	movi	r2,78
 4002ecc:	18800305 	stb	r2,12(r3)
        sUart->uiRxBuf_Head = 0;       /* reset uart0 buffer head index */
 4002ed0:	e0bfff17 	ldw	r2,-4(fp)
 4002ed4:	10002415 	stw	zero,144(r2)
        sUart->uiRxBuf_End = 0;        /* reset uart0 buffer end index */
 4002ed8:	e0bfff17 	ldw	r2,-4(fp)
 4002edc:	10002515 	stw	zero,148(r2)
        sUart->uiTxBuf_Head = 0;       /* reset uart0 buffer head index */
 4002ee0:	e0bfff17 	ldw	r2,-4(fp)
 4002ee4:	10004615 	stw	zero,280(r2)
        sUart->uiRxBuf_End = 0;        /* reset uart0 buffer end index */
 4002ee8:	e0bfff17 	ldw	r2,-4(fp)
 4002eec:	10002515 	stw	zero,148(r2)
        sUart->uiStatus = 0;            /* uart0 status */
 4002ef0:	e0bfff17 	ldw	r2,-4(fp)
 4002ef4:	10004815 	stw	zero,288(r2)
        sUart->ISRFun_p = UartISR;      /* set interrupt ISR function */
 4002ef8:	e0ffff17 	ldw	r3,-4(fp)
 4002efc:	00810034 	movhi	r2,1024
 4002f00:	108bc904 	addi	r2,r2,12068
 4002f04:	18804a15 	stw	r2,296(r3)
        DoEnableUartInterrupt(sUart);         /* Enable interrupt */
 4002f08:	e13fff17 	ldw	r4,-4(fp)
 4002f0c:	4002da00 	call	4002da0 <DoEnableUartInterrupt>
    #else
        printf("[MSG]Can't find Uart0 peripheral.\n");
    #endif
}
 4002f10:	e037883a 	mov	sp,fp
 4002f14:	dfc00117 	ldw	ra,4(sp)
 4002f18:	df000017 	ldw	fp,0(sp)
 4002f1c:	dec00204 	addi	sp,sp,8
 4002f20:	f800283a 	ret

04002f24 <UartISR>:


// adjust Freq base on phase
void UartISR(sUart_s *sUart, unsigned int id) {
 4002f24:	defffc04 	addi	sp,sp,-16
 4002f28:	df000315 	stw	fp,12(sp)
 4002f2c:	df000304 	addi	fp,sp,12
 4002f30:	e13ffe15 	stw	r4,-8(fp)
 4002f34:	e17fff15 	stw	r5,-4(fp)
    unsigned char ucRxdata;
#ifdef UART0_NAME
    IOWR(sUart->uiBase, 2, 0);  /* Clear uart0 flag */
 4002f38:	e0bffe17 	ldw	r2,-8(fp)
 4002f3c:	10800017 	ldw	r2,0(r2)
 4002f40:	10800204 	addi	r2,r2,8
 4002f44:	10000035 	stwio	zero,0(r2)
    ucRxdata = IORD(sUart->uiBase, 0);
 4002f48:	e0bffe17 	ldw	r2,-8(fp)
 4002f4c:	10800017 	ldw	r2,0(r2)
 4002f50:	10800037 	ldwio	r2,0(r2)
 4002f54:	e0bffd05 	stb	r2,-12(fp)
//    printf("Rcv=%x\n", ucRxdata);
    sUart->ucRxBuf[sUart->uiRxBuf_End] = ucRxdata; /* receive rxdata to buffer[end]*/
 4002f58:	e0bffe17 	ldw	r2,-8(fp)
 4002f5c:	10c02517 	ldw	r3,148(r2)
 4002f60:	e0bffe17 	ldw	r2,-8(fp)
 4002f64:	1885883a 	add	r2,r3,r2
 4002f68:	10c00304 	addi	r3,r2,12
 4002f6c:	e0bffd03 	ldbu	r2,-12(fp)
 4002f70:	18800045 	stb	r2,1(r3)
    sUart->uiRxBuf_End++; /* move to next index */
 4002f74:	e0bffe17 	ldw	r2,-8(fp)
 4002f78:	10802517 	ldw	r2,148(r2)
 4002f7c:	10c00044 	addi	r3,r2,1
 4002f80:	e0bffe17 	ldw	r2,-8(fp)
 4002f84:	10c02515 	stw	r3,148(r2)
#else
    printf("[MSG]Can't find Uart0 peripheral.\n");
#endif
}
 4002f88:	e037883a 	mov	sp,fp
 4002f8c:	df000017 	ldw	fp,0(sp)
 4002f90:	dec00104 	addi	sp,sp,4
 4002f94:	f800283a 	ret

04002f98 <__fixunssfsi>:
 4002f98:	defffd04 	addi	sp,sp,-12
 4002f9c:	dc000015 	stw	r16,0(sp)
 4002fa0:	0413c034 	movhi	r16,20224
 4002fa4:	800b883a 	mov	r5,r16
 4002fa8:	dc400115 	stw	r17,4(sp)
 4002fac:	dfc00215 	stw	ra,8(sp)
 4002fb0:	2023883a 	mov	r17,r4
 4002fb4:	40033380 	call	4003338 <__gesf2>
 4002fb8:	800b883a 	mov	r5,r16
 4002fbc:	8809883a 	mov	r4,r17
 4002fc0:	10000a16 	blt	r2,zero,4002fec <__fixunssfsi+0x54>
 4002fc4:	40031ec0 	call	40031ec <__subsf3>
 4002fc8:	1009883a 	mov	r4,r2
 4002fcc:	40034280 	call	4003428 <__fixsfsi>
 4002fd0:	00e00034 	movhi	r3,32768
 4002fd4:	10c5883a 	add	r2,r2,r3
 4002fd8:	dfc00217 	ldw	ra,8(sp)
 4002fdc:	dc400117 	ldw	r17,4(sp)
 4002fe0:	dc000017 	ldw	r16,0(sp)
 4002fe4:	dec00304 	addi	sp,sp,12
 4002fe8:	f800283a 	ret
 4002fec:	8809883a 	mov	r4,r17
 4002ff0:	40034280 	call	4003428 <__fixsfsi>
 4002ff4:	dfc00217 	ldw	ra,8(sp)
 4002ff8:	dc400117 	ldw	r17,4(sp)
 4002ffc:	dc000017 	ldw	r16,0(sp)
 4003000:	dec00304 	addi	sp,sp,12
 4003004:	f800283a 	ret

04003008 <_fpadd_parts>:
 4003008:	21c00017 	ldw	r7,0(r4)
 400300c:	02000044 	movi	r8,1
 4003010:	41c0332e 	bgeu	r8,r7,40030e0 <_fpadd_parts+0xd8>
 4003014:	28800017 	ldw	r2,0(r5)
 4003018:	4080462e 	bgeu	r8,r2,4003134 <_fpadd_parts+0x12c>
 400301c:	00c00104 	movi	r3,4
 4003020:	38c06b26 	beq	r7,r3,40031d0 <_fpadd_parts+0x1c8>
 4003024:	10c04326 	beq	r2,r3,4003134 <_fpadd_parts+0x12c>
 4003028:	00c00084 	movi	r3,2
 400302c:	10c02e26 	beq	r2,r3,40030e8 <_fpadd_parts+0xe0>
 4003030:	38c04026 	beq	r7,r3,4003134 <_fpadd_parts+0x12c>
 4003034:	22800217 	ldw	r10,8(r4)
 4003038:	28c00217 	ldw	r3,8(r5)
 400303c:	23000317 	ldw	r12,12(r4)
 4003040:	2a400317 	ldw	r9,12(r5)
 4003044:	50cfc83a 	sub	r7,r10,r3
 4003048:	3817883a 	mov	r11,r7
 400304c:	38004f16 	blt	r7,zero,400318c <_fpadd_parts+0x184>
 4003050:	008007c4 	movi	r2,31
 4003054:	11c03316 	blt	r2,r7,4003124 <_fpadd_parts+0x11c>
 4003058:	02c0540e 	bge	zero,r11,40031ac <_fpadd_parts+0x1a4>
 400305c:	41c4983a 	sll	r2,r8,r7
 4003060:	49c6d83a 	srl	r3,r9,r7
 4003064:	10bfffc4 	addi	r2,r2,-1
 4003068:	4884703a 	and	r2,r9,r2
 400306c:	1004c03a 	cmpne	r2,r2,zero
 4003070:	1892b03a 	or	r9,r3,r2
 4003074:	20c00117 	ldw	r3,4(r4)
 4003078:	28800117 	ldw	r2,4(r5)
 400307c:	18803c26 	beq	r3,r2,4003170 <_fpadd_parts+0x168>
 4003080:	18002f26 	beq	r3,zero,4003140 <_fpadd_parts+0x138>
 4003084:	4b05c83a 	sub	r2,r9,r12
 4003088:	10004216 	blt	r2,zero,4003194 <_fpadd_parts+0x18c>
 400308c:	32800215 	stw	r10,8(r6)
 4003090:	30800315 	stw	r2,12(r6)
 4003094:	30000115 	stw	zero,4(r6)
 4003098:	31000317 	ldw	r4,12(r6)
 400309c:	01d00034 	movhi	r7,16384
 40030a0:	39ffff84 	addi	r7,r7,-2
 40030a4:	20bfffc4 	addi	r2,r4,-1
 40030a8:	2007883a 	mov	r3,r4
 40030ac:	38800836 	bltu	r7,r2,40030d0 <_fpadd_parts+0xc8>
 40030b0:	31400217 	ldw	r5,8(r6)
 40030b4:	18c9883a 	add	r4,r3,r3
 40030b8:	20bfffc4 	addi	r2,r4,-1
 40030bc:	297fffc4 	addi	r5,r5,-1
 40030c0:	2007883a 	mov	r3,r4
 40030c4:	38bffb2e 	bgeu	r7,r2,40030b4 <_fpadd_parts+0xac>
 40030c8:	31400215 	stw	r5,8(r6)
 40030cc:	31000315 	stw	r4,12(r6)
 40030d0:	008000c4 	movi	r2,3
 40030d4:	30800015 	stw	r2,0(r6)
 40030d8:	20001b16 	blt	r4,zero,4003148 <_fpadd_parts+0x140>
 40030dc:	3009883a 	mov	r4,r6
 40030e0:	2005883a 	mov	r2,r4
 40030e4:	f800283a 	ret
 40030e8:	38fffd1e 	bne	r7,r3,40030e0 <_fpadd_parts+0xd8>
 40030ec:	31c00015 	stw	r7,0(r6)
 40030f0:	20800117 	ldw	r2,4(r4)
 40030f4:	30800115 	stw	r2,4(r6)
 40030f8:	20c00217 	ldw	r3,8(r4)
 40030fc:	30c00215 	stw	r3,8(r6)
 4003100:	20800317 	ldw	r2,12(r4)
 4003104:	30800315 	stw	r2,12(r6)
 4003108:	20c00117 	ldw	r3,4(r4)
 400310c:	28800117 	ldw	r2,4(r5)
 4003110:	3009883a 	mov	r4,r6
 4003114:	1886703a 	and	r3,r3,r2
 4003118:	2005883a 	mov	r2,r4
 400311c:	30c00115 	stw	r3,4(r6)
 4003120:	f800283a 	ret
 4003124:	1a801716 	blt	r3,r10,4003184 <_fpadd_parts+0x17c>
 4003128:	1815883a 	mov	r10,r3
 400312c:	0019883a 	mov	r12,zero
 4003130:	003fd006 	br	4003074 <_fpadd_parts+0x6c>
 4003134:	2809883a 	mov	r4,r5
 4003138:	2005883a 	mov	r2,r4
 400313c:	f800283a 	ret
 4003140:	6245c83a 	sub	r2,r12,r9
 4003144:	003fd006 	br	4003088 <_fpadd_parts+0x80>
 4003148:	30800217 	ldw	r2,8(r6)
 400314c:	2006d07a 	srli	r3,r4,1
 4003150:	2100004c 	andi	r4,r4,1
 4003154:	10800044 	addi	r2,r2,1
 4003158:	1906b03a 	or	r3,r3,r4
 400315c:	3009883a 	mov	r4,r6
 4003160:	30800215 	stw	r2,8(r6)
 4003164:	2005883a 	mov	r2,r4
 4003168:	30c00315 	stw	r3,12(r6)
 400316c:	f800283a 	ret
 4003170:	4b09883a 	add	r4,r9,r12
 4003174:	30c00115 	stw	r3,4(r6)
 4003178:	32800215 	stw	r10,8(r6)
 400317c:	31000315 	stw	r4,12(r6)
 4003180:	003fd306 	br	40030d0 <_fpadd_parts+0xc8>
 4003184:	0013883a 	mov	r9,zero
 4003188:	003fba06 	br	4003074 <_fpadd_parts+0x6c>
 400318c:	01cfc83a 	sub	r7,zero,r7
 4003190:	003faf06 	br	4003050 <_fpadd_parts+0x48>
 4003194:	0089c83a 	sub	r4,zero,r2
 4003198:	00800044 	movi	r2,1
 400319c:	30800115 	stw	r2,4(r6)
 40031a0:	32800215 	stw	r10,8(r6)
 40031a4:	31000315 	stw	r4,12(r6)
 40031a8:	003fbb06 	br	4003098 <_fpadd_parts+0x90>
 40031ac:	583fb126 	beq	r11,zero,4003074 <_fpadd_parts+0x6c>
 40031b0:	41c4983a 	sll	r2,r8,r7
 40031b4:	61c6d83a 	srl	r3,r12,r7
 40031b8:	51d5883a 	add	r10,r10,r7
 40031bc:	10bfffc4 	addi	r2,r2,-1
 40031c0:	6084703a 	and	r2,r12,r2
 40031c4:	1004c03a 	cmpne	r2,r2,zero
 40031c8:	1898b03a 	or	r12,r3,r2
 40031cc:	003fa906 	br	4003074 <_fpadd_parts+0x6c>
 40031d0:	11ffc31e 	bne	r2,r7,40030e0 <_fpadd_parts+0xd8>
 40031d4:	28c00117 	ldw	r3,4(r5)
 40031d8:	20800117 	ldw	r2,4(r4)
 40031dc:	10ffc026 	beq	r2,r3,40030e0 <_fpadd_parts+0xd8>
 40031e0:	01010074 	movhi	r4,1025
 40031e4:	21073004 	addi	r4,r4,7360
 40031e8:	003fbd06 	br	40030e0 <_fpadd_parts+0xd8>

040031ec <__subsf3>:
 40031ec:	deffef04 	addi	sp,sp,-68
 40031f0:	dcc00f15 	stw	r19,60(sp)
 40031f4:	dcc00204 	addi	r19,sp,8
 40031f8:	dc400e15 	stw	r17,56(sp)
 40031fc:	d9000015 	stw	r4,0(sp)
 4003200:	d9400115 	stw	r5,4(sp)
 4003204:	d809883a 	mov	r4,sp
 4003208:	980b883a 	mov	r5,r19
 400320c:	dc400604 	addi	r17,sp,24
 4003210:	dfc01015 	stw	ra,64(sp)
 4003214:	40039340 	call	4003934 <__unpack_f>
 4003218:	d9000104 	addi	r4,sp,4
 400321c:	880b883a 	mov	r5,r17
 4003220:	40039340 	call	4003934 <__unpack_f>
 4003224:	d8800717 	ldw	r2,28(sp)
 4003228:	9809883a 	mov	r4,r19
 400322c:	880b883a 	mov	r5,r17
 4003230:	d9800a04 	addi	r6,sp,40
 4003234:	1080005c 	xori	r2,r2,1
 4003238:	d8800715 	stw	r2,28(sp)
 400323c:	40030080 	call	4003008 <_fpadd_parts>
 4003240:	1009883a 	mov	r4,r2
 4003244:	40037d40 	call	40037d4 <__pack_f>
 4003248:	dfc01017 	ldw	ra,64(sp)
 400324c:	dcc00f17 	ldw	r19,60(sp)
 4003250:	dc400e17 	ldw	r17,56(sp)
 4003254:	dec01104 	addi	sp,sp,68
 4003258:	f800283a 	ret

0400325c <__addsf3>:
 400325c:	deffef04 	addi	sp,sp,-68
 4003260:	dcc00f15 	stw	r19,60(sp)
 4003264:	dcc00204 	addi	r19,sp,8
 4003268:	dc400e15 	stw	r17,56(sp)
 400326c:	d9000015 	stw	r4,0(sp)
 4003270:	d9400115 	stw	r5,4(sp)
 4003274:	d809883a 	mov	r4,sp
 4003278:	980b883a 	mov	r5,r19
 400327c:	dc400604 	addi	r17,sp,24
 4003280:	dfc01015 	stw	ra,64(sp)
 4003284:	40039340 	call	4003934 <__unpack_f>
 4003288:	d9000104 	addi	r4,sp,4
 400328c:	880b883a 	mov	r5,r17
 4003290:	40039340 	call	4003934 <__unpack_f>
 4003294:	d9800a04 	addi	r6,sp,40
 4003298:	9809883a 	mov	r4,r19
 400329c:	880b883a 	mov	r5,r17
 40032a0:	40030080 	call	4003008 <_fpadd_parts>
 40032a4:	1009883a 	mov	r4,r2
 40032a8:	40037d40 	call	40037d4 <__pack_f>
 40032ac:	dfc01017 	ldw	ra,64(sp)
 40032b0:	dcc00f17 	ldw	r19,60(sp)
 40032b4:	dc400e17 	ldw	r17,56(sp)
 40032b8:	dec01104 	addi	sp,sp,68
 40032bc:	f800283a 	ret

040032c0 <__gtsf2>:
 40032c0:	defff304 	addi	sp,sp,-52
 40032c4:	dc400b15 	stw	r17,44(sp)
 40032c8:	dc400204 	addi	r17,sp,8
 40032cc:	dc000a15 	stw	r16,40(sp)
 40032d0:	d9000015 	stw	r4,0(sp)
 40032d4:	d9400115 	stw	r5,4(sp)
 40032d8:	d809883a 	mov	r4,sp
 40032dc:	880b883a 	mov	r5,r17
 40032e0:	dc000604 	addi	r16,sp,24
 40032e4:	dfc00c15 	stw	ra,48(sp)
 40032e8:	40039340 	call	4003934 <__unpack_f>
 40032ec:	d9000104 	addi	r4,sp,4
 40032f0:	800b883a 	mov	r5,r16
 40032f4:	40039340 	call	4003934 <__unpack_f>
 40032f8:	d8800217 	ldw	r2,8(sp)
 40032fc:	00c00044 	movi	r3,1
 4003300:	01bfffc4 	movi	r6,-1
 4003304:	1880062e 	bgeu	r3,r2,4003320 <__gtsf2+0x60>
 4003308:	d8800617 	ldw	r2,24(sp)
 400330c:	8809883a 	mov	r4,r17
 4003310:	800b883a 	mov	r5,r16
 4003314:	1880022e 	bgeu	r3,r2,4003320 <__gtsf2+0x60>
 4003318:	40039fc0 	call	40039fc <__fpcmp_parts_f>
 400331c:	100d883a 	mov	r6,r2
 4003320:	3005883a 	mov	r2,r6
 4003324:	dfc00c17 	ldw	ra,48(sp)
 4003328:	dc400b17 	ldw	r17,44(sp)
 400332c:	dc000a17 	ldw	r16,40(sp)
 4003330:	dec00d04 	addi	sp,sp,52
 4003334:	f800283a 	ret

04003338 <__gesf2>:
 4003338:	defff304 	addi	sp,sp,-52
 400333c:	dc400b15 	stw	r17,44(sp)
 4003340:	dc400204 	addi	r17,sp,8
 4003344:	dc000a15 	stw	r16,40(sp)
 4003348:	d9000015 	stw	r4,0(sp)
 400334c:	d9400115 	stw	r5,4(sp)
 4003350:	d809883a 	mov	r4,sp
 4003354:	880b883a 	mov	r5,r17
 4003358:	dc000604 	addi	r16,sp,24
 400335c:	dfc00c15 	stw	ra,48(sp)
 4003360:	40039340 	call	4003934 <__unpack_f>
 4003364:	d9000104 	addi	r4,sp,4
 4003368:	800b883a 	mov	r5,r16
 400336c:	40039340 	call	4003934 <__unpack_f>
 4003370:	d8800217 	ldw	r2,8(sp)
 4003374:	00c00044 	movi	r3,1
 4003378:	01bfffc4 	movi	r6,-1
 400337c:	1880062e 	bgeu	r3,r2,4003398 <__gesf2+0x60>
 4003380:	d8800617 	ldw	r2,24(sp)
 4003384:	8809883a 	mov	r4,r17
 4003388:	800b883a 	mov	r5,r16
 400338c:	1880022e 	bgeu	r3,r2,4003398 <__gesf2+0x60>
 4003390:	40039fc0 	call	40039fc <__fpcmp_parts_f>
 4003394:	100d883a 	mov	r6,r2
 4003398:	3005883a 	mov	r2,r6
 400339c:	dfc00c17 	ldw	ra,48(sp)
 40033a0:	dc400b17 	ldw	r17,44(sp)
 40033a4:	dc000a17 	ldw	r16,40(sp)
 40033a8:	dec00d04 	addi	sp,sp,52
 40033ac:	f800283a 	ret

040033b0 <__ltsf2>:
 40033b0:	defff304 	addi	sp,sp,-52
 40033b4:	dc400b15 	stw	r17,44(sp)
 40033b8:	dc400204 	addi	r17,sp,8
 40033bc:	dc000a15 	stw	r16,40(sp)
 40033c0:	d9000015 	stw	r4,0(sp)
 40033c4:	d9400115 	stw	r5,4(sp)
 40033c8:	d809883a 	mov	r4,sp
 40033cc:	880b883a 	mov	r5,r17
 40033d0:	dc000604 	addi	r16,sp,24
 40033d4:	dfc00c15 	stw	ra,48(sp)
 40033d8:	40039340 	call	4003934 <__unpack_f>
 40033dc:	d9000104 	addi	r4,sp,4
 40033e0:	800b883a 	mov	r5,r16
 40033e4:	40039340 	call	4003934 <__unpack_f>
 40033e8:	d8800217 	ldw	r2,8(sp)
 40033ec:	00c00044 	movi	r3,1
 40033f0:	180d883a 	mov	r6,r3
 40033f4:	1880062e 	bgeu	r3,r2,4003410 <__ltsf2+0x60>
 40033f8:	d8800617 	ldw	r2,24(sp)
 40033fc:	8809883a 	mov	r4,r17
 4003400:	800b883a 	mov	r5,r16
 4003404:	1880022e 	bgeu	r3,r2,4003410 <__ltsf2+0x60>
 4003408:	40039fc0 	call	40039fc <__fpcmp_parts_f>
 400340c:	100d883a 	mov	r6,r2
 4003410:	3005883a 	mov	r2,r6
 4003414:	dfc00c17 	ldw	ra,48(sp)
 4003418:	dc400b17 	ldw	r17,44(sp)
 400341c:	dc000a17 	ldw	r16,40(sp)
 4003420:	dec00d04 	addi	sp,sp,52
 4003424:	f800283a 	ret

04003428 <__fixsfsi>:
 4003428:	defffa04 	addi	sp,sp,-24
 400342c:	d9000015 	stw	r4,0(sp)
 4003430:	d9400104 	addi	r5,sp,4
 4003434:	d809883a 	mov	r4,sp
 4003438:	dfc00515 	stw	ra,20(sp)
 400343c:	40039340 	call	4003934 <__unpack_f>
 4003440:	d8c00117 	ldw	r3,4(sp)
 4003444:	00800084 	movi	r2,2
 4003448:	1880041e 	bne	r3,r2,400345c <__fixsfsi+0x34>
 400344c:	0005883a 	mov	r2,zero
 4003450:	dfc00517 	ldw	ra,20(sp)
 4003454:	dec00604 	addi	sp,sp,24
 4003458:	f800283a 	ret
 400345c:	00800044 	movi	r2,1
 4003460:	10fffa2e 	bgeu	r2,r3,400344c <__fixsfsi+0x24>
 4003464:	00800104 	movi	r2,4
 4003468:	18800426 	beq	r3,r2,400347c <__fixsfsi+0x54>
 400346c:	d8800317 	ldw	r2,12(sp)
 4003470:	103ff616 	blt	r2,zero,400344c <__fixsfsi+0x24>
 4003474:	00c00784 	movi	r3,30
 4003478:	1880070e 	bge	r3,r2,4003498 <__fixsfsi+0x70>
 400347c:	d8800217 	ldw	r2,8(sp)
 4003480:	10000c1e 	bne	r2,zero,40034b4 <__fixsfsi+0x8c>
 4003484:	00a00034 	movhi	r2,32768
 4003488:	10bfffc4 	addi	r2,r2,-1
 400348c:	dfc00517 	ldw	ra,20(sp)
 4003490:	dec00604 	addi	sp,sp,24
 4003494:	f800283a 	ret
 4003498:	1885c83a 	sub	r2,r3,r2
 400349c:	d9000217 	ldw	r4,8(sp)
 40034a0:	d8c00417 	ldw	r3,16(sp)
 40034a4:	1884d83a 	srl	r2,r3,r2
 40034a8:	203fe926 	beq	r4,zero,4003450 <__fixsfsi+0x28>
 40034ac:	0085c83a 	sub	r2,zero,r2
 40034b0:	003fe706 	br	4003450 <__fixsfsi+0x28>
 40034b4:	00a00034 	movhi	r2,32768
 40034b8:	003fe506 	br	4003450 <__fixsfsi+0x28>

040034bc <__extendsfdf2>:
 40034bc:	defff904 	addi	sp,sp,-28
 40034c0:	d9000115 	stw	r4,4(sp)
 40034c4:	d9400204 	addi	r5,sp,8
 40034c8:	d9000104 	addi	r4,sp,4
 40034cc:	dfc00615 	stw	ra,24(sp)
 40034d0:	40039340 	call	4003934 <__unpack_f>
 40034d4:	d9c00517 	ldw	r7,20(sp)
 40034d8:	0011883a 	mov	r8,zero
 40034dc:	400697ba 	slli	r3,r8,30
 40034e0:	3812d0ba 	srli	r9,r7,2
 40034e4:	380497ba 	slli	r2,r7,30
 40034e8:	d9000217 	ldw	r4,8(sp)
 40034ec:	d9400317 	ldw	r5,12(sp)
 40034f0:	d9800417 	ldw	r6,16(sp)
 40034f4:	48c6b03a 	or	r3,r9,r3
 40034f8:	100f883a 	mov	r7,r2
 40034fc:	d8c00015 	stw	r3,0(sp)
 4003500:	40035d00 	call	40035d0 <__make_dp>
 4003504:	dfc00617 	ldw	ra,24(sp)
 4003508:	dec00704 	addi	sp,sp,28
 400350c:	f800283a 	ret

04003510 <__floatunsisf>:
 4003510:	defff904 	addi	sp,sp,-28
 4003514:	dc400515 	stw	r17,20(sp)
 4003518:	dc000415 	stw	r16,16(sp)
 400351c:	dfc00615 	stw	ra,24(sp)
 4003520:	04400784 	movi	r17,30
 4003524:	2021883a 	mov	r16,r4
 4003528:	d8000115 	stw	zero,4(sp)
 400352c:	2000091e 	bne	r4,zero,4003554 <__floatunsisf+0x44>
 4003530:	00800084 	movi	r2,2
 4003534:	d8800015 	stw	r2,0(sp)
 4003538:	d809883a 	mov	r4,sp
 400353c:	40037d40 	call	40037d4 <__pack_f>
 4003540:	dfc00617 	ldw	ra,24(sp)
 4003544:	dc400517 	ldw	r17,20(sp)
 4003548:	dc000417 	ldw	r16,16(sp)
 400354c:	dec00704 	addi	sp,sp,28
 4003550:	f800283a 	ret
 4003554:	008000c4 	movi	r2,3
 4003558:	d9000315 	stw	r4,12(sp)
 400355c:	d8800015 	stw	r2,0(sp)
 4003560:	dc400215 	stw	r17,8(sp)
 4003564:	40037540 	call	4003754 <__clzsi2>
 4003568:	117fffc4 	addi	r5,r2,-1
 400356c:	0147c83a 	sub	r3,zero,r5
 4003570:	00800044 	movi	r2,1
 4003574:	10c4983a 	sll	r2,r2,r3
 4003578:	80c6d83a 	srl	r3,r16,r3
 400357c:	8949c83a 	sub	r4,r17,r5
 4003580:	10bfffc4 	addi	r2,r2,-1
 4003584:	8084703a 	and	r2,r16,r2
 4003588:	1004c03a 	cmpne	r2,r2,zero
 400358c:	1886b03a 	or	r3,r3,r2
 4003590:	28000c16 	blt	r5,zero,40035c4 <__floatunsisf+0xb4>
 4003594:	8144983a 	sll	r2,r16,r5
 4003598:	8947c83a 	sub	r3,r17,r5
 400359c:	283fe626 	beq	r5,zero,4003538 <__floatunsisf+0x28>
 40035a0:	d809883a 	mov	r4,sp
 40035a4:	d8800315 	stw	r2,12(sp)
 40035a8:	d8c00215 	stw	r3,8(sp)
 40035ac:	40037d40 	call	40037d4 <__pack_f>
 40035b0:	dfc00617 	ldw	ra,24(sp)
 40035b4:	dc400517 	ldw	r17,20(sp)
 40035b8:	dc000417 	ldw	r16,16(sp)
 40035bc:	dec00704 	addi	sp,sp,28
 40035c0:	f800283a 	ret
 40035c4:	d8c00315 	stw	r3,12(sp)
 40035c8:	d9000215 	stw	r4,8(sp)
 40035cc:	003fda06 	br	4003538 <__floatunsisf+0x28>

040035d0 <__make_dp>:
 40035d0:	defff904 	addi	sp,sp,-28
 40035d4:	d8c00717 	ldw	r3,28(sp)
 40035d8:	d9000015 	stw	r4,0(sp)
 40035dc:	d809883a 	mov	r4,sp
 40035e0:	dfc00515 	stw	ra,20(sp)
 40035e4:	d9c00615 	stw	r7,24(sp)
 40035e8:	d9400115 	stw	r5,4(sp)
 40035ec:	d9800215 	stw	r6,8(sp)
 40035f0:	d8c00415 	stw	r3,16(sp)
 40035f4:	d9c00315 	stw	r7,12(sp)
 40035f8:	4003aa40 	call	4003aa4 <__pack_d>
 40035fc:	dfc00517 	ldw	ra,20(sp)
 4003600:	dec00704 	addi	sp,sp,28
 4003604:	f800283a 	ret

04003608 <udivmodsi4>:
 4003608:	29001b2e 	bgeu	r5,r4,4003678 <udivmodsi4+0x70>
 400360c:	28001a16 	blt	r5,zero,4003678 <udivmodsi4+0x70>
 4003610:	00800044 	movi	r2,1
 4003614:	0007883a 	mov	r3,zero
 4003618:	01c007c4 	movi	r7,31
 400361c:	00000306 	br	400362c <udivmodsi4+0x24>
 4003620:	19c01326 	beq	r3,r7,4003670 <udivmodsi4+0x68>
 4003624:	18c00044 	addi	r3,r3,1
 4003628:	28000416 	blt	r5,zero,400363c <udivmodsi4+0x34>
 400362c:	294b883a 	add	r5,r5,r5
 4003630:	1085883a 	add	r2,r2,r2
 4003634:	293ffa36 	bltu	r5,r4,4003620 <udivmodsi4+0x18>
 4003638:	10000d26 	beq	r2,zero,4003670 <udivmodsi4+0x68>
 400363c:	0007883a 	mov	r3,zero
 4003640:	21400236 	bltu	r4,r5,400364c <udivmodsi4+0x44>
 4003644:	2149c83a 	sub	r4,r4,r5
 4003648:	1886b03a 	or	r3,r3,r2
 400364c:	1004d07a 	srli	r2,r2,1
 4003650:	280ad07a 	srli	r5,r5,1
 4003654:	103ffa1e 	bne	r2,zero,4003640 <udivmodsi4+0x38>
 4003658:	30000226 	beq	r6,zero,4003664 <udivmodsi4+0x5c>
 400365c:	2005883a 	mov	r2,r4
 4003660:	f800283a 	ret
 4003664:	1809883a 	mov	r4,r3
 4003668:	2005883a 	mov	r2,r4
 400366c:	f800283a 	ret
 4003670:	0007883a 	mov	r3,zero
 4003674:	003ff806 	br	4003658 <udivmodsi4+0x50>
 4003678:	00800044 	movi	r2,1
 400367c:	0007883a 	mov	r3,zero
 4003680:	003fef06 	br	4003640 <udivmodsi4+0x38>

04003684 <__divsi3>:
 4003684:	defffe04 	addi	sp,sp,-8
 4003688:	dc000015 	stw	r16,0(sp)
 400368c:	dfc00115 	stw	ra,4(sp)
 4003690:	0021883a 	mov	r16,zero
 4003694:	20000c16 	blt	r4,zero,40036c8 <__divsi3+0x44>
 4003698:	000d883a 	mov	r6,zero
 400369c:	28000e16 	blt	r5,zero,40036d8 <__divsi3+0x54>
 40036a0:	40036080 	call	4003608 <udivmodsi4>
 40036a4:	1007883a 	mov	r3,r2
 40036a8:	8005003a 	cmpeq	r2,r16,zero
 40036ac:	1000011e 	bne	r2,zero,40036b4 <__divsi3+0x30>
 40036b0:	00c7c83a 	sub	r3,zero,r3
 40036b4:	1805883a 	mov	r2,r3
 40036b8:	dfc00117 	ldw	ra,4(sp)
 40036bc:	dc000017 	ldw	r16,0(sp)
 40036c0:	dec00204 	addi	sp,sp,8
 40036c4:	f800283a 	ret
 40036c8:	0109c83a 	sub	r4,zero,r4
 40036cc:	04000044 	movi	r16,1
 40036d0:	000d883a 	mov	r6,zero
 40036d4:	283ff20e 	bge	r5,zero,40036a0 <__divsi3+0x1c>
 40036d8:	014bc83a 	sub	r5,zero,r5
 40036dc:	8021003a 	cmpeq	r16,r16,zero
 40036e0:	003fef06 	br	40036a0 <__divsi3+0x1c>

040036e4 <__modsi3>:
 40036e4:	deffff04 	addi	sp,sp,-4
 40036e8:	dfc00015 	stw	ra,0(sp)
 40036ec:	01800044 	movi	r6,1
 40036f0:	2807883a 	mov	r3,r5
 40036f4:	20000416 	blt	r4,zero,4003708 <__modsi3+0x24>
 40036f8:	28000c16 	blt	r5,zero,400372c <__modsi3+0x48>
 40036fc:	dfc00017 	ldw	ra,0(sp)
 4003700:	dec00104 	addi	sp,sp,4
 4003704:	40036081 	jmpi	4003608 <udivmodsi4>
 4003708:	0109c83a 	sub	r4,zero,r4
 400370c:	28000b16 	blt	r5,zero,400373c <__modsi3+0x58>
 4003710:	180b883a 	mov	r5,r3
 4003714:	01800044 	movi	r6,1
 4003718:	40036080 	call	4003608 <udivmodsi4>
 400371c:	0085c83a 	sub	r2,zero,r2
 4003720:	dfc00017 	ldw	ra,0(sp)
 4003724:	dec00104 	addi	sp,sp,4
 4003728:	f800283a 	ret
 400372c:	014bc83a 	sub	r5,zero,r5
 4003730:	dfc00017 	ldw	ra,0(sp)
 4003734:	dec00104 	addi	sp,sp,4
 4003738:	40036081 	jmpi	4003608 <udivmodsi4>
 400373c:	0147c83a 	sub	r3,zero,r5
 4003740:	003ff306 	br	4003710 <__modsi3+0x2c>

04003744 <__udivsi3>:
 4003744:	000d883a 	mov	r6,zero
 4003748:	40036081 	jmpi	4003608 <udivmodsi4>

0400374c <__umodsi3>:
 400374c:	01800044 	movi	r6,1
 4003750:	40036081 	jmpi	4003608 <udivmodsi4>

04003754 <__clzsi2>:
 4003754:	00bfffd4 	movui	r2,65535
 4003758:	11000e36 	bltu	r2,r4,4003794 <__clzsi2+0x40>
 400375c:	00803fc4 	movi	r2,255
 4003760:	01400204 	movi	r5,8
 4003764:	0007883a 	mov	r3,zero
 4003768:	11001036 	bltu	r2,r4,40037ac <__clzsi2+0x58>
 400376c:	000b883a 	mov	r5,zero
 4003770:	20c6d83a 	srl	r3,r4,r3
 4003774:	00810074 	movhi	r2,1025
 4003778:	10873404 	addi	r2,r2,7376
 400377c:	1887883a 	add	r3,r3,r2
 4003780:	18800003 	ldbu	r2,0(r3)
 4003784:	00c00804 	movi	r3,32
 4003788:	2885883a 	add	r2,r5,r2
 400378c:	1885c83a 	sub	r2,r3,r2
 4003790:	f800283a 	ret
 4003794:	01400404 	movi	r5,16
 4003798:	00804034 	movhi	r2,256
 400379c:	10bfffc4 	addi	r2,r2,-1
 40037a0:	2807883a 	mov	r3,r5
 40037a4:	113ff22e 	bgeu	r2,r4,4003770 <__clzsi2+0x1c>
 40037a8:	01400604 	movi	r5,24
 40037ac:	2807883a 	mov	r3,r5
 40037b0:	20c6d83a 	srl	r3,r4,r3
 40037b4:	00810074 	movhi	r2,1025
 40037b8:	10873404 	addi	r2,r2,7376
 40037bc:	1887883a 	add	r3,r3,r2
 40037c0:	18800003 	ldbu	r2,0(r3)
 40037c4:	00c00804 	movi	r3,32
 40037c8:	2885883a 	add	r2,r5,r2
 40037cc:	1885c83a 	sub	r2,r3,r2
 40037d0:	f800283a 	ret

040037d4 <__pack_f>:
 40037d4:	20c00017 	ldw	r3,0(r4)
 40037d8:	01c00044 	movi	r7,1
 40037dc:	21800317 	ldw	r6,12(r4)
 40037e0:	21400117 	ldw	r5,4(r4)
 40037e4:	38c02d2e 	bgeu	r7,r3,400389c <__pack_f+0xc8>
 40037e8:	00800104 	movi	r2,4
 40037ec:	18802826 	beq	r3,r2,4003890 <__pack_f+0xbc>
 40037f0:	00800084 	movi	r2,2
 40037f4:	18800126 	beq	r3,r2,40037fc <__pack_f+0x28>
 40037f8:	3000101e 	bne	r6,zero,400383c <__pack_f+0x68>
 40037fc:	000d883a 	mov	r6,zero
 4003800:	0007883a 	mov	r3,zero
 4003804:	19003fcc 	andi	r4,r3,255
 4003808:	200895fa 	slli	r4,r4,23
 400380c:	00c02034 	movhi	r3,128
 4003810:	18ffffc4 	addi	r3,r3,-1
 4003814:	30c6703a 	and	r3,r6,r3
 4003818:	10a0002c 	andhi	r2,r2,32768
 400381c:	10c4b03a 	or	r2,r2,r3
 4003820:	280a97fa 	slli	r5,r5,31
 4003824:	1104b03a 	or	r2,r2,r4
 4003828:	00e00034 	movhi	r3,32768
 400382c:	18ffffc4 	addi	r3,r3,-1
 4003830:	10c4703a 	and	r2,r2,r3
 4003834:	1144b03a 	or	r2,r2,r5
 4003838:	f800283a 	ret
 400383c:	21000217 	ldw	r4,8(r4)
 4003840:	00bfe084 	movi	r2,-126
 4003844:	20801b16 	blt	r4,r2,40038b4 <__pack_f+0xe0>
 4003848:	00801fc4 	movi	r2,127
 400384c:	11001016 	blt	r2,r4,4003890 <__pack_f+0xbc>
 4003850:	308e703a 	and	r7,r6,r2
 4003854:	2087883a 	add	r3,r4,r2
 4003858:	00801004 	movi	r2,64
 400385c:	38800526 	beq	r7,r2,4003874 <__pack_f+0xa0>
 4003860:	31800fc4 	addi	r6,r6,63
 4003864:	30000716 	blt	r6,zero,4003884 <__pack_f+0xb0>
 4003868:	300490ba 	slli	r2,r6,2
 400386c:	100cd27a 	srli	r6,r2,9
 4003870:	003fe406 	br	4003804 <__pack_f+0x30>
 4003874:	3080200c 	andi	r2,r6,128
 4003878:	103ffa26 	beq	r2,zero,4003864 <__pack_f+0x90>
 400387c:	31cd883a 	add	r6,r6,r7
 4003880:	003ff806 	br	4003864 <__pack_f+0x90>
 4003884:	300cd07a 	srli	r6,r6,1
 4003888:	18c00044 	addi	r3,r3,1
 400388c:	003ff606 	br	4003868 <__pack_f+0x94>
 4003890:	000d883a 	mov	r6,zero
 4003894:	00ffffc4 	movi	r3,-1
 4003898:	003fda06 	br	4003804 <__pack_f+0x30>
 400389c:	31800434 	orhi	r6,r6,16
 40038a0:	00802034 	movhi	r2,128
 40038a4:	10bfffc4 	addi	r2,r2,-1
 40038a8:	308c703a 	and	r6,r6,r2
 40038ac:	00ffffc4 	movi	r3,-1
 40038b0:	003fd406 	br	4003804 <__pack_f+0x30>
 40038b4:	1109c83a 	sub	r4,r2,r4
 40038b8:	00800644 	movi	r2,25
 40038bc:	11001216 	blt	r2,r4,4003908 <__pack_f+0x134>
 40038c0:	3904983a 	sll	r2,r7,r4
 40038c4:	3106d83a 	srl	r3,r6,r4
 40038c8:	10bfffc4 	addi	r2,r2,-1
 40038cc:	3084703a 	and	r2,r6,r2
 40038d0:	1004c03a 	cmpne	r2,r2,zero
 40038d4:	1886b03a 	or	r3,r3,r2
 40038d8:	19001fcc 	andi	r4,r3,127
 40038dc:	00801004 	movi	r2,64
 40038e0:	20800c26 	beq	r4,r2,4003914 <__pack_f+0x140>
 40038e4:	18c00fc4 	addi	r3,r3,63
 40038e8:	00900034 	movhi	r2,16384
 40038ec:	10bfffc4 	addi	r2,r2,-1
 40038f0:	180cd1fa 	srli	r6,r3,7
 40038f4:	10c7803a 	cmpltu	r3,r2,r3
 40038f8:	00802034 	movhi	r2,128
 40038fc:	10bfffc4 	addi	r2,r2,-1
 4003900:	308c703a 	and	r6,r6,r2
 4003904:	003fbf06 	br	4003804 <__pack_f+0x30>
 4003908:	0007883a 	mov	r3,zero
 400390c:	000d883a 	mov	r6,zero
 4003910:	003ff906 	br	40038f8 <__pack_f+0x124>
 4003914:	1880200c 	andi	r2,r3,128
 4003918:	10000126 	beq	r2,zero,4003920 <__pack_f+0x14c>
 400391c:	1907883a 	add	r3,r3,r4
 4003920:	180cd1fa 	srli	r6,r3,7
 4003924:	00900034 	movhi	r2,16384
 4003928:	10bfffc4 	addi	r2,r2,-1
 400392c:	10c7803a 	cmpltu	r3,r2,r3
 4003930:	003ff106 	br	40038f8 <__pack_f+0x124>

04003934 <__unpack_f>:
 4003934:	21800017 	ldw	r6,0(r4)
 4003938:	00c02034 	movhi	r3,128
 400393c:	18ffffc4 	addi	r3,r3,-1
 4003940:	3004d5fa 	srli	r2,r6,23
 4003944:	3008d7fa 	srli	r4,r6,31
 4003948:	30ce703a 	and	r7,r6,r3
 400394c:	10c03fcc 	andi	r3,r2,255
 4003950:	29000115 	stw	r4,4(r5)
 4003954:	1800131e 	bne	r3,zero,40039a4 <__unpack_f+0x70>
 4003958:	38000f26 	beq	r7,zero,4003998 <__unpack_f+0x64>
 400395c:	380691fa 	slli	r3,r7,7
 4003960:	01bfe084 	movi	r6,-126
 4003964:	008000c4 	movi	r2,3
 4003968:	01100034 	movhi	r4,16384
 400396c:	213fffc4 	addi	r4,r4,-1
 4003970:	28800015 	stw	r2,0(r5)
 4003974:	29800215 	stw	r6,8(r5)
 4003978:	20c00536 	bltu	r4,r3,4003990 <__unpack_f+0x5c>
 400397c:	3005883a 	mov	r2,r6
 4003980:	18c7883a 	add	r3,r3,r3
 4003984:	10bfffc4 	addi	r2,r2,-1
 4003988:	20fffd2e 	bgeu	r4,r3,4003980 <__unpack_f+0x4c>
 400398c:	28800215 	stw	r2,8(r5)
 4003990:	28c00315 	stw	r3,12(r5)
 4003994:	f800283a 	ret
 4003998:	00800084 	movi	r2,2
 400399c:	28800015 	stw	r2,0(r5)
 40039a0:	f800283a 	ret
 40039a4:	00803fc4 	movi	r2,255
 40039a8:	18800826 	beq	r3,r2,40039cc <__unpack_f+0x98>
 40039ac:	380491fa 	slli	r2,r7,7
 40039b0:	18ffe044 	addi	r3,r3,-127
 40039b4:	28c00215 	stw	r3,8(r5)
 40039b8:	10900034 	orhi	r2,r2,16384
 40039bc:	28800315 	stw	r2,12(r5)
 40039c0:	008000c4 	movi	r2,3
 40039c4:	28800015 	stw	r2,0(r5)
 40039c8:	f800283a 	ret
 40039cc:	3800031e 	bne	r7,zero,40039dc <__unpack_f+0xa8>
 40039d0:	00800104 	movi	r2,4
 40039d4:	28800015 	stw	r2,0(r5)
 40039d8:	f800283a 	ret
 40039dc:	3080042c 	andhi	r2,r6,16
 40039e0:	10000426 	beq	r2,zero,40039f4 <__unpack_f+0xc0>
 40039e4:	00800044 	movi	r2,1
 40039e8:	28800015 	stw	r2,0(r5)
 40039ec:	29c00315 	stw	r7,12(r5)
 40039f0:	f800283a 	ret
 40039f4:	28000015 	stw	zero,0(r5)
 40039f8:	003ffc06 	br	40039ec <__unpack_f+0xb8>

040039fc <__fpcmp_parts_f>:
 40039fc:	21800017 	ldw	r6,0(r4)
 4003a00:	00c00044 	movi	r3,1
 4003a04:	19800a2e 	bgeu	r3,r6,4003a30 <__fpcmp_parts_f+0x34>
 4003a08:	28800017 	ldw	r2,0(r5)
 4003a0c:	1880082e 	bgeu	r3,r2,4003a30 <__fpcmp_parts_f+0x34>
 4003a10:	00c00104 	movi	r3,4
 4003a14:	30c01e26 	beq	r6,r3,4003a90 <__fpcmp_parts_f+0x94>
 4003a18:	10c01a26 	beq	r2,r3,4003a84 <__fpcmp_parts_f+0x88>
 4003a1c:	00c00084 	movi	r3,2
 4003a20:	30c00526 	beq	r6,r3,4003a38 <__fpcmp_parts_f+0x3c>
 4003a24:	10c0071e 	bne	r2,r3,4003a44 <__fpcmp_parts_f+0x48>
 4003a28:	20800117 	ldw	r2,4(r4)
 4003a2c:	1000091e 	bne	r2,zero,4003a54 <__fpcmp_parts_f+0x58>
 4003a30:	00800044 	movi	r2,1
 4003a34:	f800283a 	ret
 4003a38:	10c0121e 	bne	r2,r3,4003a84 <__fpcmp_parts_f+0x88>
 4003a3c:	0005883a 	mov	r2,zero
 4003a40:	f800283a 	ret
 4003a44:	20c00117 	ldw	r3,4(r4)
 4003a48:	28800117 	ldw	r2,4(r5)
 4003a4c:	18800326 	beq	r3,r2,4003a5c <__fpcmp_parts_f+0x60>
 4003a50:	183ff726 	beq	r3,zero,4003a30 <__fpcmp_parts_f+0x34>
 4003a54:	00bfffc4 	movi	r2,-1
 4003a58:	f800283a 	ret
 4003a5c:	21800217 	ldw	r6,8(r4)
 4003a60:	28800217 	ldw	r2,8(r5)
 4003a64:	11bffa16 	blt	r2,r6,4003a50 <__fpcmp_parts_f+0x54>
 4003a68:	30800416 	blt	r6,r2,4003a7c <__fpcmp_parts_f+0x80>
 4003a6c:	21000317 	ldw	r4,12(r4)
 4003a70:	29400317 	ldw	r5,12(r5)
 4003a74:	293ff636 	bltu	r5,r4,4003a50 <__fpcmp_parts_f+0x54>
 4003a78:	217ff02e 	bgeu	r4,r5,4003a3c <__fpcmp_parts_f+0x40>
 4003a7c:	183fec1e 	bne	r3,zero,4003a30 <__fpcmp_parts_f+0x34>
 4003a80:	003ff406 	br	4003a54 <__fpcmp_parts_f+0x58>
 4003a84:	28800117 	ldw	r2,4(r5)
 4003a88:	103fe91e 	bne	r2,zero,4003a30 <__fpcmp_parts_f+0x34>
 4003a8c:	003ff106 	br	4003a54 <__fpcmp_parts_f+0x58>
 4003a90:	11bfe51e 	bne	r2,r6,4003a28 <__fpcmp_parts_f+0x2c>
 4003a94:	28c00117 	ldw	r3,4(r5)
 4003a98:	20800117 	ldw	r2,4(r4)
 4003a9c:	1885c83a 	sub	r2,r3,r2
 4003aa0:	f800283a 	ret

04003aa4 <__pack_d>:
 4003aa4:	20c00017 	ldw	r3,0(r4)
 4003aa8:	defffd04 	addi	sp,sp,-12
 4003aac:	dc000015 	stw	r16,0(sp)
 4003ab0:	dc800215 	stw	r18,8(sp)
 4003ab4:	dc400115 	stw	r17,4(sp)
 4003ab8:	00800044 	movi	r2,1
 4003abc:	22000317 	ldw	r8,12(r4)
 4003ac0:	001f883a 	mov	r15,zero
 4003ac4:	22400417 	ldw	r9,16(r4)
 4003ac8:	24000117 	ldw	r16,4(r4)
 4003acc:	10c0552e 	bgeu	r2,r3,4003c24 <__pack_d+0x180>
 4003ad0:	00800104 	movi	r2,4
 4003ad4:	18804f26 	beq	r3,r2,4003c14 <__pack_d+0x170>
 4003ad8:	00800084 	movi	r2,2
 4003adc:	18800226 	beq	r3,r2,4003ae8 <__pack_d+0x44>
 4003ae0:	4244b03a 	or	r2,r8,r9
 4003ae4:	10001a1e 	bne	r2,zero,4003b50 <__pack_d+0xac>
 4003ae8:	000d883a 	mov	r6,zero
 4003aec:	000f883a 	mov	r7,zero
 4003af0:	0011883a 	mov	r8,zero
 4003af4:	00800434 	movhi	r2,16
 4003af8:	10bfffc4 	addi	r2,r2,-1
 4003afc:	301d883a 	mov	r14,r6
 4003b00:	3884703a 	and	r2,r7,r2
 4003b04:	400a953a 	slli	r5,r8,20
 4003b08:	79bffc2c 	andhi	r6,r15,65520
 4003b0c:	308cb03a 	or	r6,r6,r2
 4003b10:	00e00434 	movhi	r3,32784
 4003b14:	18ffffc4 	addi	r3,r3,-1
 4003b18:	800497fa 	slli	r2,r16,31
 4003b1c:	30c6703a 	and	r3,r6,r3
 4003b20:	1946b03a 	or	r3,r3,r5
 4003b24:	01600034 	movhi	r5,32768
 4003b28:	297fffc4 	addi	r5,r5,-1
 4003b2c:	194a703a 	and	r5,r3,r5
 4003b30:	288ab03a 	or	r5,r5,r2
 4003b34:	2807883a 	mov	r3,r5
 4003b38:	7005883a 	mov	r2,r14
 4003b3c:	dc800217 	ldw	r18,8(sp)
 4003b40:	dc400117 	ldw	r17,4(sp)
 4003b44:	dc000017 	ldw	r16,0(sp)
 4003b48:	dec00304 	addi	sp,sp,12
 4003b4c:	f800283a 	ret
 4003b50:	21000217 	ldw	r4,8(r4)
 4003b54:	00bf0084 	movi	r2,-1022
 4003b58:	20803f16 	blt	r4,r2,4003c58 <__pack_d+0x1b4>
 4003b5c:	0080ffc4 	movi	r2,1023
 4003b60:	11002c16 	blt	r2,r4,4003c14 <__pack_d+0x170>
 4003b64:	00803fc4 	movi	r2,255
 4003b68:	408c703a 	and	r6,r8,r2
 4003b6c:	00802004 	movi	r2,128
 4003b70:	0007883a 	mov	r3,zero
 4003b74:	000f883a 	mov	r7,zero
 4003b78:	2280ffc4 	addi	r10,r4,1023
 4003b7c:	30801e26 	beq	r6,r2,4003bf8 <__pack_d+0x154>
 4003b80:	00801fc4 	movi	r2,127
 4003b84:	4089883a 	add	r4,r8,r2
 4003b88:	220d803a 	cmpltu	r6,r4,r8
 4003b8c:	324d883a 	add	r6,r6,r9
 4003b90:	2011883a 	mov	r8,r4
 4003b94:	3013883a 	mov	r9,r6
 4003b98:	00880034 	movhi	r2,8192
 4003b9c:	10bfffc4 	addi	r2,r2,-1
 4003ba0:	12400d36 	bltu	r2,r9,4003bd8 <__pack_d+0x134>
 4003ba4:	4804963a 	slli	r2,r9,24
 4003ba8:	400cd23a 	srli	r6,r8,8
 4003bac:	480ed23a 	srli	r7,r9,8
 4003bb0:	013fffc4 	movi	r4,-1
 4003bb4:	118cb03a 	or	r6,r2,r6
 4003bb8:	01400434 	movhi	r5,16
 4003bbc:	297fffc4 	addi	r5,r5,-1
 4003bc0:	3104703a 	and	r2,r6,r4
 4003bc4:	3946703a 	and	r3,r7,r5
 4003bc8:	5201ffcc 	andi	r8,r10,2047
 4003bcc:	100d883a 	mov	r6,r2
 4003bd0:	180f883a 	mov	r7,r3
 4003bd4:	003fc706 	br	4003af4 <__pack_d+0x50>
 4003bd8:	480897fa 	slli	r4,r9,31
 4003bdc:	4004d07a 	srli	r2,r8,1
 4003be0:	4806d07a 	srli	r3,r9,1
 4003be4:	52800044 	addi	r10,r10,1
 4003be8:	2084b03a 	or	r2,r4,r2
 4003bec:	1011883a 	mov	r8,r2
 4003bf0:	1813883a 	mov	r9,r3
 4003bf4:	003feb06 	br	4003ba4 <__pack_d+0x100>
 4003bf8:	383fe11e 	bne	r7,zero,4003b80 <__pack_d+0xdc>
 4003bfc:	01004004 	movi	r4,256
 4003c00:	4104703a 	and	r2,r8,r4
 4003c04:	10c4b03a 	or	r2,r2,r3
 4003c08:	103fe326 	beq	r2,zero,4003b98 <__pack_d+0xf4>
 4003c0c:	3005883a 	mov	r2,r6
 4003c10:	003fdc06 	br	4003b84 <__pack_d+0xe0>
 4003c14:	000d883a 	mov	r6,zero
 4003c18:	000f883a 	mov	r7,zero
 4003c1c:	0201ffc4 	movi	r8,2047
 4003c20:	003fb406 	br	4003af4 <__pack_d+0x50>
 4003c24:	0005883a 	mov	r2,zero
 4003c28:	00c00234 	movhi	r3,8
 4003c2c:	408cb03a 	or	r6,r8,r2
 4003c30:	48ceb03a 	or	r7,r9,r3
 4003c34:	013fffc4 	movi	r4,-1
 4003c38:	01400434 	movhi	r5,16
 4003c3c:	297fffc4 	addi	r5,r5,-1
 4003c40:	3104703a 	and	r2,r6,r4
 4003c44:	3946703a 	and	r3,r7,r5
 4003c48:	100d883a 	mov	r6,r2
 4003c4c:	180f883a 	mov	r7,r3
 4003c50:	0201ffc4 	movi	r8,2047
 4003c54:	003fa706 	br	4003af4 <__pack_d+0x50>
 4003c58:	1109c83a 	sub	r4,r2,r4
 4003c5c:	00800e04 	movi	r2,56
 4003c60:	11004316 	blt	r2,r4,4003d70 <__pack_d+0x2cc>
 4003c64:	21fff804 	addi	r7,r4,-32
 4003c68:	38004516 	blt	r7,zero,4003d80 <__pack_d+0x2dc>
 4003c6c:	49d8d83a 	srl	r12,r9,r7
 4003c70:	001b883a 	mov	r13,zero
 4003c74:	0023883a 	mov	r17,zero
 4003c78:	01400044 	movi	r5,1
 4003c7c:	0025883a 	mov	r18,zero
 4003c80:	38004716 	blt	r7,zero,4003da0 <__pack_d+0x2fc>
 4003c84:	29d6983a 	sll	r11,r5,r7
 4003c88:	0015883a 	mov	r10,zero
 4003c8c:	00bfffc4 	movi	r2,-1
 4003c90:	5089883a 	add	r4,r10,r2
 4003c94:	588b883a 	add	r5,r11,r2
 4003c98:	228d803a 	cmpltu	r6,r4,r10
 4003c9c:	314b883a 	add	r5,r6,r5
 4003ca0:	4104703a 	and	r2,r8,r4
 4003ca4:	4946703a 	and	r3,r9,r5
 4003ca8:	10c4b03a 	or	r2,r2,r3
 4003cac:	10000226 	beq	r2,zero,4003cb8 <__pack_d+0x214>
 4003cb0:	04400044 	movi	r17,1
 4003cb4:	0025883a 	mov	r18,zero
 4003cb8:	00803fc4 	movi	r2,255
 4003cbc:	644eb03a 	or	r7,r12,r17
 4003cc0:	3892703a 	and	r9,r7,r2
 4003cc4:	00802004 	movi	r2,128
 4003cc8:	6c90b03a 	or	r8,r13,r18
 4003ccc:	0015883a 	mov	r10,zero
 4003cd0:	48801626 	beq	r9,r2,4003d2c <__pack_d+0x288>
 4003cd4:	01001fc4 	movi	r4,127
 4003cd8:	3905883a 	add	r2,r7,r4
 4003cdc:	11cd803a 	cmpltu	r6,r2,r7
 4003ce0:	320d883a 	add	r6,r6,r8
 4003ce4:	100f883a 	mov	r7,r2
 4003ce8:	00840034 	movhi	r2,4096
 4003cec:	10bfffc4 	addi	r2,r2,-1
 4003cf0:	3011883a 	mov	r8,r6
 4003cf4:	0007883a 	mov	r3,zero
 4003cf8:	11801b36 	bltu	r2,r6,4003d68 <__pack_d+0x2c4>
 4003cfc:	4004963a 	slli	r2,r8,24
 4003d00:	3808d23a 	srli	r4,r7,8
 4003d04:	400ad23a 	srli	r5,r8,8
 4003d08:	1813883a 	mov	r9,r3
 4003d0c:	1108b03a 	or	r4,r2,r4
 4003d10:	00bfffc4 	movi	r2,-1
 4003d14:	00c00434 	movhi	r3,16
 4003d18:	18ffffc4 	addi	r3,r3,-1
 4003d1c:	208c703a 	and	r6,r4,r2
 4003d20:	28ce703a 	and	r7,r5,r3
 4003d24:	4a01ffcc 	andi	r8,r9,2047
 4003d28:	003f7206 	br	4003af4 <__pack_d+0x50>
 4003d2c:	503fe91e 	bne	r10,zero,4003cd4 <__pack_d+0x230>
 4003d30:	01004004 	movi	r4,256
 4003d34:	3904703a 	and	r2,r7,r4
 4003d38:	0007883a 	mov	r3,zero
 4003d3c:	10c4b03a 	or	r2,r2,r3
 4003d40:	10000626 	beq	r2,zero,4003d5c <__pack_d+0x2b8>
 4003d44:	3a45883a 	add	r2,r7,r9
 4003d48:	11cd803a 	cmpltu	r6,r2,r7
 4003d4c:	320d883a 	add	r6,r6,r8
 4003d50:	100f883a 	mov	r7,r2
 4003d54:	3011883a 	mov	r8,r6
 4003d58:	0007883a 	mov	r3,zero
 4003d5c:	00840034 	movhi	r2,4096
 4003d60:	10bfffc4 	addi	r2,r2,-1
 4003d64:	123fe52e 	bgeu	r2,r8,4003cfc <__pack_d+0x258>
 4003d68:	00c00044 	movi	r3,1
 4003d6c:	003fe306 	br	4003cfc <__pack_d+0x258>
 4003d70:	0009883a 	mov	r4,zero
 4003d74:	0013883a 	mov	r9,zero
 4003d78:	000b883a 	mov	r5,zero
 4003d7c:	003fe406 	br	4003d10 <__pack_d+0x26c>
 4003d80:	4a47883a 	add	r3,r9,r9
 4003d84:	008007c4 	movi	r2,31
 4003d88:	1105c83a 	sub	r2,r2,r4
 4003d8c:	1886983a 	sll	r3,r3,r2
 4003d90:	4118d83a 	srl	r12,r8,r4
 4003d94:	491ad83a 	srl	r13,r9,r4
 4003d98:	1b18b03a 	or	r12,r3,r12
 4003d9c:	003fb506 	br	4003c74 <__pack_d+0x1d0>
 4003da0:	2806d07a 	srli	r3,r5,1
 4003da4:	008007c4 	movi	r2,31
 4003da8:	1105c83a 	sub	r2,r2,r4
 4003dac:	1896d83a 	srl	r11,r3,r2
 4003db0:	2914983a 	sll	r10,r5,r4
 4003db4:	003fb506 	br	4003c8c <__pack_d+0x1e8>

04003db8 <printf>:
 4003db8:	defffb04 	addi	sp,sp,-20
 4003dbc:	dfc00115 	stw	ra,4(sp)
 4003dc0:	d9400215 	stw	r5,8(sp)
 4003dc4:	d9800315 	stw	r6,12(sp)
 4003dc8:	d9c00415 	stw	r7,16(sp)
 4003dcc:	00810074 	movhi	r2,1025
 4003dd0:	108ef704 	addi	r2,r2,15324
 4003dd4:	10c00017 	ldw	r3,0(r2)
 4003dd8:	200b883a 	mov	r5,r4
 4003ddc:	d8800204 	addi	r2,sp,8
 4003de0:	19000217 	ldw	r4,8(r3)
 4003de4:	100d883a 	mov	r6,r2
 4003de8:	d8800015 	stw	r2,0(sp)
 4003dec:	4005e5c0 	call	4005e5c <__vfprintf_internal>
 4003df0:	dfc00117 	ldw	ra,4(sp)
 4003df4:	dec00504 	addi	sp,sp,20
 4003df8:	f800283a 	ret

04003dfc <_printf_r>:
 4003dfc:	defffc04 	addi	sp,sp,-16
 4003e00:	dfc00115 	stw	ra,4(sp)
 4003e04:	d9800215 	stw	r6,8(sp)
 4003e08:	d9c00315 	stw	r7,12(sp)
 4003e0c:	280d883a 	mov	r6,r5
 4003e10:	21400217 	ldw	r5,8(r4)
 4003e14:	d8c00204 	addi	r3,sp,8
 4003e18:	180f883a 	mov	r7,r3
 4003e1c:	d8c00015 	stw	r3,0(sp)
 4003e20:	4003fb00 	call	4003fb0 <___vfprintf_internal_r>
 4003e24:	dfc00117 	ldw	ra,4(sp)
 4003e28:	dec00404 	addi	sp,sp,16
 4003e2c:	f800283a 	ret

04003e30 <_puts_r>:
 4003e30:	defff604 	addi	sp,sp,-40
 4003e34:	dc400715 	stw	r17,28(sp)
 4003e38:	2023883a 	mov	r17,r4
 4003e3c:	2809883a 	mov	r4,r5
 4003e40:	dfc00915 	stw	ra,36(sp)
 4003e44:	dcc00815 	stw	r19,32(sp)
 4003e48:	2827883a 	mov	r19,r5
 4003e4c:	4003ee40 	call	4003ee4 <strlen>
 4003e50:	89400217 	ldw	r5,8(r17)
 4003e54:	00c10074 	movhi	r3,1025
 4003e58:	18c77404 	addi	r3,r3,7632
 4003e5c:	01c00044 	movi	r7,1
 4003e60:	12000044 	addi	r8,r2,1
 4003e64:	d8c00515 	stw	r3,20(sp)
 4003e68:	d9c00615 	stw	r7,24(sp)
 4003e6c:	d8c00304 	addi	r3,sp,12
 4003e70:	01c00084 	movi	r7,2
 4003e74:	8809883a 	mov	r4,r17
 4003e78:	d80d883a 	mov	r6,sp
 4003e7c:	d8c00015 	stw	r3,0(sp)
 4003e80:	dcc00315 	stw	r19,12(sp)
 4003e84:	da000215 	stw	r8,8(sp)
 4003e88:	d9c00115 	stw	r7,4(sp)
 4003e8c:	d8800415 	stw	r2,16(sp)
 4003e90:	40080b80 	call	40080b8 <__sfvwrite_r>
 4003e94:	00ffffc4 	movi	r3,-1
 4003e98:	10000626 	beq	r2,zero,4003eb4 <_puts_r+0x84>
 4003e9c:	1805883a 	mov	r2,r3
 4003ea0:	dfc00917 	ldw	ra,36(sp)
 4003ea4:	dcc00817 	ldw	r19,32(sp)
 4003ea8:	dc400717 	ldw	r17,28(sp)
 4003eac:	dec00a04 	addi	sp,sp,40
 4003eb0:	f800283a 	ret
 4003eb4:	00c00284 	movi	r3,10
 4003eb8:	1805883a 	mov	r2,r3
 4003ebc:	dfc00917 	ldw	ra,36(sp)
 4003ec0:	dcc00817 	ldw	r19,32(sp)
 4003ec4:	dc400717 	ldw	r17,28(sp)
 4003ec8:	dec00a04 	addi	sp,sp,40
 4003ecc:	f800283a 	ret

04003ed0 <puts>:
 4003ed0:	00810074 	movhi	r2,1025
 4003ed4:	108ef704 	addi	r2,r2,15324
 4003ed8:	200b883a 	mov	r5,r4
 4003edc:	11000017 	ldw	r4,0(r2)
 4003ee0:	4003e301 	jmpi	4003e30 <_puts_r>

04003ee4 <strlen>:
 4003ee4:	208000cc 	andi	r2,r4,3
 4003ee8:	2011883a 	mov	r8,r4
 4003eec:	1000161e 	bne	r2,zero,4003f48 <strlen+0x64>
 4003ef0:	20c00017 	ldw	r3,0(r4)
 4003ef4:	017fbff4 	movhi	r5,65279
 4003ef8:	297fbfc4 	addi	r5,r5,-257
 4003efc:	01e02074 	movhi	r7,32897
 4003f00:	39e02004 	addi	r7,r7,-32640
 4003f04:	1945883a 	add	r2,r3,r5
 4003f08:	11c4703a 	and	r2,r2,r7
 4003f0c:	00c6303a 	nor	r3,zero,r3
 4003f10:	1886703a 	and	r3,r3,r2
 4003f14:	18000c1e 	bne	r3,zero,4003f48 <strlen+0x64>
 4003f18:	280d883a 	mov	r6,r5
 4003f1c:	380b883a 	mov	r5,r7
 4003f20:	21000104 	addi	r4,r4,4
 4003f24:	20800017 	ldw	r2,0(r4)
 4003f28:	1187883a 	add	r3,r2,r6
 4003f2c:	1946703a 	and	r3,r3,r5
 4003f30:	0084303a 	nor	r2,zero,r2
 4003f34:	10c4703a 	and	r2,r2,r3
 4003f38:	103ff926 	beq	r2,zero,4003f20 <strlen+0x3c>
 4003f3c:	20800007 	ldb	r2,0(r4)
 4003f40:	10000326 	beq	r2,zero,4003f50 <strlen+0x6c>
 4003f44:	21000044 	addi	r4,r4,1
 4003f48:	20800007 	ldb	r2,0(r4)
 4003f4c:	103ffd1e 	bne	r2,zero,4003f44 <strlen+0x60>
 4003f50:	2205c83a 	sub	r2,r4,r8
 4003f54:	f800283a 	ret

04003f58 <__sprint_r>:
 4003f58:	30800217 	ldw	r2,8(r6)
 4003f5c:	defffe04 	addi	sp,sp,-8
 4003f60:	dc000015 	stw	r16,0(sp)
 4003f64:	dfc00115 	stw	ra,4(sp)
 4003f68:	3021883a 	mov	r16,r6
 4003f6c:	0007883a 	mov	r3,zero
 4003f70:	1000061e 	bne	r2,zero,4003f8c <__sprint_r+0x34>
 4003f74:	1805883a 	mov	r2,r3
 4003f78:	30000115 	stw	zero,4(r6)
 4003f7c:	dfc00117 	ldw	ra,4(sp)
 4003f80:	dc000017 	ldw	r16,0(sp)
 4003f84:	dec00204 	addi	sp,sp,8
 4003f88:	f800283a 	ret
 4003f8c:	40080b80 	call	40080b8 <__sfvwrite_r>
 4003f90:	1007883a 	mov	r3,r2
 4003f94:	1805883a 	mov	r2,r3
 4003f98:	80000115 	stw	zero,4(r16)
 4003f9c:	80000215 	stw	zero,8(r16)
 4003fa0:	dfc00117 	ldw	ra,4(sp)
 4003fa4:	dc000017 	ldw	r16,0(sp)
 4003fa8:	dec00204 	addi	sp,sp,8
 4003fac:	f800283a 	ret

04003fb0 <___vfprintf_internal_r>:
 4003fb0:	defea404 	addi	sp,sp,-1392
 4003fb4:	dd815815 	stw	r22,1376(sp)
 4003fb8:	dc015215 	stw	r16,1352(sp)
 4003fbc:	d9c15115 	stw	r7,1348(sp)
 4003fc0:	dfc15b15 	stw	ra,1388(sp)
 4003fc4:	df015a15 	stw	fp,1384(sp)
 4003fc8:	ddc15915 	stw	r23,1380(sp)
 4003fcc:	dd415715 	stw	r21,1372(sp)
 4003fd0:	dd015615 	stw	r20,1368(sp)
 4003fd4:	dcc15515 	stw	r19,1364(sp)
 4003fd8:	dc815415 	stw	r18,1360(sp)
 4003fdc:	dc415315 	stw	r17,1356(sp)
 4003fe0:	282d883a 	mov	r22,r5
 4003fe4:	3021883a 	mov	r16,r6
 4003fe8:	d9014f15 	stw	r4,1340(sp)
 4003fec:	40086dc0 	call	40086dc <_localeconv_r>
 4003ff0:	10800017 	ldw	r2,0(r2)
 4003ff4:	d9c15117 	ldw	r7,1348(sp)
 4003ff8:	d8814915 	stw	r2,1316(sp)
 4003ffc:	d8814f17 	ldw	r2,1340(sp)
 4004000:	10000226 	beq	r2,zero,400400c <___vfprintf_internal_r+0x5c>
 4004004:	10800e17 	ldw	r2,56(r2)
 4004008:	10020d26 	beq	r2,zero,4004840 <___vfprintf_internal_r+0x890>
 400400c:	b080030b 	ldhu	r2,12(r22)
 4004010:	1080020c 	andi	r2,r2,8
 4004014:	10020e26 	beq	r2,zero,4004850 <___vfprintf_internal_r+0x8a0>
 4004018:	b0800417 	ldw	r2,16(r22)
 400401c:	10020c26 	beq	r2,zero,4004850 <___vfprintf_internal_r+0x8a0>
 4004020:	b200030b 	ldhu	r8,12(r22)
 4004024:	00800284 	movi	r2,10
 4004028:	40c0068c 	andi	r3,r8,26
 400402c:	18802f1e 	bne	r3,r2,40040ec <___vfprintf_internal_r+0x13c>
 4004030:	b080038f 	ldh	r2,14(r22)
 4004034:	10002d16 	blt	r2,zero,40040ec <___vfprintf_internal_r+0x13c>
 4004038:	b240038b 	ldhu	r9,14(r22)
 400403c:	b2800717 	ldw	r10,28(r22)
 4004040:	b2c00917 	ldw	r11,36(r22)
 4004044:	d9014f17 	ldw	r4,1340(sp)
 4004048:	dc402904 	addi	r17,sp,164
 400404c:	d8804004 	addi	r2,sp,256
 4004050:	00c10004 	movi	r3,1024
 4004054:	423fff4c 	andi	r8,r8,65533
 4004058:	800d883a 	mov	r6,r16
 400405c:	880b883a 	mov	r5,r17
 4004060:	da002c0d 	sth	r8,176(sp)
 4004064:	da402c8d 	sth	r9,178(sp)
 4004068:	da803015 	stw	r10,192(sp)
 400406c:	dac03215 	stw	r11,200(sp)
 4004070:	d8802d15 	stw	r2,180(sp)
 4004074:	d8c02e15 	stw	r3,184(sp)
 4004078:	d8802915 	stw	r2,164(sp)
 400407c:	d8c02b15 	stw	r3,172(sp)
 4004080:	d8002f15 	stw	zero,188(sp)
 4004084:	4003fb00 	call	4003fb0 <___vfprintf_internal_r>
 4004088:	d8814b15 	stw	r2,1324(sp)
 400408c:	10000416 	blt	r2,zero,40040a0 <___vfprintf_internal_r+0xf0>
 4004090:	d9014f17 	ldw	r4,1340(sp)
 4004094:	880b883a 	mov	r5,r17
 4004098:	40077880 	call	4007788 <_fflush_r>
 400409c:	1002321e 	bne	r2,zero,4004968 <___vfprintf_internal_r+0x9b8>
 40040a0:	d8802c0b 	ldhu	r2,176(sp)
 40040a4:	1080100c 	andi	r2,r2,64
 40040a8:	10000326 	beq	r2,zero,40040b8 <___vfprintf_internal_r+0x108>
 40040ac:	b080030b 	ldhu	r2,12(r22)
 40040b0:	10801014 	ori	r2,r2,64
 40040b4:	b080030d 	sth	r2,12(r22)
 40040b8:	d8814b17 	ldw	r2,1324(sp)
 40040bc:	dfc15b17 	ldw	ra,1388(sp)
 40040c0:	df015a17 	ldw	fp,1384(sp)
 40040c4:	ddc15917 	ldw	r23,1380(sp)
 40040c8:	dd815817 	ldw	r22,1376(sp)
 40040cc:	dd415717 	ldw	r21,1372(sp)
 40040d0:	dd015617 	ldw	r20,1368(sp)
 40040d4:	dcc15517 	ldw	r19,1364(sp)
 40040d8:	dc815417 	ldw	r18,1360(sp)
 40040dc:	dc415317 	ldw	r17,1356(sp)
 40040e0:	dc015217 	ldw	r16,1352(sp)
 40040e4:	dec15c04 	addi	sp,sp,1392
 40040e8:	f800283a 	ret
 40040ec:	0005883a 	mov	r2,zero
 40040f0:	0007883a 	mov	r3,zero
 40040f4:	dd401904 	addi	r21,sp,100
 40040f8:	d8814215 	stw	r2,1288(sp)
 40040fc:	802f883a 	mov	r23,r16
 4004100:	d8c14315 	stw	r3,1292(sp)
 4004104:	d8014b15 	stw	zero,1324(sp)
 4004108:	d8014815 	stw	zero,1312(sp)
 400410c:	d8014415 	stw	zero,1296(sp)
 4004110:	d8014715 	stw	zero,1308(sp)
 4004114:	dd400c15 	stw	r21,48(sp)
 4004118:	d8000e15 	stw	zero,56(sp)
 400411c:	d8000d15 	stw	zero,52(sp)
 4004120:	b8800007 	ldb	r2,0(r23)
 4004124:	10001926 	beq	r2,zero,400418c <___vfprintf_internal_r+0x1dc>
 4004128:	00c00944 	movi	r3,37
 400412c:	10c01726 	beq	r2,r3,400418c <___vfprintf_internal_r+0x1dc>
 4004130:	b821883a 	mov	r16,r23
 4004134:	00000106 	br	400413c <___vfprintf_internal_r+0x18c>
 4004138:	10c00326 	beq	r2,r3,4004148 <___vfprintf_internal_r+0x198>
 400413c:	84000044 	addi	r16,r16,1
 4004140:	80800007 	ldb	r2,0(r16)
 4004144:	103ffc1e 	bne	r2,zero,4004138 <___vfprintf_internal_r+0x188>
 4004148:	85e7c83a 	sub	r19,r16,r23
 400414c:	98000e26 	beq	r19,zero,4004188 <___vfprintf_internal_r+0x1d8>
 4004150:	dc800e17 	ldw	r18,56(sp)
 4004154:	dc400d17 	ldw	r17,52(sp)
 4004158:	008001c4 	movi	r2,7
 400415c:	94e5883a 	add	r18,r18,r19
 4004160:	8c400044 	addi	r17,r17,1
 4004164:	adc00015 	stw	r23,0(r21)
 4004168:	dc800e15 	stw	r18,56(sp)
 400416c:	acc00115 	stw	r19,4(r21)
 4004170:	dc400d15 	stw	r17,52(sp)
 4004174:	14428b16 	blt	r2,r17,4004ba4 <___vfprintf_internal_r+0xbf4>
 4004178:	ad400204 	addi	r21,r21,8
 400417c:	d9014b17 	ldw	r4,1324(sp)
 4004180:	24c9883a 	add	r4,r4,r19
 4004184:	d9014b15 	stw	r4,1324(sp)
 4004188:	802f883a 	mov	r23,r16
 400418c:	b8800007 	ldb	r2,0(r23)
 4004190:	10013c26 	beq	r2,zero,4004684 <___vfprintf_internal_r+0x6d4>
 4004194:	bdc00044 	addi	r23,r23,1
 4004198:	d8000405 	stb	zero,16(sp)
 400419c:	b8c00007 	ldb	r3,0(r23)
 40041a0:	04ffffc4 	movi	r19,-1
 40041a4:	d8014c15 	stw	zero,1328(sp)
 40041a8:	d8014a15 	stw	zero,1320(sp)
 40041ac:	d8c14d15 	stw	r3,1332(sp)
 40041b0:	bdc00044 	addi	r23,r23,1
 40041b4:	d9414d17 	ldw	r5,1332(sp)
 40041b8:	00801604 	movi	r2,88
 40041bc:	28fff804 	addi	r3,r5,-32
 40041c0:	10c06036 	bltu	r2,r3,4004344 <___vfprintf_internal_r+0x394>
 40041c4:	18c5883a 	add	r2,r3,r3
 40041c8:	1085883a 	add	r2,r2,r2
 40041cc:	00c10034 	movhi	r3,1024
 40041d0:	18d07804 	addi	r3,r3,16864
 40041d4:	10c5883a 	add	r2,r2,r3
 40041d8:	11000017 	ldw	r4,0(r2)
 40041dc:	2000683a 	jmp	r4
 40041e0:	04005154 	movui	r16,325
 40041e4:	04004344 	movi	r16,269
 40041e8:	04004344 	movi	r16,269
 40041ec:	04005140 	call	400514 <__alt_mem_epcs_controlle+0x400514>
 40041f0:	04004344 	movi	r16,269
 40041f4:	04004344 	movi	r16,269
 40041f8:	04004344 	movi	r16,269
 40041fc:	04004344 	movi	r16,269
 4004200:	04004344 	movi	r16,269
 4004204:	04004344 	movi	r16,269
 4004208:	04004f20 	cmpeqi	r16,zero,316
 400420c:	04005130 	cmpltui	r16,zero,324
 4004210:	04004344 	movi	r16,269
 4004214:	04004f38 	rdprs	r16,zero,316
 4004218:	040051cc 	andi	r16,zero,327
 400421c:	04004344 	movi	r16,269
 4004220:	040051b8 	rdprs	r16,zero,326
 4004224:	04005180 	call	400518 <__alt_mem_epcs_controlle+0x400518>
 4004228:	04005180 	call	400518 <__alt_mem_epcs_controlle+0x400518>
 400422c:	04005180 	call	400518 <__alt_mem_epcs_controlle+0x400518>
 4004230:	04005180 	call	400518 <__alt_mem_epcs_controlle+0x400518>
 4004234:	04005180 	call	400518 <__alt_mem_epcs_controlle+0x400518>
 4004238:	04005180 	call	400518 <__alt_mem_epcs_controlle+0x400518>
 400423c:	04005180 	call	400518 <__alt_mem_epcs_controlle+0x400518>
 4004240:	04005180 	call	400518 <__alt_mem_epcs_controlle+0x400518>
 4004244:	04005180 	call	400518 <__alt_mem_epcs_controlle+0x400518>
 4004248:	04004344 	movi	r16,269
 400424c:	04004344 	movi	r16,269
 4004250:	04004344 	movi	r16,269
 4004254:	04004344 	movi	r16,269
 4004258:	04004344 	movi	r16,269
 400425c:	04004344 	movi	r16,269
 4004260:	04004344 	movi	r16,269
 4004264:	04004344 	movi	r16,269
 4004268:	04004344 	movi	r16,269
 400426c:	04004344 	movi	r16,269
 4004270:	0400499c 	xori	r16,zero,294
 4004274:	04005008 	cmpgei	r16,zero,320
 4004278:	04004344 	movi	r16,269
 400427c:	04005008 	cmpgei	r16,zero,320
 4004280:	04004344 	movi	r16,269
 4004284:	04004344 	movi	r16,269
 4004288:	04004344 	movi	r16,269
 400428c:	04004344 	movi	r16,269
 4004290:	0400516c 	andhi	r16,zero,325
 4004294:	04004344 	movi	r16,269
 4004298:	04004344 	movi	r16,269
 400429c:	04004a50 	cmplti	r16,zero,297
 40042a0:	04004344 	movi	r16,269
 40042a4:	04004344 	movi	r16,269
 40042a8:	04004344 	movi	r16,269
 40042ac:	04004344 	movi	r16,269
 40042b0:	04004344 	movi	r16,269
 40042b4:	04004a9c 	xori	r16,zero,298
 40042b8:	04004344 	movi	r16,269
 40042bc:	04004344 	movi	r16,269
 40042c0:	040050bc 	xorhi	r16,zero,322
 40042c4:	04004344 	movi	r16,269
 40042c8:	04004344 	movi	r16,269
 40042cc:	04004344 	movi	r16,269
 40042d0:	04004344 	movi	r16,269
 40042d4:	04004344 	movi	r16,269
 40042d8:	04004344 	movi	r16,269
 40042dc:	04004344 	movi	r16,269
 40042e0:	04004344 	movi	r16,269
 40042e4:	04004344 	movi	r16,269
 40042e8:	04004344 	movi	r16,269
 40042ec:	04005090 	cmplti	r16,zero,322
 40042f0:	040049a8 	cmpgeui	r16,zero,294
 40042f4:	04005008 	cmpgei	r16,zero,320
 40042f8:	04005008 	cmpgei	r16,zero,320
 40042fc:	04005008 	cmpgei	r16,zero,320
 4004300:	04004ff4 	movhi	r16,319
 4004304:	040049a8 	cmpgeui	r16,zero,294
 4004308:	04004344 	movi	r16,269
 400430c:	04004344 	movi	r16,269
 4004310:	04004f7c 	xorhi	r16,zero,317
 4004314:	04004344 	movi	r16,269
 4004318:	04004f4c 	andi	r16,zero,317
 400431c:	04004a5c 	xori	r16,zero,297
 4004320:	04004fac 	andhi	r16,zero,318
 4004324:	04004f98 	cmpnei	r16,zero,318
 4004328:	04004344 	movi	r16,269
 400432c:	04005228 	cmpgeui	r16,zero,328
 4004330:	04004344 	movi	r16,269
 4004334:	04004aa8 	cmpgeui	r16,zero,298
 4004338:	04004344 	movi	r16,269
 400433c:	04004344 	movi	r16,269
 4004340:	04005120 	cmpeqi	r16,zero,324
 4004344:	d9014d17 	ldw	r4,1332(sp)
 4004348:	2000ce26 	beq	r4,zero,4004684 <___vfprintf_internal_r+0x6d4>
 400434c:	01400044 	movi	r5,1
 4004350:	d9800f04 	addi	r6,sp,60
 4004354:	d9c14015 	stw	r7,1280(sp)
 4004358:	d9414515 	stw	r5,1300(sp)
 400435c:	d9814115 	stw	r6,1284(sp)
 4004360:	280f883a 	mov	r7,r5
 4004364:	d9000f05 	stb	r4,60(sp)
 4004368:	d8000405 	stb	zero,16(sp)
 400436c:	d8014615 	stw	zero,1304(sp)
 4004370:	d8c14c17 	ldw	r3,1328(sp)
 4004374:	1880008c 	andi	r2,r3,2
 4004378:	1005003a 	cmpeq	r2,r2,zero
 400437c:	d8815015 	stw	r2,1344(sp)
 4004380:	1000031e 	bne	r2,zero,4004390 <___vfprintf_internal_r+0x3e0>
 4004384:	d9014517 	ldw	r4,1300(sp)
 4004388:	21000084 	addi	r4,r4,2
 400438c:	d9014515 	stw	r4,1300(sp)
 4004390:	d9414c17 	ldw	r5,1328(sp)
 4004394:	2940210c 	andi	r5,r5,132
 4004398:	d9414e15 	stw	r5,1336(sp)
 400439c:	28002d1e 	bne	r5,zero,4004454 <___vfprintf_internal_r+0x4a4>
 40043a0:	d9814a17 	ldw	r6,1320(sp)
 40043a4:	d8814517 	ldw	r2,1300(sp)
 40043a8:	30a1c83a 	sub	r16,r6,r2
 40043ac:	0400290e 	bge	zero,r16,4004454 <___vfprintf_internal_r+0x4a4>
 40043b0:	00800404 	movi	r2,16
 40043b4:	1404580e 	bge	r2,r16,4005518 <___vfprintf_internal_r+0x1568>
 40043b8:	dc800e17 	ldw	r18,56(sp)
 40043bc:	dc400d17 	ldw	r17,52(sp)
 40043c0:	1027883a 	mov	r19,r2
 40043c4:	07010074 	movhi	fp,1025
 40043c8:	e7079084 	addi	fp,fp,7746
 40043cc:	050001c4 	movi	r20,7
 40043d0:	00000306 	br	40043e0 <___vfprintf_internal_r+0x430>
 40043d4:	843ffc04 	addi	r16,r16,-16
 40043d8:	ad400204 	addi	r21,r21,8
 40043dc:	9c00130e 	bge	r19,r16,400442c <___vfprintf_internal_r+0x47c>
 40043e0:	94800404 	addi	r18,r18,16
 40043e4:	8c400044 	addi	r17,r17,1
 40043e8:	af000015 	stw	fp,0(r21)
 40043ec:	acc00115 	stw	r19,4(r21)
 40043f0:	dc800e15 	stw	r18,56(sp)
 40043f4:	dc400d15 	stw	r17,52(sp)
 40043f8:	a47ff60e 	bge	r20,r17,40043d4 <___vfprintf_internal_r+0x424>
 40043fc:	d9014f17 	ldw	r4,1340(sp)
 4004400:	b00b883a 	mov	r5,r22
 4004404:	d9800c04 	addi	r6,sp,48
 4004408:	d9c15115 	stw	r7,1348(sp)
 400440c:	4003f580 	call	4003f58 <__sprint_r>
 4004410:	d9c15117 	ldw	r7,1348(sp)
 4004414:	10009e1e 	bne	r2,zero,4004690 <___vfprintf_internal_r+0x6e0>
 4004418:	843ffc04 	addi	r16,r16,-16
 400441c:	dc800e17 	ldw	r18,56(sp)
 4004420:	dc400d17 	ldw	r17,52(sp)
 4004424:	dd401904 	addi	r21,sp,100
 4004428:	9c3fed16 	blt	r19,r16,40043e0 <___vfprintf_internal_r+0x430>
 400442c:	9425883a 	add	r18,r18,r16
 4004430:	8c400044 	addi	r17,r17,1
 4004434:	008001c4 	movi	r2,7
 4004438:	af000015 	stw	fp,0(r21)
 400443c:	ac000115 	stw	r16,4(r21)
 4004440:	dc800e15 	stw	r18,56(sp)
 4004444:	dc400d15 	stw	r17,52(sp)
 4004448:	1441f516 	blt	r2,r17,4004c20 <___vfprintf_internal_r+0xc70>
 400444c:	ad400204 	addi	r21,r21,8
 4004450:	00000206 	br	400445c <___vfprintf_internal_r+0x4ac>
 4004454:	dc800e17 	ldw	r18,56(sp)
 4004458:	dc400d17 	ldw	r17,52(sp)
 400445c:	d8800407 	ldb	r2,16(sp)
 4004460:	10000b26 	beq	r2,zero,4004490 <___vfprintf_internal_r+0x4e0>
 4004464:	00800044 	movi	r2,1
 4004468:	94800044 	addi	r18,r18,1
 400446c:	8c400044 	addi	r17,r17,1
 4004470:	a8800115 	stw	r2,4(r21)
 4004474:	d8c00404 	addi	r3,sp,16
 4004478:	008001c4 	movi	r2,7
 400447c:	a8c00015 	stw	r3,0(r21)
 4004480:	dc800e15 	stw	r18,56(sp)
 4004484:	dc400d15 	stw	r17,52(sp)
 4004488:	1441da16 	blt	r2,r17,4004bf4 <___vfprintf_internal_r+0xc44>
 400448c:	ad400204 	addi	r21,r21,8
 4004490:	d9015017 	ldw	r4,1344(sp)
 4004494:	20000b1e 	bne	r4,zero,40044c4 <___vfprintf_internal_r+0x514>
 4004498:	d8800444 	addi	r2,sp,17
 400449c:	94800084 	addi	r18,r18,2
 40044a0:	8c400044 	addi	r17,r17,1
 40044a4:	a8800015 	stw	r2,0(r21)
 40044a8:	00c00084 	movi	r3,2
 40044ac:	008001c4 	movi	r2,7
 40044b0:	a8c00115 	stw	r3,4(r21)
 40044b4:	dc800e15 	stw	r18,56(sp)
 40044b8:	dc400d15 	stw	r17,52(sp)
 40044bc:	1441c216 	blt	r2,r17,4004bc8 <___vfprintf_internal_r+0xc18>
 40044c0:	ad400204 	addi	r21,r21,8
 40044c4:	d9414e17 	ldw	r5,1336(sp)
 40044c8:	00802004 	movi	r2,128
 40044cc:	2880b126 	beq	r5,r2,4004794 <___vfprintf_internal_r+0x7e4>
 40044d0:	d8c14617 	ldw	r3,1304(sp)
 40044d4:	19e1c83a 	sub	r16,r3,r7
 40044d8:	0400260e 	bge	zero,r16,4004574 <___vfprintf_internal_r+0x5c4>
 40044dc:	00800404 	movi	r2,16
 40044e0:	1403c90e 	bge	r2,r16,4005408 <___vfprintf_internal_r+0x1458>
 40044e4:	1027883a 	mov	r19,r2
 40044e8:	07010074 	movhi	fp,1025
 40044ec:	e7078c84 	addi	fp,fp,7730
 40044f0:	050001c4 	movi	r20,7
 40044f4:	00000306 	br	4004504 <___vfprintf_internal_r+0x554>
 40044f8:	843ffc04 	addi	r16,r16,-16
 40044fc:	ad400204 	addi	r21,r21,8
 4004500:	9c00130e 	bge	r19,r16,4004550 <___vfprintf_internal_r+0x5a0>
 4004504:	94800404 	addi	r18,r18,16
 4004508:	8c400044 	addi	r17,r17,1
 400450c:	af000015 	stw	fp,0(r21)
 4004510:	acc00115 	stw	r19,4(r21)
 4004514:	dc800e15 	stw	r18,56(sp)
 4004518:	dc400d15 	stw	r17,52(sp)
 400451c:	a47ff60e 	bge	r20,r17,40044f8 <___vfprintf_internal_r+0x548>
 4004520:	d9014f17 	ldw	r4,1340(sp)
 4004524:	b00b883a 	mov	r5,r22
 4004528:	d9800c04 	addi	r6,sp,48
 400452c:	d9c15115 	stw	r7,1348(sp)
 4004530:	4003f580 	call	4003f58 <__sprint_r>
 4004534:	d9c15117 	ldw	r7,1348(sp)
 4004538:	1000551e 	bne	r2,zero,4004690 <___vfprintf_internal_r+0x6e0>
 400453c:	843ffc04 	addi	r16,r16,-16
 4004540:	dc800e17 	ldw	r18,56(sp)
 4004544:	dc400d17 	ldw	r17,52(sp)
 4004548:	dd401904 	addi	r21,sp,100
 400454c:	9c3fed16 	blt	r19,r16,4004504 <___vfprintf_internal_r+0x554>
 4004550:	9425883a 	add	r18,r18,r16
 4004554:	8c400044 	addi	r17,r17,1
 4004558:	008001c4 	movi	r2,7
 400455c:	af000015 	stw	fp,0(r21)
 4004560:	ac000115 	stw	r16,4(r21)
 4004564:	dc800e15 	stw	r18,56(sp)
 4004568:	dc400d15 	stw	r17,52(sp)
 400456c:	14418216 	blt	r2,r17,4004b78 <___vfprintf_internal_r+0xbc8>
 4004570:	ad400204 	addi	r21,r21,8
 4004574:	d9014c17 	ldw	r4,1328(sp)
 4004578:	2080400c 	andi	r2,r4,256
 400457c:	10004a1e 	bne	r2,zero,40046a8 <___vfprintf_internal_r+0x6f8>
 4004580:	d9414117 	ldw	r5,1284(sp)
 4004584:	91e5883a 	add	r18,r18,r7
 4004588:	8c400044 	addi	r17,r17,1
 400458c:	008001c4 	movi	r2,7
 4004590:	a9400015 	stw	r5,0(r21)
 4004594:	a9c00115 	stw	r7,4(r21)
 4004598:	dc800e15 	stw	r18,56(sp)
 400459c:	dc400d15 	stw	r17,52(sp)
 40045a0:	14416716 	blt	r2,r17,4004b40 <___vfprintf_internal_r+0xb90>
 40045a4:	a8c00204 	addi	r3,r21,8
 40045a8:	d9814c17 	ldw	r6,1328(sp)
 40045ac:	3080010c 	andi	r2,r6,4
 40045b0:	10002826 	beq	r2,zero,4004654 <___vfprintf_internal_r+0x6a4>
 40045b4:	d8814a17 	ldw	r2,1320(sp)
 40045b8:	d9014517 	ldw	r4,1300(sp)
 40045bc:	1121c83a 	sub	r16,r2,r4
 40045c0:	0400240e 	bge	zero,r16,4004654 <___vfprintf_internal_r+0x6a4>
 40045c4:	00800404 	movi	r2,16
 40045c8:	14044f0e 	bge	r2,r16,4005708 <___vfprintf_internal_r+0x1758>
 40045cc:	dc400d17 	ldw	r17,52(sp)
 40045d0:	1027883a 	mov	r19,r2
 40045d4:	07010074 	movhi	fp,1025
 40045d8:	e7079084 	addi	fp,fp,7746
 40045dc:	050001c4 	movi	r20,7
 40045e0:	00000306 	br	40045f0 <___vfprintf_internal_r+0x640>
 40045e4:	843ffc04 	addi	r16,r16,-16
 40045e8:	18c00204 	addi	r3,r3,8
 40045ec:	9c00110e 	bge	r19,r16,4004634 <___vfprintf_internal_r+0x684>
 40045f0:	94800404 	addi	r18,r18,16
 40045f4:	8c400044 	addi	r17,r17,1
 40045f8:	1f000015 	stw	fp,0(r3)
 40045fc:	1cc00115 	stw	r19,4(r3)
 4004600:	dc800e15 	stw	r18,56(sp)
 4004604:	dc400d15 	stw	r17,52(sp)
 4004608:	a47ff60e 	bge	r20,r17,40045e4 <___vfprintf_internal_r+0x634>
 400460c:	d9014f17 	ldw	r4,1340(sp)
 4004610:	b00b883a 	mov	r5,r22
 4004614:	d9800c04 	addi	r6,sp,48
 4004618:	4003f580 	call	4003f58 <__sprint_r>
 400461c:	10001c1e 	bne	r2,zero,4004690 <___vfprintf_internal_r+0x6e0>
 4004620:	843ffc04 	addi	r16,r16,-16
 4004624:	dc800e17 	ldw	r18,56(sp)
 4004628:	dc400d17 	ldw	r17,52(sp)
 400462c:	d8c01904 	addi	r3,sp,100
 4004630:	9c3fef16 	blt	r19,r16,40045f0 <___vfprintf_internal_r+0x640>
 4004634:	9425883a 	add	r18,r18,r16
 4004638:	8c400044 	addi	r17,r17,1
 400463c:	008001c4 	movi	r2,7
 4004640:	1f000015 	stw	fp,0(r3)
 4004644:	1c000115 	stw	r16,4(r3)
 4004648:	dc800e15 	stw	r18,56(sp)
 400464c:	dc400d15 	stw	r17,52(sp)
 4004650:	1440cb16 	blt	r2,r17,4004980 <___vfprintf_internal_r+0x9d0>
 4004654:	d8814a17 	ldw	r2,1320(sp)
 4004658:	d9414517 	ldw	r5,1300(sp)
 400465c:	1140010e 	bge	r2,r5,4004664 <___vfprintf_internal_r+0x6b4>
 4004660:	2805883a 	mov	r2,r5
 4004664:	d9814b17 	ldw	r6,1324(sp)
 4004668:	308d883a 	add	r6,r6,r2
 400466c:	d9814b15 	stw	r6,1324(sp)
 4004670:	90013b1e 	bne	r18,zero,4004b60 <___vfprintf_internal_r+0xbb0>
 4004674:	d9c14017 	ldw	r7,1280(sp)
 4004678:	dd401904 	addi	r21,sp,100
 400467c:	d8000d15 	stw	zero,52(sp)
 4004680:	003ea706 	br	4004120 <___vfprintf_internal_r+0x170>
 4004684:	d8800e17 	ldw	r2,56(sp)
 4004688:	10053f1e 	bne	r2,zero,4005b88 <___vfprintf_internal_r+0x1bd8>
 400468c:	d8000d15 	stw	zero,52(sp)
 4004690:	b080030b 	ldhu	r2,12(r22)
 4004694:	1080100c 	andi	r2,r2,64
 4004698:	103e8726 	beq	r2,zero,40040b8 <___vfprintf_internal_r+0x108>
 400469c:	00bfffc4 	movi	r2,-1
 40046a0:	d8814b15 	stw	r2,1324(sp)
 40046a4:	003e8406 	br	40040b8 <___vfprintf_internal_r+0x108>
 40046a8:	d9814d17 	ldw	r6,1332(sp)
 40046ac:	00801944 	movi	r2,101
 40046b0:	11806e16 	blt	r2,r6,400486c <___vfprintf_internal_r+0x8bc>
 40046b4:	d9414717 	ldw	r5,1308(sp)
 40046b8:	00c00044 	movi	r3,1
 40046bc:	1943430e 	bge	r3,r5,40053cc <___vfprintf_internal_r+0x141c>
 40046c0:	d8814117 	ldw	r2,1284(sp)
 40046c4:	94800044 	addi	r18,r18,1
 40046c8:	8c400044 	addi	r17,r17,1
 40046cc:	a8800015 	stw	r2,0(r21)
 40046d0:	008001c4 	movi	r2,7
 40046d4:	a8c00115 	stw	r3,4(r21)
 40046d8:	dc800e15 	stw	r18,56(sp)
 40046dc:	dc400d15 	stw	r17,52(sp)
 40046e0:	1441ca16 	blt	r2,r17,4004e0c <___vfprintf_internal_r+0xe5c>
 40046e4:	a8c00204 	addi	r3,r21,8
 40046e8:	d9014917 	ldw	r4,1316(sp)
 40046ec:	00800044 	movi	r2,1
 40046f0:	94800044 	addi	r18,r18,1
 40046f4:	8c400044 	addi	r17,r17,1
 40046f8:	18800115 	stw	r2,4(r3)
 40046fc:	008001c4 	movi	r2,7
 4004700:	19000015 	stw	r4,0(r3)
 4004704:	dc800e15 	stw	r18,56(sp)
 4004708:	dc400d15 	stw	r17,52(sp)
 400470c:	1441b616 	blt	r2,r17,4004de8 <___vfprintf_internal_r+0xe38>
 4004710:	1cc00204 	addi	r19,r3,8
 4004714:	d9014217 	ldw	r4,1288(sp)
 4004718:	d9414317 	ldw	r5,1292(sp)
 400471c:	000d883a 	mov	r6,zero
 4004720:	000f883a 	mov	r7,zero
 4004724:	400c8000 	call	400c800 <__nedf2>
 4004728:	10017426 	beq	r2,zero,4004cfc <___vfprintf_internal_r+0xd4c>
 400472c:	d9414717 	ldw	r5,1308(sp)
 4004730:	d9814117 	ldw	r6,1284(sp)
 4004734:	8c400044 	addi	r17,r17,1
 4004738:	2c85883a 	add	r2,r5,r18
 400473c:	14bfffc4 	addi	r18,r2,-1
 4004740:	28bfffc4 	addi	r2,r5,-1
 4004744:	30c00044 	addi	r3,r6,1
 4004748:	98800115 	stw	r2,4(r19)
 400474c:	008001c4 	movi	r2,7
 4004750:	98c00015 	stw	r3,0(r19)
 4004754:	dc800e15 	stw	r18,56(sp)
 4004758:	dc400d15 	stw	r17,52(sp)
 400475c:	14418e16 	blt	r2,r17,4004d98 <___vfprintf_internal_r+0xde8>
 4004760:	9cc00204 	addi	r19,r19,8
 4004764:	d9414817 	ldw	r5,1312(sp)
 4004768:	d8800804 	addi	r2,sp,32
 400476c:	8c400044 	addi	r17,r17,1
 4004770:	9165883a 	add	r18,r18,r5
 4004774:	98800015 	stw	r2,0(r19)
 4004778:	008001c4 	movi	r2,7
 400477c:	99400115 	stw	r5,4(r19)
 4004780:	dc800e15 	stw	r18,56(sp)
 4004784:	dc400d15 	stw	r17,52(sp)
 4004788:	1440ed16 	blt	r2,r17,4004b40 <___vfprintf_internal_r+0xb90>
 400478c:	98c00204 	addi	r3,r19,8
 4004790:	003f8506 	br	40045a8 <___vfprintf_internal_r+0x5f8>
 4004794:	d9814a17 	ldw	r6,1320(sp)
 4004798:	d8814517 	ldw	r2,1300(sp)
 400479c:	30a1c83a 	sub	r16,r6,r2
 40047a0:	043f4b0e 	bge	zero,r16,40044d0 <___vfprintf_internal_r+0x520>
 40047a4:	00800404 	movi	r2,16
 40047a8:	1404340e 	bge	r2,r16,400587c <___vfprintf_internal_r+0x18cc>
 40047ac:	1027883a 	mov	r19,r2
 40047b0:	07010074 	movhi	fp,1025
 40047b4:	e7078c84 	addi	fp,fp,7730
 40047b8:	050001c4 	movi	r20,7
 40047bc:	00000306 	br	40047cc <___vfprintf_internal_r+0x81c>
 40047c0:	843ffc04 	addi	r16,r16,-16
 40047c4:	ad400204 	addi	r21,r21,8
 40047c8:	9c00130e 	bge	r19,r16,4004818 <___vfprintf_internal_r+0x868>
 40047cc:	94800404 	addi	r18,r18,16
 40047d0:	8c400044 	addi	r17,r17,1
 40047d4:	af000015 	stw	fp,0(r21)
 40047d8:	acc00115 	stw	r19,4(r21)
 40047dc:	dc800e15 	stw	r18,56(sp)
 40047e0:	dc400d15 	stw	r17,52(sp)
 40047e4:	a47ff60e 	bge	r20,r17,40047c0 <___vfprintf_internal_r+0x810>
 40047e8:	d9014f17 	ldw	r4,1340(sp)
