
motor_surface0629.elf:     file format elf32-littlenios2
motor_surface0629.elf
architecture: nios2, flags 0x00000112:
EXEC_P, HAS_SYMS, D_PAGED
start address 0x04000194

Program Header:
    LOAD off    0x00001000 vaddr 0x00000000 paddr 0x00000000 align 2**12
         filesz 0x00000000 memsz 0x00000000 flags r-x
    LOAD off    0x00001000 vaddr 0x04000000 paddr 0x04000000 align 2**12
         filesz 0x0001686c memsz 0x0001686c flags r-x
    LOAD off    0x0001786c vaddr 0x0401686c paddr 0x0401859c align 2**12
         filesz 0x00001d30 memsz 0x00001d30 flags rw-
    LOAD off    0x0001a2cc vaddr 0x0401a2cc paddr 0x0401a2cc align 2**12
         filesz 0x00000000 memsz 0x00200368 flags rw-

Sections:
Idx Name          Size      VMA       LMA       File off  Algn
  0 .entry        00000000  00000000  00000000  00001000  2**5
                  CONTENTS, ALLOC, LOAD, READONLY, CODE
  1 .exceptions   00000194  04000000  04000000  00001000  2**2
                  CONTENTS, ALLOC, LOAD, READONLY, CODE
  2 .text         00015b54  04000194  04000194  00001194  2**2
                  CONTENTS, ALLOC, LOAD, READONLY, CODE
  3 .rodata       00000b84  04015ce8  04015ce8  00016ce8  2**2
                  CONTENTS, ALLOC, LOAD, READONLY, DATA
  4 .rwdata       00001d30  0401686c  0401859c  0001786c  2**2
                  CONTENTS, ALLOC, LOAD, DATA, SMALL_DATA
  5 .bss          00200579  0401a2cc  0401a2cc  0001a2cc  2**2
                  ALLOC, SMALL_DATA
  6 .comment      00000026  00000000  00000000  0001959c  2**0
                  CONTENTS, READONLY
  7 .debug_aranges 000012d0  00000000  00000000  000195c8  2**3
                  CONTENTS, READONLY, DEBUGGING
  8 .debug_pubnames 000021b4  00000000  00000000  0001a898  2**0
                  CONTENTS, READONLY, DEBUGGING
  9 .debug_info   00038bf5  00000000  00000000  0001ca4c  2**0
                  CONTENTS, READONLY, DEBUGGING
 10 .debug_abbrev 0000bbe6  00000000  00000000  00055641  2**0
                  CONTENTS, READONLY, DEBUGGING
 11 .debug_line   0001dd0c  00000000  00000000  00061227  2**0
                  CONTENTS, READONLY, DEBUGGING
 12 .debug_frame  00002bc4  00000000  00000000  0007ef34  2**2
                  CONTENTS, READONLY, DEBUGGING
 13 .debug_str    00002aee  00000000  00000000  00081af8  2**0
                  CONTENTS, READONLY, DEBUGGING
 14 .debug_loc    0000ef93  00000000  00000000  000845e6  2**0
                  CONTENTS, READONLY, DEBUGGING
 15 .debug_alt_sim_info 00000050  00000000  00000000  0009357c  2**2
                  CONTENTS, READONLY, DEBUGGING
 16 .debug_ranges 000009d8  00000000  00000000  000935d0  2**3
                  CONTENTS, READONLY, DEBUGGING
 17 .thread_model 00000003  00000000  00000000  000988a0  2**0
                  CONTENTS, READONLY
 18 .cpu          00000007  00000000  00000000  000988a3  2**0
                  CONTENTS, READONLY
 19 .qsys         00000001  00000000  00000000  000988aa  2**0
                  CONTENTS, READONLY
 20 .simulation_enabled 00000001  00000000  00000000  000988ab  2**0
                  CONTENTS, READONLY
 21 .stderr_dev   0000000b  00000000  00000000  000988ac  2**0
                  CONTENTS, READONLY
 22 .stdin_dev    0000000b  00000000  00000000  000988b7  2**0
                  CONTENTS, READONLY
 23 .stdout_dev   0000000b  00000000  00000000  000988c2  2**0
                  CONTENTS, READONLY
 24 .sopc_system_name 00000004  00000000  00000000  000988cd  2**0
                  CONTENTS, READONLY
 25 .quartus_project_dir 00000049  00000000  00000000  000988d1  2**0
                  CONTENTS, READONLY
 26 .sopcinfo     00067197  00000000  00000000  0009891a  2**0
                  CONTENTS, READONLY
SYMBOL TABLE:
00000000 l    d  .entry	00000000 .entry
04000000 l    d  .exceptions	00000000 .exceptions
04000194 l    d  .text	00000000 .text
04015ce8 l    d  .rodata	00000000 .rodata
0401686c l    d  .rwdata	00000000 .rwdata
0401a2cc l    d  .bss	00000000 .bss
00000000 l    d  .comment	00000000 .comment
00000000 l    d  .debug_aranges	00000000 .debug_aranges
00000000 l    d  .debug_pubnames	00000000 .debug_pubnames
00000000 l    d  .debug_info	00000000 .debug_info
00000000 l    d  .debug_abbrev	00000000 .debug_abbrev
00000000 l    d  .debug_line	00000000 .debug_line
00000000 l    d  .debug_frame	00000000 .debug_frame
00000000 l    d  .debug_str	00000000 .debug_str
00000000 l    d  .debug_loc	00000000 .debug_loc
00000000 l    d  .debug_alt_sim_info	00000000 .debug_alt_sim_info
00000000 l    d  .debug_ranges	00000000 .debug_ranges
040001dc l       .text	00000000 alt_after_alt_main
00000000 l    df *ABS*	00000000 alt_irq_handler.c
00000000 l    df *ABS*	00000000 NiosProcess.c
00000000 l    df *ABS*	00000000 main.c
00000000 l    df *ABS*	00000000 imu.c
00000000 l    df *ABS*	00000000 pid.c
00000000 l    df *ABS*	00000000 debug.c
00000000 l    df *ABS*	00000000 log.c
0401686c l     O .rwdata	000000a0 g_log_modu_str
0401a2d4 l     O .bss	00000007 g_level
00000000 l    df *ABS*	00000000 motordriver.c
00000000 l    df *ABS*	00000000 timer.c
00000000 l    df *ABS*	00000000 uart.c
00000000 l    df *ABS*	00000000 libgcc2.c
00000000 l    df *ABS*	00000000 fp-bit.c
04004758 l     F .text	000001e4 _fpadd_parts
00000000 l    df *ABS*	00000000 fp-bit.c
00000000 l    df *ABS*	00000000 fp-bit.c
00000000 l    df *ABS*	00000000 fp-bit.c
00000000 l    df *ABS*	00000000 fp-bit.c
00000000 l    df *ABS*	00000000 fp-bit.c
00000000 l    df *ABS*	00000000 fp-bit.c
00000000 l    df *ABS*	00000000 fp-bit.c
00000000 l    df *ABS*	00000000 lib2-divmod.c
04004d44 l     F .text	0000007c udivmodsi4
00000000 l    df *ABS*	00000000 libgcc2.c
00000000 l    df *ABS*	00000000 fp-bit.c
00000000 l    df *ABS*	00000000 fp-bit.c
00000000 l    df *ABS*	00000000 fp-bit.c
00000000 l    df *ABS*	00000000 libgcc2.c
00000000 l    df *ABS*	00000000 fclose.c
00000000 l    df *ABS*	00000000 fflush.c
00000000 l    df *ABS*	00000000 findfp.c
04005534 l     F .text	00000058 std
04005640 l     F .text	00000008 __fp_lock
04005648 l     F .text	00000008 __fp_unlock
00000000 l    df *ABS*	00000000 fopen.c
00000000 l    df *ABS*	00000000 fprintf.c
00000000 l    df *ABS*	00000000 mallocr.c
00000000 l    df *ABS*	00000000 fseek.c
00000000 l    df *ABS*	00000000 fstatr.c
00000000 l    df *ABS*	00000000 fwalk.c
00000000 l    df *ABS*	00000000 fwrite.c
00000000 l    df *ABS*	00000000 impure.c
0401690c l     O .rwdata	00000400 impure_data
00000000 l    df *ABS*	00000000 int_errno.c
00000000 l    df *ABS*	00000000 makebuf.c
00000000 l    df *ABS*	00000000 mallocr.c
00000000 l    df *ABS*	00000000 memset.c
00000000 l    df *ABS*	00000000 openr.c
00000000 l    df *ABS*	00000000 perror.c
00000000 l    df *ABS*	00000000 printf.c
00000000 l    df *ABS*	00000000 puts.c
00000000 l    df *ABS*	00000000 refill.c
04007228 l     F .text	0000001c lflush
00000000 l    df *ABS*	00000000 sbrkr.c
00000000 l    df *ABS*	00000000 snprintf.c
00000000 l    df *ABS*	00000000 sprintf.c
00000000 l    df *ABS*	00000000 stdio.c
00000000 l    df *ABS*	00000000 strerror.c
00000000 l    df *ABS*	00000000 strlen.c
00000000 l    df *ABS*	00000000 u_strerr.c
00000000 l    df *ABS*	00000000 vfprintf.c
04007d34 l     F .text	00000058 __sprint_r
04016662 l     O .rodata	00000010 blanks.3452
04016652 l     O .rodata	00000010 zeroes.3453
00000000 l    df *ABS*	00000000 vfprintf_1.c
00000000 l    df *ABS*	00000000 vsnprintf.c
00000000 l    df *ABS*	00000000 writer.c
00000000 l    df *ABS*	00000000 wsetup.c
00000000 l    df *ABS*	00000000 closer.c
00000000 l    df *ABS*	00000000 dtoa.c
04009f78 l     F .text	00000218 quorem
00000000 l    df *ABS*	00000000 flags.c
00000000 l    df *ABS*	00000000 fputc.c
00000000 l    df *ABS*	00000000 fputs.c
00000000 l    df *ABS*	00000000 fvwrite.c
00000000 l    df *ABS*	00000000 isattyr.c
00000000 l    df *ABS*	00000000 locale.c
04018520 l     O .rwdata	00000004 charset
04016694 l     O .rodata	00000030 lconv
00000000 l    df *ABS*	00000000 lseekr.c
00000000 l    df *ABS*	00000000 memchr.c
00000000 l    df *ABS*	00000000 memcpy.c
00000000 l    df *ABS*	00000000 memmove.c
00000000 l    df *ABS*	00000000 mprec.c
040167dc l     O .rodata	0000000c p05.2458
00000000 l    df *ABS*	00000000 putc.c
00000000 l    df *ABS*	00000000 readr.c
00000000 l    df *ABS*	00000000 mallocr.c
00000000 l    df *ABS*	00000000 s_isinfd.c
00000000 l    df *ABS*	00000000 s_isnand.c
00000000 l    df *ABS*	00000000 strcmp.c
00000000 l    df *ABS*	00000000 wbuf.c
00000000 l    df *ABS*	00000000 mallocr.c
00000000 l    df *ABS*	00000000 libgcc2.c
00000000 l    df *ABS*	00000000 libgcc2.c
00000000 l    df *ABS*	00000000 dp-bit.c
0400e8e0 l     F .text	00000410 _fpadd_parts
00000000 l    df *ABS*	00000000 dp-bit.c
00000000 l    df *ABS*	00000000 dp-bit.c
00000000 l    df *ABS*	00000000 dp-bit.c
00000000 l    df *ABS*	00000000 dp-bit.c
00000000 l    df *ABS*	00000000 dp-bit.c
00000000 l    df *ABS*	00000000 dp-bit.c
00000000 l    df *ABS*	00000000 dp-bit.c
00000000 l    df *ABS*	00000000 dp-bit.c
00000000 l    df *ABS*	00000000 dp-bit.c
00000000 l    df *ABS*	00000000 dp-bit.c
00000000 l    df *ABS*	00000000 dp-bit.c
00000000 l    df *ABS*	00000000 libgcc2.c
00000000 l    df *ABS*	00000000 dp-bit.c
00000000 l    df *ABS*	00000000 dp-bit.c
00000000 l    df *ABS*	00000000 dp-bit.c
00000000 l    df *ABS*	00000000 alt_close.c
040100b4 l     F .text	00000060 alt_get_errno
00000000 l    df *ABS*	00000000 alt_dev.c
04010114 l     F .text	0000002c alt_dev_null_write
00000000 l    df *ABS*	00000000 alt_errno.c
00000000 l    df *ABS*	00000000 alt_fstat.c
04010214 l     F .text	00000060 alt_get_errno
00000000 l    df *ABS*	00000000 alt_irq_register.c
00000000 l    df *ABS*	00000000 alt_irq_vars.c
00000000 l    df *ABS*	00000000 alt_isatty.c
040104f4 l     F .text	00000060 alt_get_errno
00000000 l    df *ABS*	00000000 alt_load.c
040105d4 l     F .text	0000006c alt_load_section
00000000 l    df *ABS*	00000000 alt_lseek.c
04010730 l     F .text	00000060 alt_get_errno
00000000 l    df *ABS*	00000000 alt_main.c
00000000 l    df *ABS*	00000000 alt_malloc_lock.c
00000000 l    df *ABS*	00000000 alt_open.c
0401083c l     F .text	000000dc alt_file_locked
04010aa0 l     F .text	00000060 alt_get_errno
00000000 l    df *ABS*	00000000 alt_read.c
04010c20 l     F .text	00000060 alt_get_errno
00000000 l    df *ABS*	00000000 alt_release_fd.c
00000000 l    df *ABS*	00000000 alt_sbrk.c
04018540 l     O .rwdata	00000004 heap_end
00000000 l    df *ABS*	00000000 alt_usleep.c
00000000 l    df *ABS*	00000000 alt_write.c
04010eec l     F .text	00000060 alt_get_errno
00000000 l    df *ABS*	00000000 alt_sys_init.c
040172c8 l     O .rwdata	000000c8 epcs_controlle
04017390 l     O .rwdata	00001060 jtag_uart_0
040183f0 l     O .rwdata	000000c4 uart0
040184b4 l     O .rwdata	00000028 altera_hostfs
040184dc l     O .rwdata	00000030 altera_ro_zipfs
04011040 l     F .text	00000038 alt_dev_reg
00000000 l    df *ABS*	00000000 altera_avalon_epcs_flash_controller.c
04011104 l     F .text	00000288 alt_epcs_flash_query
040110cc l     F .text	00000038 alt_flash_device_register
0401138c l     F .text	00000108 alt_epcs_flash_memcmp
04011814 l     F .text	00000094 alt_epcs_test_address
00000000 l    df *ABS*	00000000 altera_avalon_jtag_uart_fd.c
00000000 l    df *ABS*	00000000 altera_avalon_jtag_uart_init.c
04011c64 l     F .text	00000228 altera_avalon_jtag_uart_irq
04011e8c l     F .text	000000b0 altera_avalon_jtag_uart_timeout
00000000 l    df *ABS*	00000000 altera_avalon_jtag_uart_ioctl.c
00000000 l    df *ABS*	00000000 altera_avalon_jtag_uart_read.c
00000000 l    df *ABS*	00000000 altera_avalon_jtag_uart_write.c
00000000 l    df *ABS*	00000000 altera_avalon_timer_vars.c
00000000 l    df *ABS*	00000000 altera_avalon_uart_fd.c
00000000 l    df *ABS*	00000000 altera_avalon_uart_init.c
040126c8 l     F .text	0000009c altera_avalon_uart_irq
04012764 l     F .text	000000e0 altera_avalon_uart_rxirq
04012844 l     F .text	0000015c altera_avalon_uart_txirq
00000000 l    df *ABS*	00000000 altera_avalon_uart_read.c
04012c30 l     F .text	00000060 alt_get_errno
00000000 l    df *ABS*	00000000 altera_avalon_uart_write.c
04012e58 l     F .text	00000060 alt_get_errno
00000000 l    df *ABS*	00000000 altera_hostfs.c
04018544 l     O .rwdata	00000004 hcinfo.2234
04018550 l     O .rwdata	00000004 hcinfo.2276
0401855c l     O .rwdata	00000004 hcinfo.2289
04018568 l     O .rwdata	00000004 hcinfo.2311
04018574 l     O .rwdata	00000004 hcinfo.2333
04018580 l     O .rwdata	00000004 hcinfo.2368
00000000 l    df *ABS*	00000000 altera_ro_zipfs.c
04013458 l     F .text	00000074 read_word
040134cc l     F .text	00000050 read_word_inc
0401351c l     F .text	00000048 read_half_word
04013564 l     F .text	00000050 read_half_word_inc
040135b4 l     F .text	00000118 check_file_header
040137f8 l     F .text	000000a0 check_directory_table
04013898 l     F .text	000000ac find_directory_entry
04013944 l     F .text	00000160 find_file_entry_by_name
04013aa4 l     F .text	00000180 find_file_entry
00000000 l    df *ABS*	00000000 epcs_commands.c
04014120 l     F .text	00000038 epcs_await_wip_released
04014158 l     F .text	00000038 epcs_test_wip
00000000 l    df *ABS*	00000000 alt_alarm_start.c
00000000 l    df *ABS*	00000000 alt_busy_sleep.c
00000000 l    df *ABS*	00000000 alt_dcache_flush_all.c
00000000 l    df *ABS*	00000000 alt_dev_llist_insert.c
04014a34 l     F .text	00000060 alt_get_errno
00000000 l    df *ABS*	00000000 alt_do_ctors.c
00000000 l    df *ABS*	00000000 alt_do_dtors.c
00000000 l    df *ABS*	00000000 alt_find_dev.c
00000000 l    df *ABS*	00000000 alt_find_file.c
00000000 l    df *ABS*	00000000 alt_flash_dev.c
00000000 l    df *ABS*	00000000 alt_fs_reg.c
00000000 l    df *ABS*	00000000 alt_get_fd.c
00000000 l    df *ABS*	00000000 alt_icache_flush_all.c
00000000 l    df *ABS*	00000000 alt_iic.c
00000000 l    df *ABS*	00000000 alt_iic_isr_register.c
00000000 l    df *ABS*	00000000 alt_io_redirect.c
04015224 l     F .text	000000c4 alt_open_fd
00000000 l    df *ABS*	00000000 alt_tick.c
00000000 l    df *ABS*	00000000 altera_nios2_qsys_irq.c
00000000 l    df *ABS*	00000000 altera_avalon_spi.c
00000000 l    df *ABS*	00000000 alt_icache_flush.c
00000000 l    df *ABS*	00000000 atexit.c
00000000 l    df *ABS*	00000000 exit.c
00000000 l    df *ABS*	00000000 memcmp.c
00000000 l    df *ABS*	00000000 strncmp.c
00000000 l    df *ABS*	00000000 __atexit.c
00000000 l    df *ABS*	00000000 __call_atexit.c
04015ad0 l     F .text	00000004 register_fini
00000000 l    df *ABS*	00000000 alt_exit.c
04015c84 l     F .text	00000040 alt_sim_halt
0400c5e8 g     F .text	00000094 _mprec_log10
04011714 g     F .text	00000090 alt_epcs_flash_get_info
04002f64 g     F .text	000000d4 file_write
0400c6d4 g     F .text	00000088 __any_on
0400bdcc g     F .text	00000070 _isatty_r
040167b4 g     O .rodata	00000028 __mprec_tinytens
04010790 g     F .text	0000006c alt_main
040033d8 g     F .text	000001e0 InitMotorValue
040036e8 g     F .text	000000bc Send4XwheelPwm
04006fb0 g     F .text	000000a0 _puts_r
0421a3a4 g     O .bss	00000100 alt_irq
0400bf00 g     F .text	00000078 _lseek_r
0401859c g       *ABS*	00000000 __flash_rwdata_start
0400b744 g     F .text	000000a0 __sflags
0400f400 g     F .text	00000088 __eqdf2
0421a634 g       *ABS*	00000000 __alt_heap_start
04006f38 g     F .text	00000044 printf
04007500 g     F .text	00000068 __sseek
0400559c g     F .text	000000a4 __sinit
0400db54 g     F .text	00000130 __swbuf_r
040042b4 g     F .text	0000004c DoDisableTimerInterrupt
0400be60 g     F .text	00000084 _setlocale_r
0400569c g     F .text	00000068 __sfmoreglue
0401081c g     F .text	00000020 __malloc_unlock
0400440c g     F .text	0000006c TimerISR
04012eb8 g     F .text	00000154 alt_hostfs_open
040037a4 g     F .text	00000078 Send4XwheelDir
04007644 g     F .text	00000674 strerror
0400116c g     F .text	00000fb0 PackUartDataToHost
04002c08 g     F .text	00000044 log_set_level
0401a30c g     O .bss	00000004 altera_avalon_timer_ts_freq
0400c0fc g     F .text	000000e0 memmove
0400568c g     F .text	00000010 _cleanup
040072b4 g     F .text	000000bc snprintf
0400c75c g     F .text	000000bc _Balloc
04004bf0 g     F .text	00000094 __fixsfsi
040033bc g     F .text	0000001c log_init
040001e0 g     F .text	0000009c NiosProcessMain
04002bb4 g     F .text	00000054 ShowDebugMesspage
0400f510 g     F .text	00000088 __gtdf2
00000000  w      *UND*	00000000 __errno
04014028 g     F .text	000000f8 epcs_sector_erase
040022e0 g     F .text	00000048 TimeDely
00000000 g     F .entry	00000000 __reset
0411a340 g     O .bss	00100000 gc_debug_buf
04000000 g       *ABS*	00000000 __flash_exceptions_start
04006204 g     F .text	00000074 _fstat_r
0401a2dc g     O .bss	00000004 errno
04000a44 g     F .text	00000240 UnpackHostPackage
0401a300 g     O .bss	00000004 alt_argv
0402050c g       *ABS*	00000000 _gp
04010d9c g     F .text	00000030 usleep
04000ddc g     F .text	00000080 UarTxCrcCal
0400493c g     F .text	00000070 __subsf3
04000fc0 g     F .text	000001ac UartRxbufProcess
04017148 g     O .rwdata	00000180 alt_fd_list
00000000 g       *ABS*	00000000 __alt_mem_epcs_controlle
040131a0 g     F .text	000000a0 alt_hostfs_seek
0401432c g     F .text	00000064 epcs_write_status_register
04014b5c g     F .text	00000094 alt_find_dev
0400c05c g     F .text	000000a0 memcpy
0400458c g     F .text	0000004c DoDisableUartInterrupt
04005680 g     F .text	0000000c _cleanup_r
0400f6a8 g     F .text	000000f8 __floatsidf
04006f24 g     F .text	00000014 perror
04014de0 g     F .text	00000090 alt_fs_reg
040152e8 g     F .text	00000078 alt_io_redirect
04000c84 g     F .text	00000158 UnPackUartDataFromHost
0400f620 g     F .text	00000088 __ltdf2
04015ce8 g       *ABS*	00000000 __DTOR_END__
04007050 g     F .text	00000014 puts
04013c24 g     F .text	00000098 alt_ro_zipfs_open
040118a8 g     F .text	0000011c alt_epcs_flash_write_block
0400c538 g     F .text	000000b0 __ratio
040120a4 g     F .text	00000224 altera_avalon_jtag_uart_read
00000000  w      *UND*	00000000 malloc
04006f7c g     F .text	00000034 _printf_r
04004e80 g     F .text	00000008 __udivsi3
04010434 g     F .text	000000c0 isatty
040166c4 g     O .rodata	000000c8 __mprec_tens
0400be3c g     F .text	00000008 __locale_charset
04009d14 g     F .text	00000040 vsnprintf
04004390 g     F .text	0000007c SetLed
0401575c g     F .text	00000090 alt_icache_flush
0401a2e0 g     O .bss	00000004 __malloc_top_pad
0401851c g     O .rwdata	00000004 __mb_cur_max
0400be44 g     F .text	0000000c _localeconv_r
0400ce54 g     F .text	0000003c __i2b
0400b930 g     F .text	0000049c __sfvwrite_r
04007244 g     F .text	00000070 _sbrk_r
04013060 g     F .text	000000a0 alt_hostfs_read
0400d3bc g     F .text	00000078 _read_r
04017114 g     O .rwdata	0000000c __lc_ctype
04018534 g     O .rwdata	00000004 alt_max_fd
0400fdb8 g     F .text	00000138 __unpack_d
040051e0 g     F .text	00000110 _fclose_r
04005500 g     F .text	00000034 fflush
0401a2e4 g     O .bss	00000004 __malloc_max_sbrked_mem
04010274 g     F .text	000001c0 alt_irq_register
0400ed70 g     F .text	00000074 __adddf3
040117a4 g     F .text	00000070 alt_epcs_flash_erase_block
0400c418 g     F .text	00000120 __b2d
04004674 g     F .text	00000074 UartISR
0400e330 g     F .text	000005b0 __umoddi3
04010640 g     F .text	000000f0 lseek
04018510 g     O .rwdata	00000004 _global_impure_ptr
04014644 g     F .text	00000058 epcs_exit_4_bytes_mode
0400d434 g     F .text	000005f4 _realloc_r
0421a634 g       *ABS*	00000000 __bss_end
0401512c g     F .text	000000f8 alt_iic_isr_register
040153f8 g     F .text	0000010c alt_tick
04003038 g     F .text	00000048 log_write_file
0400dd54 g     F .text	000005dc __udivdi3
0401678c g     O .rodata	00000028 __mprec_bigtens
0400d0b0 g     F .text	00000120 __s2b
0400f878 g     F .text	00000194 __floatunsidf
0400c338 g     F .text	00000060 __mcmp
04012600 g     F .text	000000c8 altera_avalon_uart_init
04005668 g     F .text	00000018 __fp_lock_all
040150e4 g     F .text	00000048 alt_ic_irq_enabled
04015360 g     F .text	00000098 alt_alarm_stop
0401a2f8 g     O .bss	00000004 alt_irq_active
04003654 g     F .text	00000094 MotorTestFun
04013db8 g     F .text	00000148 alt_ro_zipfs_seek
0401300c g     F .text	00000054 alt_hostfs_close
040000cc g     F .exceptions	000000c8 alt_irq_handler
04017120 g     O .rwdata	00000028 alt_dev_null
04005070 g     F .text	000000c8 __unpack_f
0401493c g     F .text	00000044 alt_dcache_flush_all
0400c204 g     F .text	00000070 __hi0bits
0400f7a0 g     F .text	000000d8 __fixdfsi
0401859c g       *ABS*	00000000 __ram_rwdata_end
040009b0 g     F .text	00000048 Thread2
0401852c g     O .rwdata	00000008 alt_dev_list
0400b848 g     F .text	00000058 _fputc_r
04010dcc g     F .text	00000120 write
04003ab8 g     F .text	00000060 Read4XMotorEncoder
0400d2d4 g     F .text	000000e8 _putc_r
04004a88 g     F .text	00000078 __gtsf2
0401686c g       *ABS*	00000000 __ram_rodata_end
04010140 g     F .text	000000d4 fstat
04005904 g     F .text	0000002c fprintf
040027b0 g     F .text	000000a0 PIDinit
0400cf90 g     F .text	00000120 __pow5mult
0401a2ec g     O .bss	00000004 __nlocale_changed
04004e88 g     F .text	00000008 __umodsi3
04014500 g     F .text	0000006c epcs_read_electronic_signature
04002850 g     F .text	000002f8 PIDctrl
0421a634 g       *ABS*	00000000 end
04004f10 g     F .text	00000160 __pack_f
0401a2cc g     O .bss	00000004 gi_debug_buf_idx
04012c90 g     F .text	000001c8 altera_avalon_uart_write
040061e0 g     F .text	00000024 fseek
04011ba4 g     F .text	000000c0 altera_avalon_jtag_uart_init
040039e4 g     F .text	00000050 ClearMotorSensorFifo
04015ce4 g       *ABS*	00000000 __CTOR_LIST__
06000000 g       *ABS*	00000000 __alt_stack_pointer
04012560 g     F .text	00000058 altera_avalon_uart_write_fd
04004e90 g     F .text	00000080 __clzsi2
04007370 g     F .text	000000b4 _snprintf_r
040125b8 g     F .text	00000048 altera_avalon_uart_close_fd
040122c8 g     F .text	00000240 altera_avalon_jtag_uart_write
0400558c g     F .text	00000004 __sfp_lock_acquire
0400bf78 g     F .text	000000e4 memchr
04007d8c g     F .text	00001eac ___vfprintf_internal_r
04007498 g     F .text	00000060 _sprintf_r
04005a90 g     F .text	00000314 _free_r
04015ad4 g     F .text	000001b0 __call_exitprocs
04003b18 g     F .text	00000250 Read4XMotorSpeed
0401a2f0 g     O .bss	00000004 __mlocale_changed
04018518 g     O .rwdata	00000004 __malloc_sbrk_base
04000194 g     F .text	0000004c _start
0401a310 g     O .bss	00000004 _alt_tick_rate
04004478 g     F .text	0000009c SendUart
04007d2c g     F .text	00000008 _user_strerror
04004300 g     F .text	00000090 TimerISRInitial
0400cb20 g     F .text	0000014c __lshift
04015524 g     F .text	00000238 alt_avalon_spi_command
0401a314 g     O .bss	00000004 _alt_nticks
04010b00 g     F .text	00000120 read
04010f80 g     F .text	000000c0 alt_sys_init
04006e40 g     F .text	00000078 _open_r
0401599c g     F .text	00000134 __register_exitproc
040158ac g     F .text	000000f0 strncmp
0400cc6c g     F .text	000001e8 __multiply
04011f3c g     F .text	00000074 altera_avalon_jtag_uart_close
04003a34 g     F .text	00000084 Read4XMotorDir
0401686c g       *ABS*	00000000 __ram_rwdata_start
04015ce8 g       *ABS*	00000000 __ram_rodata_start
0401a318 g     O .bss	00000028 __malloc_current_mallinfo
04004a10 g     F .text	00000078 __eqsf2
0400c818 g     F .text	0000017c __d2b
04013fc8 g     F .text	00000060 epcs_read_status_register
040041d4 g     F .text	000000e0 DoEnableTimerInterrupt
04011a5c g     F .text	00000058 altera_avalon_jtag_uart_read_fd
04014e70 g     F .text	000000b8 alt_get_fd
040147f0 g     F .text	0000014c alt_busy_sleep
0400fef0 g     F .text	000000c8 __fpcmp_parts_d
04009f08 g     F .text	00000070 _close_r
0401456c g     F .text	00000080 epcs_read_device_id
04015838 g     F .text	00000074 memcmp
04011b0c g     F .text	00000048 altera_avalon_jtag_uart_close_fd
0421a634 g       *ABS*	00000000 __alt_stack_base
04011b54 g     F .text	00000050 altera_avalon_jtag_uart_ioctl_fd
040063f8 g     F .text	0000009c _fwrite_r
04009dcc g     F .text	0000013c __swsetup_r
0400f1a8 g     F .text	00000258 __divdf3
040002e0 g     F .text	000000f4 Thread_UpdataHostCmd
04005704 g     F .text	000000f0 __sfp
0400252c g     F .text	00000284 ReadIMU
0400c67c g     F .text	00000058 __copybits
04016d0c g     O .rwdata	00000408 __malloc_av_
04005598 g     F .text	00000004 __sinit_lock_release
04009c60 g     F .text	000000b4 _vsnprintf_r
0400ede4 g     F .text	000003c4 __muldf3
040075e4 g     F .text	00000060 __sread
04015d34 g     O .rodata	00000010 __thenan_sf
0400211c g     F .text	00000094 ShowStatusLed
04014bf0 g     F .text	00000120 alt_find_file
04014980 g     F .text	000000b4 alt_dev_llist_insert
040107fc g     F .text	00000020 __malloc_lock
04005930 g     F .text	00000034 _fprintf_r
04010ce0 g     F .text	000000bc sbrk
04005304 g     F .text	000001fc _fflush_r
0400dca0 g     F .text	000000b4 _calloc_r
0401858c g     O .rwdata	00000008 alt_flash_dev_list
0421a340 g     O .bss	00000064 uctmp
040058e8 g     F .text	0000001c fopen
0401a2cc g       *ABS*	00000000 __bss_start
04003080 g     F .text	0000033c log_to_file
0401a340 g     O .bss	00100000 g_log_buf
04006da8 g     F .text	00000098 memset
04002408 g     F .text	000000d4 testtest
040024dc g     F .text	00000050 main
0401a304 g     O .bss	00000004 alt_envp
0401a2d0 g     O .bss	00000004 msglock
0401a2e8 g     O .bss	00000004 __malloc_max_total_mem
04004514 g     F .text	00000078 DoEnableUartInterrupt
04011ab4 g     F .text	00000058 altera_avalon_jtag_uart_write_fd
0400dc84 g     F .text	0000001c __swbuf
04004b78 g     F .text	00000078 __ltsf2
040045d8 g     F .text	0000009c UartISRInitial
040074f8 g     F .text	00000008 __sclose
06000000 g       *ABS*	00000000 __alt_heap_limit
040052f0 g     F .text	00000014 fclose
0421a4a4 g     O .bss	00000190 _atexit0
0400a190 g     F .text	000015b4 _dtoa_r
04006668 g     F .text	00000740 _malloc_r
04018538 g     O .rwdata	00000004 alt_errno
04006340 g     F .text	000000b8 _fwalk
0400d1d0 g     F .text	00000104 putc
04004dc0 g     F .text	00000060 __divsi3
04013cbc g     F .text	000000fc alt_ro_zipfs_read
040167e8 g     O .rodata	00000014 __thenan_df
04005964 g     F .text	0000012c _malloc_trim_r
04015ce8 g       *ABS*	00000000 __CTOR_END__
04013f70 g     F .text	00000058 alt_ro_zipfs_check_valid
04011494 g     F .text	00000280 alt_epcs_flash_write
0400da98 g     F .text	000000bc strcmp
04015ce8 g       *ABS*	00000000 __flash_rodata_start
04015ce8 g       *ABS*	00000000 __DTOR_LIST__
0400f488 g     F .text	00000088 __nedf2
04013f00 g     F .text	00000070 alt_ro_zipfs_fstat
04010f4c g     F .text	00000034 alt_irq_init
04010c80 g     F .text	00000060 alt_release_fd
04007424 g     F .text	00000074 sprintf
04015d44 g     O .rodata	00000100 __clz_tab
0401a2f4 g     O .bss	00000004 _PathLocale
0400381c g     F .text	000000a4 Send2XMotorDriverEnable
040157ec g     F .text	00000014 atexit
04004b00 g     F .text	00000078 __gesf2
04009d54 g     F .text	00000078 _write_r
040035b8 g     F .text	0000009c MotorDriverInit
0400bee4 g     F .text	0000001c setlocale
0401850c g     O .rwdata	00000004 _impure_ptr
0401a2fc g     O .bss	00000004 alt_argc
0401a308 g     O .bss	00000004 altera_avalon_timer_ts_base
04014af8 g     F .text	00000064 _do_dtors
04005da4 g     F .text	0000043c _fseek_r
04007064 g     F .text	000001c4 __srefill_r
04000000 g       *ABS*	00000000 __alt_mem_sdram_0
04000000 g       .exceptions	00000000 alt_irq_entry
0400c398 g     F .text	00000080 __ulp
0400da28 g     F .text	00000040 __isinfd
04005650 g     F .text	00000018 __fp_unlock_all
0400b7e4 g     F .text	00000064 fputc
04018524 g     O .rwdata	00000008 alt_fs_list
040038c0 g     F .text	00000124 Send4XClrMotorEncoder
04002328 g     F .text	000000e0 InitSystem
04013100 g     F .text	000000a0 alt_hostfs_write
04000000 g       *ABS*	00000000 __ram_exceptions_start
0400be50 g     F .text	00000010 localeconv
04014190 g     F .text	0000014c epcs_read_buffer
04011078 g     F .text	00000054 alt_epcs_flash_init
04014f58 g     F .text	00000050 alt_ic_isr_register
04006494 g     F .text	00000040 fwrite
04000e5c g     F .text	00000080 UarRxCrcCal
0401859c g       *ABS*	00000000 _edata
04012508 g     F .text	00000058 altera_avalon_uart_read_fd
04002b48 g     F .text	0000006c DebugPrintf
0421a634 g       *ABS*	00000000 _end
04014d10 g     F .text	0000007c alt_flash_open_dev
04000194 g       *ABS*	00000000 __ram_exceptions_end
04011fb0 g     F .text	000000f4 altera_avalon_jtag_uart_ioctl
0400b8a0 g     F .text	00000074 _fputs_r
04015044 g     F .text	000000a0 alt_ic_irq_disable
040145ec g     F .text	00000058 epcs_enter_4_bytes_mode
04007568 g     F .text	0000007c __swrite
04018514 g     O .rwdata	00000004 __malloc_trim_threshold
04006eb8 g     F .text	0000006c _perror_r
04000edc g     F .text	000000e4 UartTxbufProcess
04015504 g     F .text	00000020 altera_nios2_qsys_irq_init
04015800 g     F .text	00000038 exit
04006278 g     F .text	000000c8 _fwalk_reent
04004c84 g     F .text	000000c0 __floatunsisf
0400c994 g     F .text	0000018c __mdiff
04014d8c g     F .text	00000054 alt_flash_close_dev
04004e20 g     F .text	00000060 __modsi3
06000000 g       *ABS*	00000000 __alt_data_end
04000000 g     F .exceptions	00000000 alt_exception
04005590 g     F .text	00000004 __sfp_lock_release
040129a0 g     F .text	00000060 altera_avalon_uart_close
040046e8 g     F .text	00000070 __fixunssfsi
04005138 g     F .text	000000a8 __fpcmp_parts_f
040057f4 g     F .text	000000f4 _fopen_r
04015cc4 g     F .text	00000020 _exit
0400da68 g     F .text	00000030 __isnand
0401469c g     F .text	00000154 alt_alarm_start
0400fa0c g     F .text	00000098 __muldi3
040064d4 g     F .text	00000194 __smakebuf_r
0400027c g     F .text	00000064 Thread_ReadSensor
04007cb8 g     F .text	00000074 strlen
040142dc g     F .text	00000050 epcs_write_enable
04010918 g     F .text	00000188 open
0400f598 g     F .text	00000088 __gedf2
04014f28 g     F .text	00000030 alt_icache_flush_all
040003d4 g     F .text	000005a4 Thread_Controller
0400b914 g     F .text	0000001c fputs
04000978 g     F .text	00000038 Thread1
0401853c g     O .rwdata	00000004 alt_priority_mask
04014fa8 g     F .text	0000009c alt_ic_irq_enable
04009c38 g     F .text	00000024 __vfprintf_internal
04012a00 g     F .text	00000230 altera_avalon_uart_read
0400ecf0 g     F .text	00000080 __subdf3
040009f8 g     F .text	0000004c status_report
040119c4 g     F .text	00000098 alt_epcs_flash_read
040021b0 g     F .text	00000130 SelfCircleRunTest
0400c274 g     F .text	000000c4 __lo0bits
04003d68 g     F .text	0000046c Read4XMotorSensor
04018594 g     O .rwdata	00000008 alt_alarm_list
04014a94 g     F .text	00000064 _do_ctors
04002c4c g     F .text	00000318 log_p
0400ffb8 g     F .text	000000fc close
040049ac g     F .text	00000064 __addsf3
04010554 g     F .text	00000080 alt_load
0400faa4 g     F .text	00000314 __pack_d
04009c5c g     F .text	00000004 vfprintf
00000000  w      *UND*	00000000 free
04005594 g     F .text	00000004 __sinit_lock_acquire
04014390 g     F .text	00000170 epcs_write_buffer
0400ce90 g     F .text	00000100 __multadd
0400c1dc g     F .text	00000028 _Bfree
04013240 g     F .text	00000218 alt_hostfs_fstat
040136cc g     F .text	0000012c check_directory_header



Disassembly of section .exceptions:

04000000 <alt_exception>:
         * Process an exception.  For all exceptions we must preserve all
         * caller saved registers on the stack (See the Nios2 ABI
         * documentation for details).
         */

        addi  sp, sp, -76
 4000000:	deffed04 	addi	sp,sp,-76

#endif

#endif

        stw   ra,  0(sp)
 4000004:	dfc00015 	stw	ra,0(sp)
        /*
         * Leave a gap in the stack frame at 4(sp) for the muldiv handler to
         * store zero into.
         */

        stw   r1,   8(sp)
 4000008:	d8400215 	stw	at,8(sp)
        stw   r2,  12(sp)
 400000c:	d8800315 	stw	r2,12(sp)
        stw   r3,  16(sp)
 4000010:	d8c00415 	stw	r3,16(sp)
        stw   r4,  20(sp)
 4000014:	d9000515 	stw	r4,20(sp)
        stw   r5,  24(sp)
 4000018:	d9400615 	stw	r5,24(sp)
        stw   r6,  28(sp)
 400001c:	d9800715 	stw	r6,28(sp)
        stw   r7,  32(sp)
 4000020:	d9c00815 	stw	r7,32(sp)

        rdctl r5, estatus
 4000024:	000b307a 	rdctl	r5,estatus

        stw   r8,  36(sp)
 4000028:	da000915 	stw	r8,36(sp)
        stw   r9,  40(sp)
 400002c:	da400a15 	stw	r9,40(sp)
        stw   r10, 44(sp)
 4000030:	da800b15 	stw	r10,44(sp)
        stw   r11, 48(sp)
 4000034:	dac00c15 	stw	r11,48(sp)
        stw   r12, 52(sp)
 4000038:	db000d15 	stw	r12,52(sp)
        stw   r13, 56(sp)
 400003c:	db400e15 	stw	r13,56(sp)
        stw   r14, 60(sp)
 4000040:	db800f15 	stw	r14,60(sp)
        stw   r15, 64(sp)
 4000044:	dbc01015 	stw	r15,64(sp)
        /*
         * ea-4 contains the address of the instruction being executed
         * when the exception occured. For interrupt exceptions, we will
         * will be re-issue the isntruction. Store it in 72(sp)
         */
        stw   r5,  68(sp)  /* estatus */
 4000048:	d9401115 	stw	r5,68(sp)
        addi  r15, ea, -4  /* instruction that caused exception */
 400004c:	ebffff04 	addi	r15,ea,-4
        stw   r15,  72(sp)
 4000050:	dbc01215 	stw	r15,72(sp)
#else
        /*
         * Test to see if the exception was a software exception or caused 
         * by an external interrupt, and vector accordingly.
         */
        rdctl r4, ipending
 4000054:	0009313a 	rdctl	r4,ipending
        andi  r2, r5, 1
 4000058:	2880004c 	andi	r2,r5,1
        beq   r2, zero, .Lnot_irq
 400005c:	10000326 	beq	r2,zero,400006c <alt_exception+0x6c>
        beq   r4, zero, .Lnot_irq
 4000060:	20000226 	beq	r4,zero,400006c <alt_exception+0x6c>
        /*
         * Now that all necessary registers have been preserved, call 
         * alt_irq_handler() to process the interrupts.
         */

        call alt_irq_handler
 4000064:	40000cc0 	call	40000cc <alt_irq_handler>

        .section .exceptions.irqreturn, "xa"

        br    .Lexception_exit
 4000068:	00000306 	br	4000078 <alt_exception+0x78>
         * upon completion, so we write ea (address of instruction *after*
         * the one where the exception occured) into 72(sp). The actual
         * instruction that caused the exception is written in r2, which these
         * handlers will utilize.
         */
        stw   ea,  72(sp)  /* Don't re-issue */
 400006c:	df401215 	stw	ea,72(sp)
        ldw   r2, -4(ea)   /* Instruction that caused exception */
 4000070:	e8bfff17 	ldw	r2,-4(ea)
#ifdef NIOS2_HAS_DEBUG_STUB
       /*
        *  Either tell the user now (if there is a debugger attached) or go into
        *  the debug monitor which will loop until a debugger is attached.
        */
        break
 4000074:	003da03a 	break	0
        /* 
         * Restore the saved registers, so that all general purpose registers 
         * have been restored to their state at the time the interrupt occured.
         */

        ldw   r5,  68(sp)
 4000078:	d9401117 	ldw	r5,68(sp)
        ldw   ea,  72(sp)  /* This becomes the PC once eret is executed */
 400007c:	df401217 	ldw	ea,72(sp)
        ldw   ra,   0(sp)
 4000080:	dfc00017 	ldw	ra,0(sp)

        wrctl estatus, r5
 4000084:	2801707a 	wrctl	estatus,r5

        ldw   r1,   8(sp)
 4000088:	d8400217 	ldw	at,8(sp)
        ldw   r2,  12(sp)
 400008c:	d8800317 	ldw	r2,12(sp)
        ldw   r3,  16(sp)
 4000090:	d8c00417 	ldw	r3,16(sp)
        ldw   r4,  20(sp)
 4000094:	d9000517 	ldw	r4,20(sp)
        ldw   r5,  24(sp)
 4000098:	d9400617 	ldw	r5,24(sp)
        ldw   r6,  28(sp)
 400009c:	d9800717 	ldw	r6,28(sp)
        ldw   r7,  32(sp)
 40000a0:	d9c00817 	ldw	r7,32(sp)
#ifdef ALT_STACK_CHECK
        ldw   et, %gprel(alt_exception_old_stack_limit)(gp)
#endif
#endif

        ldw   r8,  36(sp)
 40000a4:	da000917 	ldw	r8,36(sp)
        ldw   r9,  40(sp)
 40000a8:	da400a17 	ldw	r9,40(sp)
        ldw   r10, 44(sp)
 40000ac:	da800b17 	ldw	r10,44(sp)
        ldw   r11, 48(sp)
 40000b0:	dac00c17 	ldw	r11,48(sp)
        ldw   r12, 52(sp)
 40000b4:	db000d17 	ldw	r12,52(sp)
        ldw   r13, 56(sp)
 40000b8:	db400e17 	ldw	r13,56(sp)
        ldw   r14, 60(sp)
 40000bc:	db800f17 	ldw	r14,60(sp)
        ldw   r15, 64(sp)
 40000c0:	dbc01017 	ldw	r15,64(sp)
#endif

        ldw   sp,  76(sp)

#else
        addi  sp, sp, 76
 40000c4:	dec01304 	addi	sp,sp,76

        /*
         * Return to the interrupted instruction.
         */

        eret
 40000c8:	ef80083a 	eret

040000cc <alt_irq_handler>:
 * instruction is present if the macro ALT_CI_INTERRUPT_VECTOR defined.
 */

void alt_irq_handler (void) __attribute__ ((section (".exceptions")));
void alt_irq_handler (void)
{
 40000cc:	defff904 	addi	sp,sp,-28
 40000d0:	dfc00615 	stw	ra,24(sp)
 40000d4:	df000515 	stw	fp,20(sp)
 40000d8:	df000504 	addi	fp,sp,20
#ifndef NIOS2_EIC_PRESENT
static ALT_INLINE alt_u32 ALT_ALWAYS_INLINE alt_irq_pending (void)
{
  alt_u32 active;

  NIOS2_READ_IPENDING (active);
 40000dc:	0005313a 	rdctl	r2,ipending
 40000e0:	e0bffc15 	stw	r2,-16(fp)

  return active;
 40000e4:	e0bffc17 	ldw	r2,-16(fp)
   * Consider the case where the high priority interupt is asserted during
   * the interrupt entry sequence for a lower priority interrupt to see why
   * this is the case.
   */

  active = alt_irq_pending ();
 40000e8:	e0bfff15 	stw	r2,-4(fp)

  do
  {
    i = 0;
 40000ec:	e03ffd15 	stw	zero,-12(fp)
    mask = 1;
 40000f0:	00800044 	movi	r2,1
 40000f4:	e0bffe15 	stw	r2,-8(fp)
     * called to clear the interrupt condition.
     */

    do
    {
      if (active & mask)
 40000f8:	e0ffff17 	ldw	r3,-4(fp)
 40000fc:	e0bffe17 	ldw	r2,-8(fp)
 4000100:	1884703a 	and	r2,r3,r2
 4000104:	1005003a 	cmpeq	r2,r2,zero
 4000108:	1000161e 	bne	r2,zero,4000164 <alt_irq_handler+0x98>
      { 
#ifdef ALT_ENHANCED_INTERRUPT_API_PRESENT
        alt_irq[i].handler(alt_irq[i].context); 
 400010c:	e0bffd17 	ldw	r2,-12(fp)
 4000110:	00c108b4 	movhi	r3,1058
 4000114:	18e8e904 	addi	r3,r3,-23644
 4000118:	100490fa 	slli	r2,r2,3
 400011c:	10c5883a 	add	r2,r2,r3
 4000120:	11400017 	ldw	r5,0(r2)
 4000124:	e0bffd17 	ldw	r2,-12(fp)
 4000128:	00c108b4 	movhi	r3,1058
 400012c:	18e8e904 	addi	r3,r3,-23644
 4000130:	100490fa 	slli	r2,r2,3
 4000134:	10c5883a 	add	r2,r2,r3
 4000138:	10800104 	addi	r2,r2,4
 400013c:	11000017 	ldw	r4,0(r2)
 4000140:	283ee83a 	callr	r5
#ifndef NIOS2_EIC_PRESENT
static ALT_INLINE alt_u32 ALT_ALWAYS_INLINE alt_irq_pending (void)
{
  alt_u32 active;

  NIOS2_READ_IPENDING (active);
 4000144:	0005313a 	rdctl	r2,ipending
 4000148:	e0bffb15 	stw	r2,-20(fp)

  return active;
 400014c:	e0bffb17 	ldw	r2,-20(fp)
      mask <<= 1;
      i++;

    } while (1);

    active = alt_irq_pending ();
 4000150:	e0bfff15 	stw	r2,-4(fp)
    
  } while (active);
 4000154:	e0bfff17 	ldw	r2,-4(fp)
 4000158:	1004c03a 	cmpne	r2,r2,zero
 400015c:	103fe31e 	bne	r2,zero,40000ec <alt_irq_handler+0x20>
 4000160:	00000706 	br	4000180 <alt_irq_handler+0xb4>
#else
        alt_irq[i].handler(alt_irq[i].context, i); 
#endif
        break;
      }
      mask <<= 1;
 4000164:	e0bffe17 	ldw	r2,-8(fp)
 4000168:	1085883a 	add	r2,r2,r2
 400016c:	e0bffe15 	stw	r2,-8(fp)
      i++;
 4000170:	e0bffd17 	ldw	r2,-12(fp)
 4000174:	10800044 	addi	r2,r2,1
 4000178:	e0bffd15 	stw	r2,-12(fp)

    } while (1);
 400017c:	003fde06 	br	40000f8 <alt_irq_handler+0x2c>
  /*
   * Notify the operating system that interrupt processing is complete.
   */ 

  ALT_OS_INT_EXIT();
}
 4000180:	e037883a 	mov	sp,fp
 4000184:	dfc00117 	ldw	ra,4(sp)
 4000188:	df000017 	ldw	fp,0(sp)
 400018c:	dec00204 	addi	sp,sp,8
 4000190:	f800283a 	ret

Disassembly of section .text:

04000194 <_start>:

    /* Assume the data cache size is always a power of two. */
#if NIOS2_DCACHE_SIZE > 0x8000
    movhi r2, %hi(NIOS2_DCACHE_SIZE)
#else
    movui r2, NIOS2_DCACHE_SIZE
 4000194:	00820014 	movui	r2,2048
#endif

0:
    initd 0(r2)
 4000198:	10000033 	initd	0(r2)
    addi r2, r2, -NIOS2_DCACHE_LINE_SIZE
 400019c:	10bff804 	addi	r2,r2,-32
    bgt r2, zero, 0b
 40001a0:	00bffd16 	blt	zero,r2,4000198 <_start+0x4>
#if (NIOS2_NUM_OF_SHADOW_REG_SETS == 0)    
    /*
     * Now that the caches are initialized, set up the stack pointer.
     * The value provided by the linker is assumed to be correctly aligned.
     */
    movhi sp, %hi(__alt_stack_pointer)
 40001a4:	06c18034 	movhi	sp,1536
    ori sp, sp, %lo(__alt_stack_pointer)
 40001a8:	dec00014 	ori	sp,sp,0

    /* Set up the global pointer. */
    movhi gp, %hi(_gp)
 40001ac:	068100b4 	movhi	gp,1026
    ori gp, gp, %lo(_gp)
 40001b0:	d6814314 	ori	gp,gp,1292
 */
#ifndef ALT_SIM_OPTIMIZE
    /* Log that the BSS is about to be cleared. */
    ALT_LOG_PUTS(alt_log_msg_bss)

    movhi r2, %hi(__bss_start)
 40001b4:	00810074 	movhi	r2,1025
    ori r2, r2, %lo(__bss_start)
 40001b8:	10a8b314 	ori	r2,r2,41676

    movhi r3, %hi(__bss_end)
 40001bc:	00c10874 	movhi	r3,1057
    ori r3, r3, %lo(__bss_end)
 40001c0:	18e98d14 	ori	r3,r3,42548

    beq r2, r3, 1f
 40001c4:	10c00326 	beq	r2,r3,40001d4 <_start+0x40>

0:
    stw zero, (r2)
 40001c8:	10000015 	stw	zero,0(r2)
    addi r2, r2, 4
 40001cc:	10800104 	addi	r2,r2,4
    bltu r2, r3, 0b
 40001d0:	10fffd36 	bltu	r2,r3,40001c8 <_start+0x34>
     * section aren't defined until alt_load() has been called).
     */
    mov   et, zero
#endif

    call alt_load
 40001d4:	40105540 	call	4010554 <alt_load>

    /* Log that alt_main is about to be called. */
    ALT_LOG_PUTS(alt_log_msg_alt_main)

    /* Call the C entry point. It should never return. */
    call alt_main
 40001d8:	40107900 	call	4010790 <alt_main>

040001dc <alt_after_alt_main>:

    /* Wait in infinite loop in case alt_main does return. */
alt_after_alt_main:
    br alt_after_alt_main
 40001dc:	003fff06 	br	40001dc <alt_after_alt_main>

040001e0 <NiosProcessMain>:
    void PackUartDataToHost(sNios_s *sNios);

/*----------- declare function end ---------*/

/* doing process schedule */
void NiosProcessMain(sNios_s *sNios) {
 40001e0:	defffd04 	addi	sp,sp,-12
 40001e4:	dfc00215 	stw	ra,8(sp)
 40001e8:	df000115 	stw	fp,4(sp)
 40001ec:	df000104 	addi	fp,sp,4
 40001f0:	e13fff15 	stw	r4,-4(fp)
	/* Nios最主要執行的中斷服務程式  */
    /* write time process to here */
    if(sNios->sTimer0.ucTimeout == 1){  /* check interrupt timeout */
 40001f4:	e0bfff17 	ldw	r2,-4(fp)
 40001f8:	10804703 	ldbu	r2,284(r2)
 40001fc:	10803fcc 	andi	r2,r2,255
 4000200:	10800058 	cmpnei	r2,r2,1
 4000204:	1000181e 	bne	r2,zero,4000268 <NiosProcessMain+0x88>
        sNios->sTimer0.ucTimeout = 0;   /* clear timeout */
 4000208:	e0bfff17 	ldw	r2,-4(fp)
 400020c:	10004705 	stb	zero,284(r2)
        if(sNios->sTimer0.uiTICnt % 10==0){ /* every 10ms to send Nios data to Host */
 4000210:	e0bfff17 	ldw	r2,-4(fp)
 4000214:	11004617 	ldw	r4,280(r2)
 4000218:	01400284 	movi	r5,10
 400021c:	4004e880 	call	4004e88 <__umodsi3>
 4000220:	1004c03a 	cmpne	r2,r2,zero
 4000224:	10000a1e 	bne	r2,zero,4000250 <NiosProcessMain+0x70>
            if(sNios->cFlagPackDataToHost == 0) {
 4000228:	e0bfff17 	ldw	r2,-4(fp)
 400022c:	10800003 	ldbu	r2,0(r2)
 4000230:	10803fcc 	andi	r2,r2,255
 4000234:	1080201c 	xori	r2,r2,128
 4000238:	10bfe004 	addi	r2,r2,-128
 400023c:	1004c03a 	cmpne	r2,r2,zero
 4000240:	1000031e 	bne	r2,zero,4000250 <NiosProcessMain+0x70>
               sNios->cFlagPackDataToHost = 1; /* set packdata to host = 1*/
 4000244:	e0ffff17 	ldw	r3,-4(fp)
 4000248:	00800044 	movi	r2,1
 400024c:	18800005 	stb	r2,0(r3)
            }
        }
        /* read sensor */
        Thread_ReadSensor(sNios);		/* read sensor value*/
 4000250:	e13fff17 	ldw	r4,-4(fp)
 4000254:	400027c0 	call	400027c <Thread_ReadSensor>
        /* update host command */
        Thread_UpdataHostCmd(sNios);	/* process Host package and update command */
 4000258:	e13fff17 	ldw	r4,-4(fp)
 400025c:	40002e00 	call	40002e0 <Thread_UpdataHostCmd>

        /* controller */
        Thread_Controller(sNios);
 4000260:	e13fff17 	ldw	r4,-4(fp)
 4000264:	40003d40 	call	40003d4 <Thread_Controller>
    }

}
 4000268:	e037883a 	mov	sp,fp
 400026c:	dfc00117 	ldw	ra,4(sp)
 4000270:	df000017 	ldw	fp,0(sp)
 4000274:	dec00204 	addi	sp,sp,8
 4000278:	f800283a 	ret

0400027c <Thread_ReadSensor>:

void Thread_ReadSensor(sNios_s *sNios) {
 400027c:	defffd04 	addi	sp,sp,-12
 4000280:	dfc00215 	stw	ra,8(sp)
 4000284:	df000115 	stw	fp,4(sp)
 4000288:	df000104 	addi	fp,sp,4
 400028c:	e13fff15 	stw	r4,-4(fp)
     Read4XMotorDir    (&sNios->sMotor);   /* read motor feed back direction */
 4000290:	e0bfff17 	ldw	r2,-4(fp)
 4000294:	11000104 	addi	r4,r2,4
 4000298:	4003a340 	call	4003a34 <Read4XMotorDir>
     Read4XMotorEncoder(&sNios->sMotor);   /* read motor feedback encoder */
 400029c:	e0bfff17 	ldw	r2,-4(fp)
 40002a0:	11000104 	addi	r4,r2,4
 40002a4:	4003ab80 	call	4003ab8 <Read4XMotorEncoder>
     Read4XMotorSpeed  (&sNios->sMotor);   /* read motor speed */
 40002a8:	e0bfff17 	ldw	r2,-4(fp)
 40002ac:	11000104 	addi	r4,r2,4
 40002b0:	4003b180 	call	4003b18 <Read4XMotorSpeed>
     Read4XMotorSensor (&sNios->sMotor);   /* read motor voltage and current */
 40002b4:	e0bfff17 	ldw	r2,-4(fp)
 40002b8:	11000104 	addi	r4,r2,4
 40002bc:	4003d680 	call	4003d68 <Read4XMotorSensor>
     ReadIMU           (&sNios->sIMU);				/* read IMU sensor */
 40002c0:	e0bfff17 	ldw	r2,-4(fp)
 40002c4:	11024b04 	addi	r4,r2,2348
 40002c8:	400252c0 	call	400252c <ReadIMU>
}
 40002cc:	e037883a 	mov	sp,fp
 40002d0:	dfc00117 	ldw	ra,4(sp)
 40002d4:	df000017 	ldw	fp,0(sp)
 40002d8:	dec00204 	addi	sp,sp,8
 40002dc:	f800283a 	ret

040002e0 <Thread_UpdataHostCmd>:

void Thread_UpdataHostCmd(sNios_s *sNios) {
 40002e0:	defffd04 	addi	sp,sp,-12
 40002e4:	dfc00215 	stw	ra,8(sp)
 40002e8:	df000115 	stw	fp,4(sp)
 40002ec:	df000104 	addi	fp,sp,4
 40002f0:	e13fff15 	stw	r4,-4(fp)
    if((sNios->sTimer0.uiTICnt % HostCmdTimeUnit) == 0 ||(sNios->sTimer0.uiTICnt==1)){/* update Host Command time unit */
 40002f4:	e0bfff17 	ldw	r2,-4(fp)
 40002f8:	11004617 	ldw	r4,280(r2)
 40002fc:	01400784 	movi	r5,30
 4000300:	4004e880 	call	4004e88 <__umodsi3>
 4000304:	1005003a 	cmpeq	r2,r2,zero
 4000308:	1000041e 	bne	r2,zero,400031c <Thread_UpdataHostCmd+0x3c>
 400030c:	e0bfff17 	ldw	r2,-4(fp)
 4000310:	10804617 	ldw	r2,280(r2)
 4000314:	10800058 	cmpnei	r2,r2,1
 4000318:	1000291e 	bne	r2,zero,40003c0 <Thread_UpdataHostCmd+0xe0>
        if(sNios->cFlagUnpackHostComplete){     /* update motor Speed command*/
 400031c:	e0bfff17 	ldw	r2,-4(fp)
 4000320:	10800043 	ldbu	r2,1(r2)
 4000324:	10803fcc 	andi	r2,r2,255
 4000328:	1080201c 	xori	r2,r2,128
 400032c:	10bfe004 	addi	r2,r2,-128
 4000330:	1005003a 	cmpeq	r2,r2,zero
 4000334:	1000221e 	bne	r2,zero,40003c0 <Thread_UpdataHostCmd+0xe0>
//                sNios->sPID_MA.uiSpdCntCmd = 16;
//                sNios->sPID_MB.fRefCom = 0;
//                sNios->sPID_MC.fRefCom = 0;
//                sNios->sPID_MD.fRefCom = 0;
            /* for running */
                sNios->sPID_MA.uiSpdCntCmd = sNios->sMotor.sMotorAp.uiHostMotorSpdCmd;
 4000338:	e0bfff17 	ldw	r2,-4(fp)
 400033c:	10c00d17 	ldw	r3,52(r2)
 4000340:	e0bfff17 	ldw	r2,-4(fp)
 4000344:	10c25715 	stw	r3,2396(r2)
                sNios->sPID_MB.uiSpdCntCmd = sNios->sMotor.sMotorBp.uiHostMotorSpdCmd;
 4000348:	e0bfff17 	ldw	r2,-4(fp)
 400034c:	10c01c17 	ldw	r3,112(r2)
 4000350:	e0bfff17 	ldw	r2,-4(fp)
 4000354:	10c26415 	stw	r3,2448(r2)
                sNios->sPID_MC.uiSpdCntCmd = sNios->sMotor.sMotorCp.uiHostMotorSpdCmd;
 4000358:	e0bfff17 	ldw	r2,-4(fp)
 400035c:	10c02b17 	ldw	r3,172(r2)
 4000360:	e0bfff17 	ldw	r2,-4(fp)
 4000364:	10c27115 	stw	r3,2500(r2)
                sNios->sPID_MD.uiSpdCntCmd = sNios->sMotor.sMotorDp.uiHostMotorSpdCmd;
 4000368:	e0bfff17 	ldw	r2,-4(fp)
 400036c:	10c03a17 	ldw	r3,232(r2)
 4000370:	e0bfff17 	ldw	r2,-4(fp)
 4000374:	10c27e15 	stw	r3,2552(r2)
//                LOGD("0x%x\n", sNios->sPID_MA.uiSpdCntCmd);
        /* update motor direction command*/
                sNios->sMotor.sMotorAp.uiMotorDirCmd = sNios->sMotor.sMotorAp.uiHostMotorDirCmd;     /* store motor A direction */
 4000378:	e0bfff17 	ldw	r2,-4(fp)
 400037c:	10c00e17 	ldw	r3,56(r2)
 4000380:	e0bfff17 	ldw	r2,-4(fp)
 4000384:	10c00715 	stw	r3,28(r2)
                sNios->sMotor.sMotorBp.uiMotorDirCmd = sNios->sMotor.sMotorBp.uiHostMotorDirCmd;     /* store motor B direction */
 4000388:	e0bfff17 	ldw	r2,-4(fp)
 400038c:	10c01d17 	ldw	r3,116(r2)
 4000390:	e0bfff17 	ldw	r2,-4(fp)
 4000394:	10c01615 	stw	r3,88(r2)
                sNios->sMotor.sMotorCp.uiMotorDirCmd = sNios->sMotor.sMotorCp.uiHostMotorDirCmd;     /* store motor C direction */
 4000398:	e0bfff17 	ldw	r2,-4(fp)
 400039c:	10c02c17 	ldw	r3,176(r2)
 40003a0:	e0bfff17 	ldw	r2,-4(fp)
 40003a4:	10c02515 	stw	r3,148(r2)
                sNios->sMotor.sMotorDp.uiMotorDirCmd = sNios->sMotor.sMotorDp.uiHostMotorDirCmd;     /* store motor D direction */
 40003a8:	e0bfff17 	ldw	r2,-4(fp)
 40003ac:	10c03b17 	ldw	r3,236(r2)
 40003b0:	e0bfff17 	ldw	r2,-4(fp)
 40003b4:	10c03415 	stw	r3,208(r2)
//        LOGD("MA_SPD=%x\n", sNios->sMotor.sMotorAp.uiMotorFBSpeed);
//                LOGD("MA_DIR=%x\n", sNios->sMotor.sMotorBp.uiMotorDirCmd);
                sNios->cFlagUnpackHostComplete = 0;
 40003b8:	e0bfff17 	ldw	r2,-4(fp)
 40003bc:	10000045 	stb	zero,1(r2)
        }
    }else {   /* do nothing */   }
}
 40003c0:	e037883a 	mov	sp,fp
 40003c4:	dfc00117 	ldw	ra,4(sp)
 40003c8:	df000017 	ldw	fp,0(sp)
 40003cc:	dec00204 	addi	sp,sp,8
 40003d0:	f800283a 	ret

040003d4 <Thread_Controller>:

void Thread_Controller(sNios_s *sNios) {
 40003d4:	defffb04 	addi	sp,sp,-20
 40003d8:	dfc00415 	stw	ra,16(sp)
 40003dc:	df000315 	stw	fp,12(sp)
 40003e0:	df000304 	addi	fp,sp,12
 40003e4:	e13fff15 	stw	r4,-4(fp)
    float fSensor;
    if(sNios->ucLedRcvHostPackage){/* receive host package*/
 40003e8:	e0bfff17 	ldw	r2,-4(fp)
 40003ec:	10828c43 	ldbu	r2,2609(r2)
 40003f0:	10803fcc 	andi	r2,r2,255
 40003f4:	1005003a 	cmpeq	r2,r2,zero
 40003f8:	1001311e 	bne	r2,zero,40008c0 <Thread_Controller+0x4ec>
    	if(sNios->sMotor.ucEnPID &0x01){/* enable PID controller*/
 40003fc:	e0bfff17 	ldw	r2,-4(fp)
 4000400:	10800103 	ldbu	r2,4(r2)
 4000404:	10803fcc 	andi	r2,r2,255
 4000408:	1080004c 	andi	r2,r2,1
 400040c:	10803fcc 	andi	r2,r2,255
 4000410:	1005003a 	cmpeq	r2,r2,zero
 4000414:	1000f91e 	bne	r2,zero,40007fc <Thread_Controller+0x428>
			if((sNios->sTimer0.uiTICnt % sNios->sPID_MA.uiControlTime) == 0){  /* wait control-time time-up */
 4000418:	e0bfff17 	ldw	r2,-4(fp)
 400041c:	11004617 	ldw	r4,280(r2)
 4000420:	e0bfff17 	ldw	r2,-4(fp)
 4000424:	11426017 	ldw	r5,2432(r2)
 4000428:	4004e880 	call	4004e88 <__umodsi3>
 400042c:	1004c03a 	cmpne	r2,r2,zero
 4000430:	1000371e 	bne	r2,zero,4000510 <Thread_Controller+0x13c>
				if(sNios->sMotor.sMotorAp.uiMotorFBSpeed & 0x8000 ){/* motor A*/
 4000434:	e0bfff17 	ldw	r2,-4(fp)
 4000438:	10800917 	ldw	r2,36(r2)
 400043c:	10a0000c 	andi	r2,r2,32768
 4000440:	1005003a 	cmpeq	r2,r2,zero
 4000444:	1000321e 	bne	r2,zero,4000510 <Thread_Controller+0x13c>
				   sNios->sMotor.sMotorAp.uiMotorFBSpeed &= 0xffff7fff; /* clear dval */
 4000448:	e0bfff17 	ldw	r2,-4(fp)
 400044c:	10c00917 	ldw	r3,36(r2)
 4000450:	00bffff4 	movhi	r2,65535
 4000454:	109fffc4 	addi	r2,r2,32767
 4000458:	1886703a 	and	r3,r3,r2
 400045c:	e0bfff17 	ldw	r2,-4(fp)
 4000460:	10c00915 	stw	r3,36(r2)
		//           LOGD("MA_SPD=%d\n", sNios->sMotor.sMotorAp.uiMotorFBSpeed);

			   /* sensor value normalization */
				   fSensor = ((float )sNios->sMotor.sMotorAp.uiMotorFBSpeed) / ((float ) MotorSpeedCnt24V);
 4000464:	e0bfff17 	ldw	r2,-4(fp)
 4000468:	11000917 	ldw	r4,36(r2)
 400046c:	4004c840 	call	4004c84 <__floatunsisf>
 4000470:	1007883a 	mov	r3,r2
 4000474:	0090a834 	movhi	r2,17056
 4000478:	1885fff2 	custom	255,r2,r3,r2
 400047c:	e0bffe15 	stw	r2,-8(fp)
				   if(fSensor > 1.0 ) fSensor = 1;
 4000480:	e13ffe17 	ldw	r4,-8(fp)
 4000484:	014fe034 	movhi	r5,16256
 4000488:	4004a880 	call	4004a88 <__gtsf2>
 400048c:	10800048 	cmpgei	r2,r2,1
 4000490:	1000011e 	bne	r2,zero,4000498 <Thread_Controller+0xc4>
 4000494:	00000206 	br	40004a0 <Thread_Controller+0xcc>
 4000498:	008fe034 	movhi	r2,16256
 400049c:	e0bffe15 	stw	r2,-8(fp)

				   sNios->sPID_MA.fRefCom = ((float)sNios->sPID_MA.uiSpdCntCmd) / ((float ) MotorSpeedCnt24V);
 40004a0:	e0bfff17 	ldw	r2,-4(fp)
 40004a4:	11025717 	ldw	r4,2396(r2)
 40004a8:	4004c840 	call	4004c84 <__floatunsisf>
 40004ac:	1007883a 	mov	r3,r2
 40004b0:	0090a834 	movhi	r2,17056
 40004b4:	1887fff2 	custom	255,r3,r3,r2
 40004b8:	e0bfff17 	ldw	r2,-4(fp)
 40004bc:	10c25815 	stw	r3,2400(r2)
				   if(sNios->sPID_MA.fRefCom > 1.0 ) sNios->sPID_MA.fRefCom = 1.0;
 40004c0:	e0bfff17 	ldw	r2,-4(fp)
 40004c4:	10825817 	ldw	r2,2400(r2)
 40004c8:	1009883a 	mov	r4,r2
 40004cc:	014fe034 	movhi	r5,16256
 40004d0:	4004a880 	call	4004a88 <__gtsf2>
 40004d4:	10800048 	cmpgei	r2,r2,1
 40004d8:	1000011e 	bne	r2,zero,40004e0 <Thread_Controller+0x10c>
 40004dc:	00000306 	br	40004ec <Thread_Controller+0x118>
 40004e0:	e0ffff17 	ldw	r3,-4(fp)
 40004e4:	008fe034 	movhi	r2,16256
 40004e8:	18825815 	stw	r2,2400(r3)
				   PIDctrl(&sNios->sPID_MA, fSensor); /* PID controller for Motor A*/
 40004ec:	e0bfff17 	ldw	r2,-4(fp)
 40004f0:	11025704 	addi	r4,r2,2396
 40004f4:	e17ffe17 	ldw	r5,-8(fp)
 40004f8:	40028500 	call	4002850 <PIDctrl>
				   /* update PWM command */
				   sNios->sMotor.sMotorAp.ucMotorPWM = (unsigned char )sNios->sPID_MA.iCtrlOutCmd; /* export to motor A driver*/
 40004fc:	e0bfff17 	ldw	r2,-4(fp)
 4000500:	10826317 	ldw	r2,2444(r2)
 4000504:	1007883a 	mov	r3,r2
 4000508:	e0bfff17 	ldw	r2,-4(fp)
 400050c:	10c00805 	stb	r3,32(r2)
		//        		                                      sNios->sMotor.sMotorAp.uiMotorFBCurrentAcc/sNios->sMotor.sMotorAp.uiMotorFBCurrentAccCnt);


			   }
			}
			if((sNios->sTimer0.uiTICnt % sNios->sPID_MB.uiControlTime) == 0){
 4000510:	e0bfff17 	ldw	r2,-4(fp)
 4000514:	11004617 	ldw	r4,280(r2)
 4000518:	e0bfff17 	ldw	r2,-4(fp)
 400051c:	11426d17 	ldw	r5,2484(r2)
 4000520:	4004e880 	call	4004e88 <__umodsi3>
 4000524:	1004c03a 	cmpne	r2,r2,zero
 4000528:	1000371e 	bne	r2,zero,4000608 <Thread_Controller+0x234>
			   if(sNios->sMotor.sMotorBp.uiMotorFBSpeed & 0x8000 ){/* motor A*/
 400052c:	e0bfff17 	ldw	r2,-4(fp)
 4000530:	10801817 	ldw	r2,96(r2)
 4000534:	10a0000c 	andi	r2,r2,32768
 4000538:	1005003a 	cmpeq	r2,r2,zero
 400053c:	1000321e 	bne	r2,zero,4000608 <Thread_Controller+0x234>
				   sNios->sMotor.sMotorBp.uiMotorFBSpeed &= 0xffff7fff; /* clear dval */
 4000540:	e0bfff17 	ldw	r2,-4(fp)
 4000544:	10c01817 	ldw	r3,96(r2)
 4000548:	00bffff4 	movhi	r2,65535
 400054c:	109fffc4 	addi	r2,r2,32767
 4000550:	1886703a 	and	r3,r3,r2
 4000554:	e0bfff17 	ldw	r2,-4(fp)
 4000558:	10c01815 	stw	r3,96(r2)
		//           LOGD("MA_SPD=%d\n", sNios->sMotor.sMotorAp.uiMotorFBSpeed);

			   /* sensor value normalization */
				   fSensor = ((float )sNios->sMotor.sMotorBp.uiMotorFBSpeed) / ((float ) MotorSpeedCnt24V);
 400055c:	e0bfff17 	ldw	r2,-4(fp)
 4000560:	11001817 	ldw	r4,96(r2)
 4000564:	4004c840 	call	4004c84 <__floatunsisf>
 4000568:	1007883a 	mov	r3,r2
 400056c:	0090a834 	movhi	r2,17056
 4000570:	1885fff2 	custom	255,r2,r3,r2
 4000574:	e0bffe15 	stw	r2,-8(fp)
				   if(fSensor > 1.0 ) fSensor = 1;
 4000578:	e13ffe17 	ldw	r4,-8(fp)
 400057c:	014fe034 	movhi	r5,16256
 4000580:	4004a880 	call	4004a88 <__gtsf2>
 4000584:	10800048 	cmpgei	r2,r2,1
 4000588:	1000011e 	bne	r2,zero,4000590 <Thread_Controller+0x1bc>
 400058c:	00000206 	br	4000598 <Thread_Controller+0x1c4>
 4000590:	008fe034 	movhi	r2,16256
 4000594:	e0bffe15 	stw	r2,-8(fp)

				   sNios->sPID_MB.fRefCom = ((float)sNios->sPID_MB.uiSpdCntCmd) / ((float ) MotorSpeedCnt24V);
 4000598:	e0bfff17 	ldw	r2,-4(fp)
 400059c:	11026417 	ldw	r4,2448(r2)
 40005a0:	4004c840 	call	4004c84 <__floatunsisf>
 40005a4:	1007883a 	mov	r3,r2
 40005a8:	0090a834 	movhi	r2,17056
 40005ac:	1887fff2 	custom	255,r3,r3,r2
 40005b0:	e0bfff17 	ldw	r2,-4(fp)
 40005b4:	10c26515 	stw	r3,2452(r2)
				   if(sNios->sPID_MB.fRefCom > 1.0 ) sNios->sPID_MB.fRefCom = 1.0;
 40005b8:	e0bfff17 	ldw	r2,-4(fp)
 40005bc:	10826517 	ldw	r2,2452(r2)
 40005c0:	1009883a 	mov	r4,r2
 40005c4:	014fe034 	movhi	r5,16256
 40005c8:	4004a880 	call	4004a88 <__gtsf2>
 40005cc:	10800048 	cmpgei	r2,r2,1
 40005d0:	1000011e 	bne	r2,zero,40005d8 <Thread_Controller+0x204>
 40005d4:	00000306 	br	40005e4 <Thread_Controller+0x210>
 40005d8:	e0ffff17 	ldw	r3,-4(fp)
 40005dc:	008fe034 	movhi	r2,16256
 40005e0:	18826515 	stw	r2,2452(r3)
				   PIDctrl(&sNios->sPID_MB, fSensor); /* PID controller for Motor B*/
 40005e4:	e0bfff17 	ldw	r2,-4(fp)
 40005e8:	11026404 	addi	r4,r2,2448
 40005ec:	e17ffe17 	ldw	r5,-8(fp)
 40005f0:	40028500 	call	4002850 <PIDctrl>
				   /* update PWM command */
				   sNios->sMotor.sMotorBp.ucMotorPWM = (unsigned char )sNios->sPID_MB.iCtrlOutCmd; /* export to motor B driver*/
 40005f4:	e0bfff17 	ldw	r2,-4(fp)
 40005f8:	10827017 	ldw	r2,2496(r2)
 40005fc:	1007883a 	mov	r3,r2
 4000600:	e0bfff17 	ldw	r2,-4(fp)
 4000604:	10c01705 	stb	r3,92(r2)

			   }
			}
			if((sNios->sTimer0.uiTICnt % sNios->sPID_MC.uiControlTime) == 0){
 4000608:	e0bfff17 	ldw	r2,-4(fp)
 400060c:	11004617 	ldw	r4,280(r2)
 4000610:	e0bfff17 	ldw	r2,-4(fp)
 4000614:	11427a17 	ldw	r5,2536(r2)
 4000618:	4004e880 	call	4004e88 <__umodsi3>
 400061c:	1004c03a 	cmpne	r2,r2,zero
 4000620:	1000371e 	bne	r2,zero,4000700 <Thread_Controller+0x32c>
			   if(sNios->sMotor.sMotorCp.uiMotorFBSpeed & 0x8000 ){/* motor A*/
 4000624:	e0bfff17 	ldw	r2,-4(fp)
 4000628:	10802717 	ldw	r2,156(r2)
 400062c:	10a0000c 	andi	r2,r2,32768
 4000630:	1005003a 	cmpeq	r2,r2,zero
 4000634:	1000321e 	bne	r2,zero,4000700 <Thread_Controller+0x32c>
				   sNios->sMotor.sMotorCp.uiMotorFBSpeed &= 0xffff7fff; /* clear dval */
 4000638:	e0bfff17 	ldw	r2,-4(fp)
 400063c:	10c02717 	ldw	r3,156(r2)
 4000640:	00bffff4 	movhi	r2,65535
 4000644:	109fffc4 	addi	r2,r2,32767
 4000648:	1886703a 	and	r3,r3,r2
 400064c:	e0bfff17 	ldw	r2,-4(fp)
 4000650:	10c02715 	stw	r3,156(r2)
		//           LOGD("MA_SPD=%d\n", sNios->sMotor.sMotorAp.uiMotorFBSpeed);

			   /* sensor value normalization */
				   fSensor = ((float )sNios->sMotor.sMotorCp.uiMotorFBSpeed) / ((float ) MotorSpeedCnt24V);
 4000654:	e0bfff17 	ldw	r2,-4(fp)
 4000658:	11002717 	ldw	r4,156(r2)
 400065c:	4004c840 	call	4004c84 <__floatunsisf>
 4000660:	1007883a 	mov	r3,r2
 4000664:	0090a834 	movhi	r2,17056
 4000668:	1885fff2 	custom	255,r2,r3,r2
 400066c:	e0bffe15 	stw	r2,-8(fp)
				   if(fSensor > 1.0 ) fSensor = 1;
 4000670:	e13ffe17 	ldw	r4,-8(fp)
 4000674:	014fe034 	movhi	r5,16256
 4000678:	4004a880 	call	4004a88 <__gtsf2>
 400067c:	10800048 	cmpgei	r2,r2,1
 4000680:	1000011e 	bne	r2,zero,4000688 <Thread_Controller+0x2b4>
 4000684:	00000206 	br	4000690 <Thread_Controller+0x2bc>
 4000688:	008fe034 	movhi	r2,16256
 400068c:	e0bffe15 	stw	r2,-8(fp)

				   sNios->sPID_MC.fRefCom = ((float)sNios->sPID_MC.uiSpdCntCmd) / ((float ) MotorSpeedCnt24V);
 4000690:	e0bfff17 	ldw	r2,-4(fp)
 4000694:	11027117 	ldw	r4,2500(r2)
 4000698:	4004c840 	call	4004c84 <__floatunsisf>
 400069c:	1007883a 	mov	r3,r2
 40006a0:	0090a834 	movhi	r2,17056
 40006a4:	1887fff2 	custom	255,r3,r3,r2
 40006a8:	e0bfff17 	ldw	r2,-4(fp)
 40006ac:	10c27215 	stw	r3,2504(r2)
				   if(sNios->sPID_MC.fRefCom > 1.0 ) sNios->sPID_MC.fRefCom = 1.0;
 40006b0:	e0bfff17 	ldw	r2,-4(fp)
 40006b4:	10827217 	ldw	r2,2504(r2)
 40006b8:	1009883a 	mov	r4,r2
 40006bc:	014fe034 	movhi	r5,16256
 40006c0:	4004a880 	call	4004a88 <__gtsf2>
 40006c4:	10800048 	cmpgei	r2,r2,1
 40006c8:	1000011e 	bne	r2,zero,40006d0 <Thread_Controller+0x2fc>
 40006cc:	00000306 	br	40006dc <Thread_Controller+0x308>
 40006d0:	e0ffff17 	ldw	r3,-4(fp)
 40006d4:	008fe034 	movhi	r2,16256
 40006d8:	18827215 	stw	r2,2504(r3)
				   PIDctrl(&sNios->sPID_MC, fSensor); /* PID controller for Motor C*/
 40006dc:	e0bfff17 	ldw	r2,-4(fp)
 40006e0:	11027104 	addi	r4,r2,2500
 40006e4:	e17ffe17 	ldw	r5,-8(fp)
 40006e8:	40028500 	call	4002850 <PIDctrl>
				   /* update PWM command */
				   sNios->sMotor.sMotorCp.ucMotorPWM = (unsigned char )sNios->sPID_MC.iCtrlOutCmd; /* export to motor C driver*/
 40006ec:	e0bfff17 	ldw	r2,-4(fp)
 40006f0:	10827d17 	ldw	r2,2548(r2)
 40006f4:	1007883a 	mov	r3,r2
 40006f8:	e0bfff17 	ldw	r2,-4(fp)
 40006fc:	10c02605 	stb	r3,152(r2)
			   }
			}
			if((sNios->sTimer0.uiTICnt % sNios->sPID_MD.uiControlTime) == 0){
 4000700:	e0bfff17 	ldw	r2,-4(fp)
 4000704:	11004617 	ldw	r4,280(r2)
 4000708:	e0bfff17 	ldw	r2,-4(fp)
 400070c:	11428717 	ldw	r5,2588(r2)
 4000710:	4004e880 	call	4004e88 <__umodsi3>
 4000714:	1004c03a 	cmpne	r2,r2,zero
 4000718:	1000711e 	bne	r2,zero,40008e0 <Thread_Controller+0x50c>
			   if(sNios->sMotor.sMotorDp.uiMotorFBSpeed & 0x8000 ){/* motor A*/
 400071c:	e0bfff17 	ldw	r2,-4(fp)
 4000720:	10803617 	ldw	r2,216(r2)
 4000724:	10a0000c 	andi	r2,r2,32768
 4000728:	1005003a 	cmpeq	r2,r2,zero
 400072c:	10006c1e 	bne	r2,zero,40008e0 <Thread_Controller+0x50c>
				   sNios->sMotor.sMotorDp.uiMotorFBSpeed &= 0xffff7fff; /* clear dval */
 4000730:	e0bfff17 	ldw	r2,-4(fp)
 4000734:	10c03617 	ldw	r3,216(r2)
 4000738:	00bffff4 	movhi	r2,65535
 400073c:	109fffc4 	addi	r2,r2,32767
 4000740:	1886703a 	and	r3,r3,r2
 4000744:	e0bfff17 	ldw	r2,-4(fp)
 4000748:	10c03615 	stw	r3,216(r2)
		//           LOGD("MA_SPD=%d\n", sNios->sMotor.sMotorAp.uiMotorFBSpeed);

			   /* sensor value normalization */
				   fSensor = ((float )sNios->sMotor.sMotorDp.uiMotorFBSpeed) / ((float ) MotorSpeedCnt24V);
 400074c:	e0bfff17 	ldw	r2,-4(fp)
 4000750:	11003617 	ldw	r4,216(r2)
 4000754:	4004c840 	call	4004c84 <__floatunsisf>
 4000758:	1007883a 	mov	r3,r2
 400075c:	0090a834 	movhi	r2,17056
 4000760:	1885fff2 	custom	255,r2,r3,r2
 4000764:	e0bffe15 	stw	r2,-8(fp)
				   if(fSensor > 1.0 ) fSensor = 1;
 4000768:	e13ffe17 	ldw	r4,-8(fp)
 400076c:	014fe034 	movhi	r5,16256
 4000770:	4004a880 	call	4004a88 <__gtsf2>
 4000774:	10800048 	cmpgei	r2,r2,1
 4000778:	1000011e 	bne	r2,zero,4000780 <Thread_Controller+0x3ac>
 400077c:	00000206 	br	4000788 <Thread_Controller+0x3b4>
 4000780:	008fe034 	movhi	r2,16256
 4000784:	e0bffe15 	stw	r2,-8(fp)

				   sNios->sPID_MD.fRefCom = ((float)sNios->sPID_MD.uiSpdCntCmd) / ((float ) MotorSpeedCnt24V);
 4000788:	e0bfff17 	ldw	r2,-4(fp)
 400078c:	11027e17 	ldw	r4,2552(r2)
 4000790:	4004c840 	call	4004c84 <__floatunsisf>
 4000794:	1007883a 	mov	r3,r2
 4000798:	0090a834 	movhi	r2,17056
 400079c:	1887fff2 	custom	255,r3,r3,r2
 40007a0:	e0bfff17 	ldw	r2,-4(fp)
 40007a4:	10c27f15 	stw	r3,2556(r2)
				   if(sNios->sPID_MD.fRefCom > 1.0 ) sNios->sPID_MD.fRefCom = 1.0;
 40007a8:	e0bfff17 	ldw	r2,-4(fp)
 40007ac:	10827f17 	ldw	r2,2556(r2)
 40007b0:	1009883a 	mov	r4,r2
 40007b4:	014fe034 	movhi	r5,16256
 40007b8:	4004a880 	call	4004a88 <__gtsf2>
 40007bc:	10800048 	cmpgei	r2,r2,1
 40007c0:	1000011e 	bne	r2,zero,40007c8 <Thread_Controller+0x3f4>
 40007c4:	00000306 	br	40007d4 <Thread_Controller+0x400>
 40007c8:	e0ffff17 	ldw	r3,-4(fp)
 40007cc:	008fe034 	movhi	r2,16256
 40007d0:	18827f15 	stw	r2,2556(r3)
				   PIDctrl(&sNios->sPID_MD, fSensor); /* PID controller for Motor D*/
 40007d4:	e0bfff17 	ldw	r2,-4(fp)
 40007d8:	11027e04 	addi	r4,r2,2552
 40007dc:	e17ffe17 	ldw	r5,-8(fp)
 40007e0:	40028500 	call	4002850 <PIDctrl>
				   /* update PWM command */
				   sNios->sMotor.sMotorDp.ucMotorPWM = (unsigned char )sNios->sPID_MD.iCtrlOutCmd; /* export to motor D driver*/
 40007e4:	e0bfff17 	ldw	r2,-4(fp)
 40007e8:	10828a17 	ldw	r2,2600(r2)
 40007ec:	1007883a 	mov	r3,r2
 40007f0:	e0bfff17 	ldw	r2,-4(fp)
 40007f4:	10c03505 	stb	r3,212(r2)
 40007f8:	00003906 	br	40008e0 <Thread_Controller+0x50c>
			   }
			}
		} else {/*  if(sNios->sMotor.ucEnPID &0x01){ */
			if(sNios->sMotor.sMotorAp.uiHostMotorSpdCmd > 100){
 40007fc:	e0bfff17 	ldw	r2,-4(fp)
 4000800:	10800d17 	ldw	r2,52(r2)
 4000804:	10801970 	cmpltui	r2,r2,101
 4000808:	1000031e 	bne	r2,zero,4000818 <Thread_Controller+0x444>
				LOGD("[Err]Motor A CMD error value.\n");
				sNios->sMotor.sMotorAp.ucMotorPWM = 0;
 400080c:	e0bfff17 	ldw	r2,-4(fp)
 4000810:	10000805 	stb	zero,32(r2)
 4000814:	00000506 	br	400082c <Thread_Controller+0x458>
			}else{
				sNios->sMotor.sMotorAp.ucMotorPWM = sNios->sMotor.sMotorAp.uiHostMotorSpdCmd;
 4000818:	e0bfff17 	ldw	r2,-4(fp)
 400081c:	10800d17 	ldw	r2,52(r2)
 4000820:	1007883a 	mov	r3,r2
 4000824:	e0bfff17 	ldw	r2,-4(fp)
 4000828:	10c00805 	stb	r3,32(r2)
			}
			if(sNios->sMotor.sMotorAp.uiHostMotorSpdCmd > 100){
 400082c:	e0bfff17 	ldw	r2,-4(fp)
 4000830:	10800d17 	ldw	r2,52(r2)
 4000834:	10801970 	cmpltui	r2,r2,101
 4000838:	1000031e 	bne	r2,zero,4000848 <Thread_Controller+0x474>
				LOGD("[Err]Motor B CMD error value.\n");
				sNios->sMotor.sMotorBp.ucMotorPWM = 0;
 400083c:	e0bfff17 	ldw	r2,-4(fp)
 4000840:	10001705 	stb	zero,92(r2)
 4000844:	00000506 	br	400085c <Thread_Controller+0x488>
			}else{
				sNios->sMotor.sMotorBp.ucMotorPWM = sNios->sMotor.sMotorBp.uiHostMotorSpdCmd;
 4000848:	e0bfff17 	ldw	r2,-4(fp)
 400084c:	10801c17 	ldw	r2,112(r2)
 4000850:	1007883a 	mov	r3,r2
 4000854:	e0bfff17 	ldw	r2,-4(fp)
 4000858:	10c01705 	stb	r3,92(r2)
			}
			if(sNios->sMotor.sMotorAp.uiHostMotorSpdCmd > 100){
 400085c:	e0bfff17 	ldw	r2,-4(fp)
 4000860:	10800d17 	ldw	r2,52(r2)
 4000864:	10801970 	cmpltui	r2,r2,101
 4000868:	1000031e 	bne	r2,zero,4000878 <Thread_Controller+0x4a4>
				LOGD("[Err]Motor C CMD error value.\n");
				sNios->sMotor.sMotorCp.ucMotorPWM = 0;
 400086c:	e0bfff17 	ldw	r2,-4(fp)
 4000870:	10002605 	stb	zero,152(r2)
 4000874:	00000506 	br	400088c <Thread_Controller+0x4b8>
			}else{
				sNios->sMotor.sMotorCp.ucMotorPWM = sNios->sMotor.sMotorCp.uiHostMotorSpdCmd;
 4000878:	e0bfff17 	ldw	r2,-4(fp)
 400087c:	10802b17 	ldw	r2,172(r2)
 4000880:	1007883a 	mov	r3,r2
 4000884:	e0bfff17 	ldw	r2,-4(fp)
 4000888:	10c02605 	stb	r3,152(r2)
			}
			if(sNios->sMotor.sMotorAp.uiHostMotorSpdCmd > 100){
 400088c:	e0bfff17 	ldw	r2,-4(fp)
 4000890:	10800d17 	ldw	r2,52(r2)
 4000894:	10801970 	cmpltui	r2,r2,101
 4000898:	1000031e 	bne	r2,zero,40008a8 <Thread_Controller+0x4d4>
				LOGD("[Err]Motor D CMD error value.\n");
				sNios->sMotor.sMotorDp.ucMotorPWM = 0;
 400089c:	e0bfff17 	ldw	r2,-4(fp)
 40008a0:	10003505 	stb	zero,212(r2)
 40008a4:	00000e06 	br	40008e0 <Thread_Controller+0x50c>
			}else{
				sNios->sMotor.sMotorDp.ucMotorPWM = sNios->sMotor.sMotorDp.uiHostMotorSpdCmd;
 40008a8:	e0bfff17 	ldw	r2,-4(fp)
 40008ac:	10803a17 	ldw	r2,232(r2)
 40008b0:	1007883a 	mov	r3,r2
 40008b4:	e0bfff17 	ldw	r2,-4(fp)
 40008b8:	10c03505 	stb	r3,212(r2)
 40008bc:	00000806 	br	40008e0 <Thread_Controller+0x50c>
			}

		}
    }else{ /* close PWM */
    	LOGD("No Host data.\n");
		sNios->sMotor.sMotorAp.ucMotorPWM = 0;
 40008c0:	e0bfff17 	ldw	r2,-4(fp)
 40008c4:	10000805 	stb	zero,32(r2)
		sNios->sMotor.sMotorBp.ucMotorPWM = 0;
 40008c8:	e0bfff17 	ldw	r2,-4(fp)
 40008cc:	10001705 	stb	zero,92(r2)
		sNios->sMotor.sMotorCp.ucMotorPWM = 0;
 40008d0:	e0bfff17 	ldw	r2,-4(fp)
 40008d4:	10002605 	stb	zero,152(r2)
		sNios->sMotor.sMotorDp.ucMotorPWM = 0;
 40008d8:	e0bfff17 	ldw	r2,-4(fp)
 40008dc:	10003505 	stb	zero,212(r2)


       /* update PWM command */
       /** export to motor driver */
       /* send motor command to motor drive board */
       Send4XwheelPwm(     &sNios->sMotor,
 40008e0:	e0bfff17 	ldw	r2,-4(fp)
 40008e4:	11000104 	addi	r4,r2,4
 40008e8:	e0bfff17 	ldw	r2,-4(fp)
 40008ec:	10800803 	ldbu	r2,32(r2)
 40008f0:	11403fcc 	andi	r5,r2,255
 40008f4:	e0bfff17 	ldw	r2,-4(fp)
 40008f8:	10801703 	ldbu	r2,92(r2)
 40008fc:	11803fcc 	andi	r6,r2,255
 4000900:	e0bfff17 	ldw	r2,-4(fp)
 4000904:	10802603 	ldbu	r2,152(r2)
 4000908:	11c03fcc 	andi	r7,r2,255
 400090c:	e0bfff17 	ldw	r2,-4(fp)
 4000910:	10803503 	ldbu	r2,212(r2)
 4000914:	10803fcc 	andi	r2,r2,255
 4000918:	d8800015 	stw	r2,0(sp)
 400091c:	40036e80 	call	40036e8 <Send4XwheelPwm>
                           sNios->sMotor.sMotorBp.ucMotorPWM,
                           sNios->sMotor.sMotorCp.ucMotorPWM,
                           sNios->sMotor.sMotorDp.ucMotorPWM
                           );  /* Stop 4 wheel PWM */

       Send4XwheelDir(         &sNios->sMotor,
 4000920:	e0bfff17 	ldw	r2,-4(fp)
 4000924:	11000104 	addi	r4,r2,4
 4000928:	e0bfff17 	ldw	r2,-4(fp)
 400092c:	11400717 	ldw	r5,28(r2)
 4000930:	e0bfff17 	ldw	r2,-4(fp)
 4000934:	11801617 	ldw	r6,88(r2)
 4000938:	e0bfff17 	ldw	r2,-4(fp)
 400093c:	11c02517 	ldw	r7,148(r2)
 4000940:	e0bfff17 	ldw	r2,-4(fp)
 4000944:	10803417 	ldw	r2,208(r2)
 4000948:	d8800015 	stw	r2,0(sp)
 400094c:	40037a40 	call	40037a4 <Send4XwheelDir>
                               sNios->sMotor.sMotorAp.uiMotorDirCmd,
                               sNios->sMotor.sMotorBp.uiMotorDirCmd,
                               sNios->sMotor.sMotorCp.uiMotorDirCmd,
                               sNios->sMotor.sMotorDp.uiMotorDirCmd);    /* send motor direction, 0:CW, 1:CCW  */
       Send2XMotorDriverEnable(&sNios->sMotor,1, 1);  /* open motor driver, 1: enable, 0: disable */
 4000950:	e0bfff17 	ldw	r2,-4(fp)
 4000954:	11000104 	addi	r4,r2,4
 4000958:	01400044 	movi	r5,1
 400095c:	01800044 	movi	r6,1
 4000960:	400381c0 	call	400381c <Send2XMotorDriverEnable>
//       LOGD("DirC=%d\n",sNios->sMotor.sMotorCp.uiMotorDirCmd);
//        LOGD("CMDA=%d\n",sNios->sPID_MA.fRefCom);

}
 4000964:	e037883a 	mov	sp,fp
 4000968:	dfc00117 	ldw	ra,4(sp)
 400096c:	df000017 	ldw	fp,0(sp)
 4000970:	dec00204 	addi	sp,sp,8
 4000974:	f800283a 	ret

04000978 <Thread1>:
void Thread1(sNios_s *sNios) {
 4000978:	defffd04 	addi	sp,sp,-12
 400097c:	dfc00215 	stw	ra,8(sp)
 4000980:	df000115 	stw	fp,4(sp)
 4000984:	df000104 	addi	fp,sp,4
 4000988:	e13fff15 	stw	r4,-4(fp)
    if(sNios->sTimer0.uiTICnt%Thread1TimeUnit == 0){
        /* reflash motor data */
        UartTxbufProcess(sNios); 	/* Send data in TXbuf to Host */
 400098c:	e13fff17 	ldw	r4,-4(fp)
 4000990:	4000edc0 	call	4000edc <UartTxbufProcess>
        UartRxbufProcess(sNios); 	/* Receive uart data to Nios */
 4000994:	e13fff17 	ldw	r4,-4(fp)
 4000998:	4000fc00 	call	4000fc0 <UartRxbufProcess>
    } else { /* do nothing */ }
}
 400099c:	e037883a 	mov	sp,fp
 40009a0:	dfc00117 	ldw	ra,4(sp)
 40009a4:	df000017 	ldw	fp,0(sp)
 40009a8:	dec00204 	addi	sp,sp,8
 40009ac:	f800283a 	ret

040009b0 <Thread2>:
void Thread2(sNios_s *sNios) {
 40009b0:	defffd04 	addi	sp,sp,-12
 40009b4:	dfc00215 	stw	ra,8(sp)
 40009b8:	df000115 	stw	fp,4(sp)
 40009bc:	df000104 	addi	fp,sp,4
 40009c0:	e13fff15 	stw	r4,-4(fp)
    if(sNios->sTimer0.uiTICnt%Thread2TimeUnit < 5 ){ /* A range to judge HOSt command */
 40009c4:	e0bfff17 	ldw	r2,-4(fp)
 40009c8:	11004617 	ldw	r4,280(r2)
 40009cc:	01400784 	movi	r5,30
 40009d0:	4004e880 	call	4004e88 <__umodsi3>
 40009d4:	10800168 	cmpgeui	r2,r2,5
 40009d8:	1000021e 	bne	r2,zero,40009e4 <Thread2+0x34>
      /* receive Host motor command */
      /* check receive data > 12 Bytes */
  //    LOGD("==>>>>>>>>>> Thread2.\n");
//      LOGD(".\n");
      UartTxbufProcess( sNios);
 40009dc:	e13fff17 	ldw	r4,-4(fp)
 40009e0:	4000edc0 	call	4000edc <UartTxbufProcess>
    } else { /* do nothing */ }
}
 40009e4:	e037883a 	mov	sp,fp
 40009e8:	dfc00117 	ldw	ra,4(sp)
 40009ec:	df000017 	ldw	fp,0(sp)
 40009f0:	dec00204 	addi	sp,sp,8
 40009f4:	f800283a 	ret

040009f8 <status_report>:
void status_report(sNios_s *sNios, unsigned char status){
 40009f8:	defffd04 	addi	sp,sp,-12
 40009fc:	df000215 	stw	fp,8(sp)
 4000a00:	df000204 	addi	fp,sp,8
 4000a04:	e13ffe15 	stw	r4,-8(fp)
 4000a08:	e17fff05 	stb	r5,-4(fp)
    if(status&0x01){ /* 上一筆的RX資料CRC有錯	*/
        LOGD("Last package to Host have CRC error.\n");
    }
    if(status&0x02){ /* 切換控制器模式	*/
 4000a0c:	e0bfff03 	ldbu	r2,-4(fp)
 4000a10:	1080008c 	andi	r2,r2,2
 4000a14:	1005003a 	cmpeq	r2,r2,zero
 4000a18:	1000041e 	bne	r2,zero,4000a2c <status_report+0x34>
        LOGD("Use PID controller.\n");
        sNios->sMotor.ucEnPID = 1; /* enable PID controller */
 4000a1c:	e0fffe17 	ldw	r3,-8(fp)
 4000a20:	00800044 	movi	r2,1
 4000a24:	18800105 	stb	r2,4(r3)
 4000a28:	00000206 	br	4000a34 <status_report+0x3c>
    }else{
    	LOGD("No PID Controller.\n");
    	 sNios->sMotor.ucEnPID = 0; /* disable PID controller */
 4000a2c:	e0bffe17 	ldw	r2,-8(fp)
 4000a30:	10000105 	stb	zero,4(r2)
    }
}
 4000a34:	e037883a 	mov	sp,fp
 4000a38:	df000017 	ldw	fp,0(sp)
 4000a3c:	dec00104 	addi	sp,sp,4
 4000a40:	f800283a 	ret

04000a44 <UnpackHostPackage>:


/* unpack host package, no test */
void UnpackHostPackage(sNios_s *sNios){
 4000a44:	defffb04 	addi	sp,sp,-20
 4000a48:	dfc00415 	stw	ra,16(sp)
 4000a4c:	df000315 	stw	fp,12(sp)
 4000a50:	df000304 	addi	fp,sp,12
 4000a54:	e13fff15 	stw	r4,-4(fp)
     * 總共 13bytes
     *--------------Uart接收資料(Host -> Nios) end-----------*/
    unsigned int idx;
    unsigned char cTmp;

    idx = sNios->sUart0.uiRxBuf_Head+1;
 4000a58:	e0bfff17 	ldw	r2,-4(fp)
 4000a5c:	10814917 	ldw	r2,1316(r2)
 4000a60:	10800044 	addi	r2,r2,1
 4000a64:	e0bffe15 	stw	r2,-8(fp)
    /* 1st byte, status */
    cTmp = sNios->sUart0.ucRxBuf[idx]; idx++;
 4000a68:	e0fffe17 	ldw	r3,-8(fp)
 4000a6c:	e0bfff17 	ldw	r2,-4(fp)
 4000a70:	1885883a 	add	r2,r3,r2
 4000a74:	10804e04 	addi	r2,r2,312
 4000a78:	10800043 	ldbu	r2,1(r2)
 4000a7c:	e0bffd05 	stb	r2,-12(fp)
 4000a80:	e0bffe17 	ldw	r2,-8(fp)
 4000a84:	10800044 	addi	r2,r2,1
 4000a88:	e0bffe15 	stw	r2,-8(fp)
    status_report(sNios,cTmp);
 4000a8c:	e17ffd03 	ldbu	r5,-12(fp)
 4000a90:	e13fff17 	ldw	r4,-4(fp)
 4000a94:	40009f80 	call	40009f8 <status_report>

    /* 2nd byte */
    cTmp = sNios->sUart0.ucRxBuf[idx]; idx++; /* 2nd byte, motor direction */
 4000a98:	e0fffe17 	ldw	r3,-8(fp)
 4000a9c:	e0bfff17 	ldw	r2,-4(fp)
 4000aa0:	1885883a 	add	r2,r3,r2
 4000aa4:	10804e04 	addi	r2,r2,312
 4000aa8:	10800043 	ldbu	r2,1(r2)
 4000aac:	e0bffd05 	stb	r2,-12(fp)
 4000ab0:	e0bffe17 	ldw	r2,-8(fp)
 4000ab4:	10800044 	addi	r2,r2,1
 4000ab8:	e0bffe15 	stw	r2,-8(fp)
//    LOGD("RxDir = 0x%x\n", sNios->sUart0.ucRxBuf[sNios->sUart0.uiRxBuf_Head+2]);
    sNios->sMotor.sMotorAp.uiHostMotorDirCmd =  cTmp&0x01;     /* store motor A direction */
 4000abc:	e0bffd03 	ldbu	r2,-12(fp)
 4000ac0:	10c0004c 	andi	r3,r2,1
 4000ac4:	e0bfff17 	ldw	r2,-4(fp)
 4000ac8:	10c00e15 	stw	r3,56(r2)
    sNios->sMotor.sMotorBp.uiHostMotorDirCmd = (cTmp&0x02)>>1; /* store motor B direction */
 4000acc:	e0bffd03 	ldbu	r2,-12(fp)
 4000ad0:	1080008c 	andi	r2,r2,2
 4000ad4:	1005d07a 	srai	r2,r2,1
 4000ad8:	1007883a 	mov	r3,r2
 4000adc:	e0bfff17 	ldw	r2,-4(fp)
 4000ae0:	10c01d15 	stw	r3,116(r2)
    sNios->sMotor.sMotorCp.uiHostMotorDirCmd = (cTmp&0x04)>>2; /* store motor C direction */
 4000ae4:	e0bffd03 	ldbu	r2,-12(fp)
 4000ae8:	1080010c 	andi	r2,r2,4
 4000aec:	1005d0ba 	srai	r2,r2,2
 4000af0:	1007883a 	mov	r3,r2
 4000af4:	e0bfff17 	ldw	r2,-4(fp)
 4000af8:	10c02c15 	stw	r3,176(r2)
    sNios->sMotor.sMotorDp.uiHostMotorDirCmd = (cTmp&0x08)>>3; /* store motor D direction */
 4000afc:	e0bffd03 	ldbu	r2,-12(fp)
 4000b00:	1080020c 	andi	r2,r2,8
 4000b04:	1005d0fa 	srai	r2,r2,3
 4000b08:	1007883a 	mov	r3,r2
 4000b0c:	e0bfff17 	ldw	r2,-4(fp)
 4000b10:	10c03b15 	stw	r3,236(r2)

    /* 3~10, total 8 bytes */
    sNios->sMotor.sMotorAp.uiHostMotorSpdCmd = (sNios->sUart0.ucRxBuf[idx]<<8) + sNios->sUart0.ucRxBuf[idx+1]; idx+=2; /* motor A Spd command (high byte, low byete)*/
 4000b14:	e0fffe17 	ldw	r3,-8(fp)
 4000b18:	e0bfff17 	ldw	r2,-4(fp)
 4000b1c:	1885883a 	add	r2,r3,r2
 4000b20:	10804e04 	addi	r2,r2,312
 4000b24:	10800043 	ldbu	r2,1(r2)
 4000b28:	10803fcc 	andi	r2,r2,255
 4000b2c:	1008923a 	slli	r4,r2,8
 4000b30:	e0bffe17 	ldw	r2,-8(fp)
 4000b34:	10c00044 	addi	r3,r2,1
 4000b38:	e0bfff17 	ldw	r2,-4(fp)
 4000b3c:	1885883a 	add	r2,r3,r2
 4000b40:	10804e04 	addi	r2,r2,312
 4000b44:	10800043 	ldbu	r2,1(r2)
 4000b48:	10803fcc 	andi	r2,r2,255
 4000b4c:	2085883a 	add	r2,r4,r2
 4000b50:	1007883a 	mov	r3,r2
 4000b54:	e0bfff17 	ldw	r2,-4(fp)
 4000b58:	10c00d15 	stw	r3,52(r2)
 4000b5c:	e0bffe17 	ldw	r2,-8(fp)
 4000b60:	10800084 	addi	r2,r2,2
 4000b64:	e0bffe15 	stw	r2,-8(fp)
    sNios->sMotor.sMotorBp.uiHostMotorSpdCmd = (sNios->sUart0.ucRxBuf[idx]<<8) + sNios->sUart0.ucRxBuf[idx+1]; idx+=2; /* motor B Spd command (high byte, low byete)*/
 4000b68:	e0fffe17 	ldw	r3,-8(fp)
 4000b6c:	e0bfff17 	ldw	r2,-4(fp)
 4000b70:	1885883a 	add	r2,r3,r2
 4000b74:	10804e04 	addi	r2,r2,312
 4000b78:	10800043 	ldbu	r2,1(r2)
 4000b7c:	10803fcc 	andi	r2,r2,255
 4000b80:	1008923a 	slli	r4,r2,8
 4000b84:	e0bffe17 	ldw	r2,-8(fp)
 4000b88:	10c00044 	addi	r3,r2,1
 4000b8c:	e0bfff17 	ldw	r2,-4(fp)
 4000b90:	1885883a 	add	r2,r3,r2
 4000b94:	10804e04 	addi	r2,r2,312
 4000b98:	10800043 	ldbu	r2,1(r2)
 4000b9c:	10803fcc 	andi	r2,r2,255
 4000ba0:	2085883a 	add	r2,r4,r2
 4000ba4:	1007883a 	mov	r3,r2
 4000ba8:	e0bfff17 	ldw	r2,-4(fp)
 4000bac:	10c01c15 	stw	r3,112(r2)
 4000bb0:	e0bffe17 	ldw	r2,-8(fp)
 4000bb4:	10800084 	addi	r2,r2,2
 4000bb8:	e0bffe15 	stw	r2,-8(fp)
    sNios->sMotor.sMotorCp.uiHostMotorSpdCmd = (sNios->sUart0.ucRxBuf[idx]<<8) + sNios->sUart0.ucRxBuf[idx+1]; idx+=2; /* motor C Spd command (high byte, low byete)*/
 4000bbc:	e0fffe17 	ldw	r3,-8(fp)
 4000bc0:	e0bfff17 	ldw	r2,-4(fp)
 4000bc4:	1885883a 	add	r2,r3,r2
 4000bc8:	10804e04 	addi	r2,r2,312
 4000bcc:	10800043 	ldbu	r2,1(r2)
 4000bd0:	10803fcc 	andi	r2,r2,255
 4000bd4:	1008923a 	slli	r4,r2,8
 4000bd8:	e0bffe17 	ldw	r2,-8(fp)
 4000bdc:	10c00044 	addi	r3,r2,1
 4000be0:	e0bfff17 	ldw	r2,-4(fp)
 4000be4:	1885883a 	add	r2,r3,r2
 4000be8:	10804e04 	addi	r2,r2,312
 4000bec:	10800043 	ldbu	r2,1(r2)
 4000bf0:	10803fcc 	andi	r2,r2,255
 4000bf4:	2085883a 	add	r2,r4,r2
 4000bf8:	1007883a 	mov	r3,r2
 4000bfc:	e0bfff17 	ldw	r2,-4(fp)
 4000c00:	10c02b15 	stw	r3,172(r2)
 4000c04:	e0bffe17 	ldw	r2,-8(fp)
 4000c08:	10800084 	addi	r2,r2,2
 4000c0c:	e0bffe15 	stw	r2,-8(fp)
    sNios->sMotor.sMotorDp.uiHostMotorSpdCmd = (sNios->sUart0.ucRxBuf[idx]<<8) + sNios->sUart0.ucRxBuf[idx+1]; idx+=2; /* motor D Spd command (high byte, low byete)*/
 4000c10:	e0fffe17 	ldw	r3,-8(fp)
 4000c14:	e0bfff17 	ldw	r2,-4(fp)
 4000c18:	1885883a 	add	r2,r3,r2
 4000c1c:	10804e04 	addi	r2,r2,312
 4000c20:	10800043 	ldbu	r2,1(r2)
 4000c24:	10803fcc 	andi	r2,r2,255
 4000c28:	1008923a 	slli	r4,r2,8
 4000c2c:	e0bffe17 	ldw	r2,-8(fp)
 4000c30:	10c00044 	addi	r3,r2,1
 4000c34:	e0bfff17 	ldw	r2,-4(fp)
 4000c38:	1885883a 	add	r2,r3,r2
 4000c3c:	10804e04 	addi	r2,r2,312
 4000c40:	10800043 	ldbu	r2,1(r2)
 4000c44:	10803fcc 	andi	r2,r2,255
 4000c48:	2085883a 	add	r2,r4,r2
 4000c4c:	1007883a 	mov	r3,r2
 4000c50:	e0bfff17 	ldw	r2,-4(fp)
 4000c54:	10c03a15 	stw	r3,232(r2)
 4000c58:	e0bffe17 	ldw	r2,-8(fp)
 4000c5c:	10800084 	addi	r2,r2,2
 4000c60:	e0bffe15 	stw	r2,-8(fp)
    /* 11th, crc byte */
    sNios->cFlagUnpackHostComplete = 1; /* set unpack host data complete */
 4000c64:	e0ffff17 	ldw	r3,-4(fp)
 4000c68:	00800044 	movi	r2,1
 4000c6c:	18800045 	stb	r2,1(r3)

//    LOGD("0x%x\n", sNios->sPID_MA.uiSpdCntCmd, sNios->sUart0.ucRxBuf[3], sNios->sUart0.ucRxBuf[4]);
}
 4000c70:	e037883a 	mov	sp,fp
 4000c74:	dfc00117 	ldw	ra,4(sp)
 4000c78:	df000017 	ldw	fp,0(sp)
 4000c7c:	dec00204 	addi	sp,sp,8
 4000c80:	f800283a 	ret

04000c84 <UnPackUartDataFromHost>:
/* put Nios data to uart package, no test */
void UnPackUartDataFromHost(sNios_s *sNios){
 4000c84:	defffb04 	addi	sp,sp,-20
 4000c88:	dfc00415 	stw	ra,16(sp)
 4000c8c:	df000315 	stw	fp,12(sp)
 4000c90:	df000304 	addi	fp,sp,12
 4000c94:	e13fff15 	stw	r4,-4(fp)
    unsigned int  i;
    unsigned char ucCRC; /* CRC check code */

    sNios->cFlagHostDataIn = 1;
 4000c98:	e0ffff17 	ldw	r3,-4(fp)
 4000c9c:	00800044 	movi	r2,1
 4000ca0:	18800085 	stb	r2,2(r3)
    while( (sNios->sUart0.uiRxBuf_End - sNios->sUart0.uiRxBuf_Head) >= UartPackageRXLengthFromHost-1 ){/*check package length*/
 4000ca4:	00004106 	br	4000dac <UnPackUartDataFromHost+0x128>
        /* check package frame */
        if( sNios->sUart0.ucRxBuf[sNios->sUart0.uiRxBuf_Head] == UartPackageFrameHead){ /* frame begin byte */
 4000ca8:	e0bfff17 	ldw	r2,-4(fp)
 4000cac:	10c14917 	ldw	r3,1316(r2)
 4000cb0:	e0bfff17 	ldw	r2,-4(fp)
 4000cb4:	1885883a 	add	r2,r3,r2
 4000cb8:	10804e04 	addi	r2,r2,312
 4000cbc:	10800043 	ldbu	r2,1(r2)
 4000cc0:	10803fcc 	andi	r2,r2,255
 4000cc4:	10802a98 	cmpnei	r2,r2,170
 4000cc8:	1000331e 	bne	r2,zero,4000d98 <UnPackUartDataFromHost+0x114>
            if(sNios->sUart0.ucRxBuf[sNios->sUart0.uiRxBuf_Head + UartPackageRXLengthFromHost-1] == UartPackageFrameEnd){ /* frame end byte */
 4000ccc:	e0bfff17 	ldw	r2,-4(fp)
 4000cd0:	10814917 	ldw	r2,1316(r2)
 4000cd4:	10c00304 	addi	r3,r2,12
 4000cd8:	e0bfff17 	ldw	r2,-4(fp)
 4000cdc:	1885883a 	add	r2,r3,r2
 4000ce0:	10804e04 	addi	r2,r2,312
 4000ce4:	10800043 	ldbu	r2,1(r2)
 4000ce8:	10803fcc 	andi	r2,r2,255
 4000cec:	10803b98 	cmpnei	r2,r2,238
 4000cf0:	10002e1e 	bne	r2,zero,4000dac <UnPackUartDataFromHost+0x128>
                /* frame correct and check CRC code */
                for(i = sNios->sUart0.uiRxBuf_Head+1, ucCRC = 0; i <(sNios->sUart0.uiRxBuf_Head + UartPackageRXLengthFromHost-2); i++){
 4000cf4:	e0bfff17 	ldw	r2,-4(fp)
 4000cf8:	10814917 	ldw	r2,1316(r2)
 4000cfc:	10800044 	addi	r2,r2,1
 4000d00:	e0bffe15 	stw	r2,-8(fp)
 4000d04:	e03ffd05 	stb	zero,-12(fp)
 4000d08:	00000b06 	br	4000d38 <UnPackUartDataFromHost+0xb4>
                    ucCRC +=  sNios->sUart0.ucRxBuf[i];
 4000d0c:	e0fffe17 	ldw	r3,-8(fp)
 4000d10:	e0bfff17 	ldw	r2,-4(fp)
 4000d14:	1885883a 	add	r2,r3,r2
 4000d18:	10804e04 	addi	r2,r2,312
 4000d1c:	10c00043 	ldbu	r3,1(r2)
 4000d20:	e0bffd03 	ldbu	r2,-12(fp)
 4000d24:	10c5883a 	add	r2,r2,r3
 4000d28:	e0bffd05 	stb	r2,-12(fp)
    while( (sNios->sUart0.uiRxBuf_End - sNios->sUart0.uiRxBuf_Head) >= UartPackageRXLengthFromHost-1 ){/*check package length*/
        /* check package frame */
        if( sNios->sUart0.ucRxBuf[sNios->sUart0.uiRxBuf_Head] == UartPackageFrameHead){ /* frame begin byte */
            if(sNios->sUart0.ucRxBuf[sNios->sUart0.uiRxBuf_Head + UartPackageRXLengthFromHost-1] == UartPackageFrameEnd){ /* frame end byte */
                /* frame correct and check CRC code */
                for(i = sNios->sUart0.uiRxBuf_Head+1, ucCRC = 0; i <(sNios->sUart0.uiRxBuf_Head + UartPackageRXLengthFromHost-2); i++){
 4000d2c:	e0bffe17 	ldw	r2,-8(fp)
 4000d30:	10800044 	addi	r2,r2,1
 4000d34:	e0bffe15 	stw	r2,-8(fp)
 4000d38:	e0bfff17 	ldw	r2,-4(fp)
 4000d3c:	10814917 	ldw	r2,1316(r2)
 4000d40:	108002c4 	addi	r2,r2,11
 4000d44:	1007883a 	mov	r3,r2
 4000d48:	e0bffe17 	ldw	r2,-8(fp)
 4000d4c:	10ffef36 	bltu	r2,r3,4000d0c <UnPackUartDataFromHost+0x88>
                    ucCRC +=  sNios->sUart0.ucRxBuf[i];
                }
                ucCRC &= 0xff;
                if(ucCRC == sNios->sUart0.ucRxBuf[sNios->sUart0.uiRxBuf_Head + UartPackageRXLengthFromHost-2]) { /* check CRC */
 4000d50:	e0bfff17 	ldw	r2,-4(fp)
 4000d54:	10814917 	ldw	r2,1316(r2)
 4000d58:	10c002c4 	addi	r3,r2,11
 4000d5c:	e0bfff17 	ldw	r2,-4(fp)
 4000d60:	1885883a 	add	r2,r3,r2
 4000d64:	10804e04 	addi	r2,r2,312
 4000d68:	10800043 	ldbu	r2,1(r2)
 4000d6c:	10c03fcc 	andi	r3,r2,255
 4000d70:	e0bffd03 	ldbu	r2,-12(fp)
 4000d74:	18800d1e 	bne	r3,r2,4000dac <UnPackUartDataFromHost+0x128>
//                    LOGD("Receive correct host data and start to unpack data.\n");
                    UnpackHostPackage(sNios);
 4000d78:	e13fff17 	ldw	r4,-4(fp)
 4000d7c:	4000a440 	call	4000a44 <UnpackHostPackage>
                    sNios->sUart0.uiRxBuf_Head +=  UartPackageRXLengthFromHost; /* add package length */
 4000d80:	e0bfff17 	ldw	r2,-4(fp)
 4000d84:	10814917 	ldw	r2,1316(r2)
 4000d88:	10c00344 	addi	r3,r2,13
 4000d8c:	e0bfff17 	ldw	r2,-4(fp)
 4000d90:	10c14915 	stw	r3,1316(r2)
 4000d94:	00000506 	br	4000dac <UnPackUartDataFromHost+0x128>
                }else{
                    LOGD("Receive package (RX_buf[...]) CRC error. \n");
                }
            }
        } else {
            sNios->sUart0.uiRxBuf_Head++; /* increase rx_buf index */
 4000d98:	e0bfff17 	ldw	r2,-4(fp)
 4000d9c:	10814917 	ldw	r2,1316(r2)
 4000da0:	10c00044 	addi	r3,r2,1
 4000da4:	e0bfff17 	ldw	r2,-4(fp)
 4000da8:	10c14915 	stw	r3,1316(r2)
void UnPackUartDataFromHost(sNios_s *sNios){
    unsigned int  i;
    unsigned char ucCRC; /* CRC check code */

    sNios->cFlagHostDataIn = 1;
    while( (sNios->sUart0.uiRxBuf_End - sNios->sUart0.uiRxBuf_Head) >= UartPackageRXLengthFromHost-1 ){/*check package length*/
 4000dac:	e0bfff17 	ldw	r2,-4(fp)
 4000db0:	10c14a17 	ldw	r3,1320(r2)
 4000db4:	e0bfff17 	ldw	r2,-4(fp)
 4000db8:	10814917 	ldw	r2,1316(r2)
 4000dbc:	1885c83a 	sub	r2,r3,r2
 4000dc0:	10800308 	cmpgei	r2,r2,12
 4000dc4:	103fb81e 	bne	r2,zero,4000ca8 <UnPackUartDataFromHost+0x24>
            }
        } else {
            sNios->sUart0.uiRxBuf_Head++; /* increase rx_buf index */
        }
    }
}
 4000dc8:	e037883a 	mov	sp,fp
 4000dcc:	dfc00117 	ldw	ra,4(sp)
 4000dd0:	df000017 	ldw	fp,0(sp)
 4000dd4:	dec00204 	addi	sp,sp,8
 4000dd8:	f800283a 	ret

04000ddc <UarTxCrcCal>:


/* Calculate Uart Tx crc */
unsigned char UarTxCrcCal(sNios_s *sNios){
 4000ddc:	defffb04 	addi	sp,sp,-20
 4000de0:	df000415 	stw	fp,16(sp)
 4000de4:	df000404 	addi	fp,sp,16
 4000de8:	e13fff15 	stw	r4,-4(fp)
    unsigned char ucCRC;
    unsigned int i,j;

    for(j=1, i= sNios->sUart0.uiTxBuf_Head, ucCRC = 0;  j < UartPackageLengthToHost-1-1; j++){
 4000dec:	00800044 	movi	r2,1
 4000df0:	e0bffc15 	stw	r2,-16(fp)
 4000df4:	e0bfff17 	ldw	r2,-4(fp)
 4000df8:	10824517 	ldw	r2,2324(r2)
 4000dfc:	e0bffd15 	stw	r2,-12(fp)
 4000e00:	e03ffe05 	stb	zero,-8(fp)
 4000e04:	00000d06 	br	4000e3c <UarTxCrcCal+0x60>
         /* calculate crc value in Txbuf[UartPackageLengthToHost], not include UartPackageFrameHead, CRC, UartPackageFrameEnd */
        ucCRC +=  sNios->sUart0.ucTxBuf[i+j];
 4000e08:	e0fffd17 	ldw	r3,-12(fp)
 4000e0c:	e0bffc17 	ldw	r2,-16(fp)
 4000e10:	1887883a 	add	r3,r3,r2
 4000e14:	e0bfff17 	ldw	r2,-4(fp)
 4000e18:	1885883a 	add	r2,r3,r2
 4000e1c:	10814b04 	addi	r2,r2,1324
 4000e20:	10c00003 	ldbu	r3,0(r2)
 4000e24:	e0bffe03 	ldbu	r2,-8(fp)
 4000e28:	10c5883a 	add	r2,r2,r3
 4000e2c:	e0bffe05 	stb	r2,-8(fp)
/* Calculate Uart Tx crc */
unsigned char UarTxCrcCal(sNios_s *sNios){
    unsigned char ucCRC;
    unsigned int i,j;

    for(j=1, i= sNios->sUart0.uiTxBuf_Head, ucCRC = 0;  j < UartPackageLengthToHost-1-1; j++){
 4000e30:	e0bffc17 	ldw	r2,-16(fp)
 4000e34:	10800044 	addi	r2,r2,1
 4000e38:	e0bffc15 	stw	r2,-16(fp)
 4000e3c:	e0bffc17 	ldw	r2,-16(fp)
 4000e40:	10800fb0 	cmpltui	r2,r2,62
 4000e44:	103ff01e 	bne	r2,zero,4000e08 <UarTxCrcCal+0x2c>
         /* calculate crc value in Txbuf[UartPackageLengthToHost], not include UartPackageFrameHead, CRC, UartPackageFrameEnd */
        ucCRC +=  sNios->sUart0.ucTxBuf[i+j];
    }
    return ucCRC & 0xff;
 4000e48:	e0bffe03 	ldbu	r2,-8(fp)
}
 4000e4c:	e037883a 	mov	sp,fp
 4000e50:	df000017 	ldw	fp,0(sp)
 4000e54:	dec00104 	addi	sp,sp,4
 4000e58:	f800283a 	ret

04000e5c <UarRxCrcCal>:
/* Calculate Uart RX crc */
unsigned char UarRxCrcCal(sNios_s *sNios){
 4000e5c:	defffb04 	addi	sp,sp,-20
 4000e60:	df000415 	stw	fp,16(sp)
 4000e64:	df000404 	addi	fp,sp,16
 4000e68:	e13fff15 	stw	r4,-4(fp)
    unsigned char ucCRC;
    unsigned int i,j;

    for(j=1, i= sNios->sUart0.uiRxBuf_Head, ucCRC = 0;  j < UartPackageRXLengthFromHost-1-1; j++) {
 4000e6c:	00800044 	movi	r2,1
 4000e70:	e0bffc15 	stw	r2,-16(fp)
 4000e74:	e0bfff17 	ldw	r2,-4(fp)
 4000e78:	10814917 	ldw	r2,1316(r2)
 4000e7c:	e0bffd15 	stw	r2,-12(fp)
 4000e80:	e03ffe05 	stb	zero,-8(fp)
 4000e84:	00000d06 	br	4000ebc <UarRxCrcCal+0x60>
         /* calculate crc value in Txbuf[UartPackageLengthToHost], not include UartPackageFrameHead, CRC, UartPackageFrameEnd */
//        LOGD("0x%x ", sNios->sUart0.ucRxBuf[i+j]);
        ucCRC +=  sNios->sUart0.ucRxBuf[i+j];
 4000e88:	e0fffd17 	ldw	r3,-12(fp)
 4000e8c:	e0bffc17 	ldw	r2,-16(fp)
 4000e90:	1887883a 	add	r3,r3,r2
 4000e94:	e0bfff17 	ldw	r2,-4(fp)
 4000e98:	1885883a 	add	r2,r3,r2
 4000e9c:	10804e04 	addi	r2,r2,312
 4000ea0:	10c00043 	ldbu	r3,1(r2)
 4000ea4:	e0bffe03 	ldbu	r2,-8(fp)
 4000ea8:	10c5883a 	add	r2,r2,r3
 4000eac:	e0bffe05 	stb	r2,-8(fp)
/* Calculate Uart RX crc */
unsigned char UarRxCrcCal(sNios_s *sNios){
    unsigned char ucCRC;
    unsigned int i,j;

    for(j=1, i= sNios->sUart0.uiRxBuf_Head, ucCRC = 0;  j < UartPackageRXLengthFromHost-1-1; j++) {
 4000eb0:	e0bffc17 	ldw	r2,-16(fp)
 4000eb4:	10800044 	addi	r2,r2,1
 4000eb8:	e0bffc15 	stw	r2,-16(fp)
 4000ebc:	e0bffc17 	ldw	r2,-16(fp)
 4000ec0:	108002f0 	cmpltui	r2,r2,11
 4000ec4:	103ff01e 	bne	r2,zero,4000e88 <UarRxCrcCal+0x2c>
         /* calculate crc value in Txbuf[UartPackageLengthToHost], not include UartPackageFrameHead, CRC, UartPackageFrameEnd */
//        LOGD("0x%x ", sNios->sUart0.ucRxBuf[i+j]);
        ucCRC +=  sNios->sUart0.ucRxBuf[i+j];
    }
//    LOGD("\nCRC=0x%x\n", ucCRC & 0xff);
    return ucCRC & 0xff;
 4000ec8:	e0bffe03 	ldbu	r2,-8(fp)

}
 4000ecc:	e037883a 	mov	sp,fp
 4000ed0:	df000017 	ldw	fp,0(sp)
 4000ed4:	dec00104 	addi	sp,sp,4
 4000ed8:	f800283a 	ret

04000edc <UartTxbufProcess>:


/* send txbuf to host via UART0 */
void UartTxbufProcess( sNios_s *sNios)
{
 4000edc:	defffc04 	addi	sp,sp,-16
 4000ee0:	dfc00315 	stw	ra,12(sp)
 4000ee4:	df000215 	stw	fp,8(sp)
 4000ee8:	df000204 	addi	fp,sp,8
 4000eec:	e13fff15 	stw	r4,-4(fp)
	/* 確認TX_buf是否ready。
	 *  */
    char ret;
    //        LOGD("T");
    if(sNios->sUart0.cTXbufRdy){ /* check Tx_buf is ready or not?*/
 4000ef0:	e0bfff17 	ldw	r2,-4(fp)
 4000ef4:	10824a03 	ldbu	r2,2344(r2)
 4000ef8:	10803fcc 	andi	r2,r2,255
 4000efc:	1080201c 	xori	r2,r2,128
 4000f00:	10bfe004 	addi	r2,r2,-128
 4000f04:	1005003a 	cmpeq	r2,r2,zero
 4000f08:	10001b1e 	bne	r2,zero,4000f78 <UartTxbufProcess+0x9c>
        if (sNios->sUart0.uiTxBuf_End > sNios->sUart0.uiTxBuf_Head) { /* check length */
 4000f0c:	e0bfff17 	ldw	r2,-4(fp)
 4000f10:	10c24617 	ldw	r3,2328(r2)
 4000f14:	e0bfff17 	ldw	r2,-4(fp)
 4000f18:	10824517 	ldw	r2,2324(r2)
 4000f1c:	10c0160e 	bge	r2,r3,4000f78 <UartTxbufProcess+0x9c>
            ret = SendUart(&sNios->sUart0, sNios->sUart0.ucTxBuf[sNios->sUart0.uiTxBuf_Head]);
 4000f20:	e0bfff17 	ldw	r2,-4(fp)
 4000f24:	11004b04 	addi	r4,r2,300
 4000f28:	e0bfff17 	ldw	r2,-4(fp)
 4000f2c:	10c24517 	ldw	r3,2324(r2)
 4000f30:	e0bfff17 	ldw	r2,-4(fp)
 4000f34:	1885883a 	add	r2,r3,r2
 4000f38:	10814b04 	addi	r2,r2,1324
 4000f3c:	10800003 	ldbu	r2,0(r2)
 4000f40:	11403fcc 	andi	r5,r2,255
 4000f44:	40044780 	call	4004478 <SendUart>
 4000f48:	e0bffe05 	stb	r2,-8(fp)
//            LOGD("End=%d, %d, %d\n ",  sNios->sUart0.uiTxBuf_End, ret, sNios->sUart0.uiTxBuf_Head);
            if(ret == -1){
 4000f4c:	e0bffe07 	ldb	r2,-8(fp)
 4000f50:	10bfffe0 	cmpeqi	r2,r2,-1
 4000f54:	1000081e 	bne	r2,zero,4000f78 <UartTxbufProcess+0x9c>
//                LOGD("B");
                /* send data failure */
                #ifdef DEBUG_MESSAGE
                    LOGD("[MSG]Uart0 have exception condition.");
                #endif
            } else if(ret == 1){ /* send successful, and increase TX head index */
 4000f58:	e0bffe07 	ldb	r2,-8(fp)
 4000f5c:	10800058 	cmpnei	r2,r2,1
 4000f60:	1000051e 	bne	r2,zero,4000f78 <UartTxbufProcess+0x9c>
//                LOGD("0x%x ", sNios->sUart0.ucTxBuf[sNios->sUart0.uiTxBuf_Head]);
                sNios->sUart0.uiTxBuf_Head++;
 4000f64:	e0bfff17 	ldw	r2,-4(fp)
 4000f68:	10824517 	ldw	r2,2324(r2)
 4000f6c:	10c00044 	addi	r3,r2,1
 4000f70:	e0bfff17 	ldw	r2,-4(fp)
 4000f74:	10c24515 	stw	r3,2324(r2)
                    // LOGD("[MSG]Uart0 is busy to transmit data.\n");
                #endif
            }
        }
    }
    if(sNios->sUart0.uiTxBuf_Head == sNios->sUart0.uiTxBuf_End){
 4000f78:	e0bfff17 	ldw	r2,-4(fp)
 4000f7c:	10c24517 	ldw	r3,2324(r2)
 4000f80:	e0bfff17 	ldw	r2,-4(fp)
 4000f84:	10824617 	ldw	r2,2328(r2)
 4000f88:	1880081e 	bne	r3,r2,4000fac <UartTxbufProcess+0xd0>
//        LOGD("\n");
        sNios->cFlagPackDataToHost = 0; /* clear */
 4000f8c:	e0bfff17 	ldw	r2,-4(fp)
 4000f90:	10000005 	stb	zero,0(r2)
        /* no data need to send */
        sNios->sUart0.uiTxBuf_Head = 0 ;
 4000f94:	e0bfff17 	ldw	r2,-4(fp)
 4000f98:	10024515 	stw	zero,2324(r2)
        sNios->sUart0.uiTxBuf_End = 0;
 4000f9c:	e0bfff17 	ldw	r2,-4(fp)
 4000fa0:	10024615 	stw	zero,2328(r2)
        sNios->sUart0.cTXbufRdy = 0;
 4000fa4:	e0bfff17 	ldw	r2,-4(fp)
 4000fa8:	10024a05 	stb	zero,2344(r2)
    }
}
 4000fac:	e037883a 	mov	sp,fp
 4000fb0:	dfc00117 	ldw	ra,4(sp)
 4000fb4:	df000017 	ldw	fp,0(sp)
 4000fb8:	dec00204 	addi	sp,sp,8
 4000fbc:	f800283a 	ret

04000fc0 <UartRxbufProcess>:
/* Uart0 RxBuf process*/
void UartRxbufProcess(sNios_s *sNios) {
 4000fc0:	defffc04 	addi	sp,sp,-16
 4000fc4:	dfc00315 	stw	ra,12(sp)
 4000fc8:	df000215 	stw	fp,8(sp)
 4000fcc:	df000204 	addi	fp,sp,8
 4000fd0:	e13fff15 	stw	r4,-4(fp)
	/* 確認RX_buf內是否有資料，如果有的話就確認是否有大於封包的大小。
	 * 有的話在確認封包的封頭跟封尾，是的話就進入CRC檢查，對的話在解封包*/
    unsigned char crc;


    sNios->cFlagHostDataIn = 0; /* no host data */
 4000fd4:	e0bfff17 	ldw	r2,-4(fp)
 4000fd8:	10000085 	stb	zero,2(r2)
    if(sNios->sUart0.uiRxBuf_End  > (sNios->sUart0.uiRxBuf_Head+(UartPackageRXLengthFromHost-1) )) { /* check a package length from host */
 4000fdc:	e0bfff17 	ldw	r2,-4(fp)
 4000fe0:	10c14a17 	ldw	r3,1320(r2)
 4000fe4:	e0bfff17 	ldw	r2,-4(fp)
 4000fe8:	10814917 	ldw	r2,1316(r2)
 4000fec:	10800304 	addi	r2,r2,12
 4000ff0:	10c0390e 	bge	r2,r3,40010d8 <UartRxbufProcess+0x118>
        if(sNios->sUart0.uiRxBuf_End < sNios->sUart0.uiRxBuf_Head){ /* 檢查是否overflow */
            LOGD("Head=%d, End=%d\n",sNios->sUart0.uiRxBuf_Head, sNios->sUart0.uiRxBuf_End);
            LOGD("RXbuf error.\n");
        }
        if(sNios->sUart0.ucRxBuf[sNios->sUart0.uiRxBuf_Head] == UartPackageFrameHead) { /* find frame head */
 4000ff4:	e0bfff17 	ldw	r2,-4(fp)
 4000ff8:	10c14917 	ldw	r3,1316(r2)
 4000ffc:	e0bfff17 	ldw	r2,-4(fp)
 4001000:	1885883a 	add	r2,r3,r2
 4001004:	10804e04 	addi	r2,r2,312
 4001008:	10800043 	ldbu	r2,1(r2)
 400100c:	10803fcc 	andi	r2,r2,255
 4001010:	10802a98 	cmpnei	r2,r2,170
 4001014:	10002b1e 	bne	r2,zero,40010c4 <UartRxbufProcess+0x104>
            if(sNios->sUart0.ucRxBuf[sNios->sUart0.uiRxBuf_Head + UartPackageRXLengthFromHost - 1] == UartPackageFrameEnd) { /* find frame end */
 4001018:	e0bfff17 	ldw	r2,-4(fp)
 400101c:	10814917 	ldw	r2,1316(r2)
 4001020:	10c00304 	addi	r3,r2,12
 4001024:	e0bfff17 	ldw	r2,-4(fp)
 4001028:	1885883a 	add	r2,r3,r2
 400102c:	10804e04 	addi	r2,r2,312
 4001030:	10800043 	ldbu	r2,1(r2)
 4001034:	10803fcc 	andi	r2,r2,255
 4001038:	10803b98 	cmpnei	r2,r2,238
 400103c:	10001b1e 	bne	r2,zero,40010ac <UartRxbufProcess+0xec>
                /* find a UartPackage form Host */
                crc = UarRxCrcCal(sNios);  /* calculate CRC */
 4001040:	e13fff17 	ldw	r4,-4(fp)
 4001044:	4000e5c0 	call	4000e5c <UarRxCrcCal>
 4001048:	e0bffe05 	stb	r2,-8(fp)
                if(crc == sNios->sUart0.ucRxBuf[sNios->sUart0.uiRxBuf_Head + UartPackageRXLengthFromHost - 2]){ /* crc check */
 400104c:	e0bfff17 	ldw	r2,-4(fp)
 4001050:	10814917 	ldw	r2,1316(r2)
 4001054:	10c002c4 	addi	r3,r2,11
 4001058:	e0bfff17 	ldw	r2,-4(fp)
 400105c:	1885883a 	add	r2,r3,r2
 4001060:	10804e04 	addi	r2,r2,312
 4001064:	10800043 	ldbu	r2,1(r2)
 4001068:	10c03fcc 	andi	r3,r2,255
 400106c:	e0bffe03 	ldbu	r2,-8(fp)
 4001070:	1880081e 	bne	r3,r2,4001094 <UartRxbufProcess+0xd4>
//                        LOGD("\n[MSG]RBuf=");
//                        for(i=0; i < UartPackageRXLengthFromHost;i++){
//                            LOGD("0x%2x, ", sNios->sUart0.ucRxBuf[i]);
//                        }
//                        LOGD("\n");
                          sNios->cFlagHostDataIn = 1; /* no host data In*/
 4001074:	e0ffff17 	ldw	r3,-4(fp)
 4001078:	00800044 	movi	r2,1
 400107c:	18800085 	stb	r2,2(r3)
                          UnpackHostPackage(sNios);
 4001080:	e13fff17 	ldw	r4,-4(fp)
 4001084:	4000a440 	call	4000a44 <UnpackHostPackage>
                          sNios->ucLedRcvHostPackage = 1; /* 3rd LED on*/
 4001088:	e0ffff17 	ldw	r3,-4(fp)
 400108c:	00800044 	movi	r2,1
 4001090:	18828c45 	stb	r2,2609(r3)
                } else {
//                    LOGD("X\n");
//                    sNios->ucLedRcvHostPackage = 0; /* 3rd LED off*/
//                    LOGD("[MSG]%4d RX frame data CRC error.(0x%x)\n", sNios->sTimer0.uiTICnt, crc);
                }
                sNios->sUart0.uiRxBuf_Head +=  UartPackageRXLengthFromHost; /* add package length */
 4001094:	e0bfff17 	ldw	r2,-4(fp)
 4001098:	10814917 	ldw	r2,1316(r2)
 400109c:	10c00344 	addi	r3,r2,13
 40010a0:	e0bfff17 	ldw	r2,-4(fp)
 40010a4:	10c14915 	stw	r3,1316(r2)
 40010a8:	00000b06 	br	40010d8 <UartRxbufProcess+0x118>
            }else {
//                sNios->ucLedRcvHostPackage = 0; /* 3rd LED off*/
                sNios->sUart0.uiRxBuf_Head++; /* increase index*/
 40010ac:	e0bfff17 	ldw	r2,-4(fp)
 40010b0:	10814917 	ldw	r2,1316(r2)
 40010b4:	10c00044 	addi	r3,r2,1
 40010b8:	e0bfff17 	ldw	r2,-4(fp)
 40010bc:	10c14915 	stw	r3,1316(r2)
 40010c0:	00000506 	br	40010d8 <UartRxbufProcess+0x118>
            }
        }else{
            /* not frame head */
//            sNios->ucLedRcvHostPackage = 0; /* 3rd LED off*/
            sNios->sUart0.uiRxBuf_Head++; /* increase index*/
 40010c4:	e0bfff17 	ldw	r2,-4(fp)
 40010c8:	10814917 	ldw	r2,1316(r2)
 40010cc:	10c00044 	addi	r3,r2,1
 40010d0:	e0bfff17 	ldw	r2,-4(fp)
 40010d4:	10c14915 	stw	r3,1316(r2)
        }
    }else{
//        sNios->ucLedRcvHostPackage = 0; /* 3rd LED off*/
    }

    if(sNios->sUart0.uiRxBuf_Head == sNios->sUart0.uiRxBuf_End){
 40010d8:	e0bfff17 	ldw	r2,-4(fp)
 40010dc:	10c14917 	ldw	r3,1316(r2)
 40010e0:	e0bfff17 	ldw	r2,-4(fp)
 40010e4:	10814a17 	ldw	r2,1320(r2)
 40010e8:	1880041e 	bne	r3,r2,40010fc <UartRxbufProcess+0x13c>
        /* no data need to process */
        sNios->sUart0.uiRxBuf_Head = 0 ;
 40010ec:	e0bfff17 	ldw	r2,-4(fp)
 40010f0:	10014915 	stw	zero,1316(r2)
        sNios->sUart0.uiRxBuf_End = 0;
 40010f4:	e0bfff17 	ldw	r2,-4(fp)
 40010f8:	10014a15 	stw	zero,1320(r2)
//    }
    }


    /* LED control */
    if( sNios->cFlagHostDataIn ) {
 40010fc:	e0bfff17 	ldw	r2,-4(fp)
 4001100:	10800083 	ldbu	r2,2(r2)
 4001104:	10803fcc 	andi	r2,r2,255
 4001108:	1005003a 	cmpeq	r2,r2,zero
 400110c:	1000061e 	bne	r2,zero,4001128 <UartRxbufProcess+0x168>
        sNios->uiRecvHostPackageTimeCnt = 0;
 4001110:	e0bfff17 	ldw	r2,-4(fp)
 4001114:	10028b15 	stw	zero,2604(r2)
        sNios->ucLedRcvHostPackage = 1; /* light led */
 4001118:	e0ffff17 	ldw	r3,-4(fp)
 400111c:	00800044 	movi	r2,1
 4001120:	18828c45 	stb	r2,2609(r3)
 4001124:	00000c06 	br	4001158 <UartRxbufProcess+0x198>
    } else if(sNios->uiRecvHostPackageTimeCnt > 10000){
 4001128:	e0bfff17 	ldw	r2,-4(fp)
 400112c:	10828b17 	ldw	r2,2604(r2)
 4001130:	1089c470 	cmpltui	r2,r2,10001
 4001134:	1000031e 	bne	r2,zero,4001144 <UartRxbufProcess+0x184>
        sNios->ucLedRcvHostPackage = 0; /* off led*/
 4001138:	e0bfff17 	ldw	r2,-4(fp)
 400113c:	10028c45 	stb	zero,2609(r2)
 4001140:	00000506 	br	4001158 <UartRxbufProcess+0x198>
    }else{
        sNios->uiRecvHostPackageTimeCnt++;
 4001144:	e0bfff17 	ldw	r2,-4(fp)
 4001148:	10828b17 	ldw	r2,2604(r2)
 400114c:	10c00044 	addi	r3,r2,1
 4001150:	e0bfff17 	ldw	r2,-4(fp)
 4001154:	10c28b15 	stw	r3,2604(r2)
    }
    /* LED control end */
//    LOGD("Head=%d, End=%d\n",sNios->sUart0.uiRxBuf_Head, sNios->sUart0.uiRxBuf_End);
}
 4001158:	e037883a 	mov	sp,fp
 400115c:	dfc00117 	ldw	ra,4(sp)
 4001160:	df000017 	ldw	fp,0(sp)
 4001164:	dec00204 	addi	sp,sp,8
 4001168:	f800283a 	ret

0400116c <PackUartDataToHost>:


/* put Nios data to uart package */
void PackUartDataToHost(sNios_s *sNios){
 400116c:	defff904 	addi	sp,sp,-28
 4001170:	dfc00615 	stw	ra,24(sp)
 4001174:	df000515 	stw	fp,20(sp)
 4001178:	df000504 	addi	fp,sp,20
 400117c:	e13fff15 	stw	r4,-4(fp)
    sNios->sUart0.uiTxBuf_Head = 0;
    sNios->sUart0.uiTxBuf_End = UartPackageLengthToHost;
//    for(i=0;)
//    LOGD("\nTxCRC=0x%x", ucCRC);
#else
    if((sNios->cFlagPackDataToHost == 1)&&(sNios->sUart0.cTXbufRdy==0)){ /* start to pack data */
 4001180:	e0bfff17 	ldw	r2,-4(fp)
 4001184:	10800003 	ldbu	r2,0(r2)
 4001188:	10803fcc 	andi	r2,r2,255
 400118c:	1080201c 	xori	r2,r2,128
 4001190:	10bfe004 	addi	r2,r2,-128
 4001194:	10800058 	cmpnei	r2,r2,1
 4001198:	1003db1e 	bne	r2,zero,4002108 <PackUartDataToHost+0xf9c>
 400119c:	e0bfff17 	ldw	r2,-4(fp)
 40011a0:	10824a03 	ldbu	r2,2344(r2)
 40011a4:	10803fcc 	andi	r2,r2,255
 40011a8:	1080201c 	xori	r2,r2,128
 40011ac:	10bfe004 	addi	r2,r2,-128
 40011b0:	1004c03a 	cmpne	r2,r2,zero
 40011b4:	1003d41e 	bne	r2,zero,4002108 <PackUartDataToHost+0xf9c>
        idx=sNios->sUart0.uiTxBuf_End;
 40011b8:	e0bfff17 	ldw	r2,-4(fp)
 40011bc:	10824617 	ldw	r2,2328(r2)
 40011c0:	e0bffd15 	stw	r2,-12(fp)
        sNios->sUart0.ucTxBuf[idx] = UartPackageFrameHead; idx++;                                              /* [0] package head */
 40011c4:	e0fffd17 	ldw	r3,-12(fp)
 40011c8:	e0bfff17 	ldw	r2,-4(fp)
 40011cc:	1885883a 	add	r2,r3,r2
 40011d0:	10c14b04 	addi	r3,r2,1324
 40011d4:	00bfea84 	movi	r2,-86
 40011d8:	18800005 	stb	r2,0(r3)
 40011dc:	e0bffd17 	ldw	r2,-12(fp)
 40011e0:	10800044 	addi	r2,r2,1
 40011e4:	e0bffd15 	stw	r2,-12(fp)
        sNios->sUart0.ucTxBuf[idx] = sNios->sTimer0.uiTICnt >>16 & 0xff; idx++;                /* [1] Timer interrupt Counter(3rd Byte) */
 40011e8:	e13ffd17 	ldw	r4,-12(fp)
 40011ec:	e0bfff17 	ldw	r2,-4(fp)
 40011f0:	10804617 	ldw	r2,280(r2)
 40011f4:	1004d43a 	srli	r2,r2,16
 40011f8:	1007883a 	mov	r3,r2
 40011fc:	e0bfff17 	ldw	r2,-4(fp)
 4001200:	2085883a 	add	r2,r4,r2
 4001204:	10814b04 	addi	r2,r2,1324
 4001208:	10c00005 	stb	r3,0(r2)
 400120c:	e0bffd17 	ldw	r2,-12(fp)
 4001210:	10800044 	addi	r2,r2,1
 4001214:	e0bffd15 	stw	r2,-12(fp)
        sNios->sUart0.ucTxBuf[idx] = sNios->sTimer0.uiTICnt >>8 & 0xff; idx++;                 /* [2] Timer interrupt Counter(2nd Byte) */
 4001218:	e13ffd17 	ldw	r4,-12(fp)
 400121c:	e0bfff17 	ldw	r2,-4(fp)
 4001220:	10804617 	ldw	r2,280(r2)
 4001224:	1004d23a 	srli	r2,r2,8
 4001228:	1007883a 	mov	r3,r2
 400122c:	e0bfff17 	ldw	r2,-4(fp)
 4001230:	2085883a 	add	r2,r4,r2
 4001234:	10814b04 	addi	r2,r2,1324
 4001238:	10c00005 	stb	r3,0(r2)
 400123c:	e0bffd17 	ldw	r2,-12(fp)
 4001240:	10800044 	addi	r2,r2,1
 4001244:	e0bffd15 	stw	r2,-12(fp)
        sNios->sUart0.ucTxBuf[idx] = sNios->sTimer0.uiTICnt & 0xff; idx++;                     /* [3] Timer interrupt Counter(LSB Byte) */
 4001248:	e0fffd17 	ldw	r3,-12(fp)
 400124c:	e0bfff17 	ldw	r2,-4(fp)
 4001250:	10804617 	ldw	r2,280(r2)
 4001254:	1009883a 	mov	r4,r2
 4001258:	e0bfff17 	ldw	r2,-4(fp)
 400125c:	1885883a 	add	r2,r3,r2
 4001260:	10814b04 	addi	r2,r2,1324
 4001264:	11000005 	stb	r4,0(r2)
 4001268:	e0bffd17 	ldw	r2,-12(fp)
 400126c:	10800044 	addi	r2,r2,1
 4001270:	e0bffd15 	stw	r2,-12(fp)
        sNios->sUart0.ucTxBuf[idx] = 0; idx++;                                                                 /* [4] Status byte */
 4001274:	e0fffd17 	ldw	r3,-12(fp)
 4001278:	e0bfff17 	ldw	r2,-4(fp)
 400127c:	1885883a 	add	r2,r3,r2
 4001280:	10814b04 	addi	r2,r2,1324
 4001284:	10000005 	stb	zero,0(r2)
 4001288:	e0bffd17 	ldw	r2,-12(fp)
 400128c:	10800044 	addi	r2,r2,1
 4001290:	e0bffd15 	stw	r2,-12(fp)
        sNios->sUart0.ucTxBuf[idx] = sNios->sMotor.sMotorAp.ucMotorPWM & 0xff; idx++;          /* [5] motor A PWM_CMD present value (1 Byte)*/
 4001294:	e0fffd17 	ldw	r3,-12(fp)
 4001298:	e0bfff17 	ldw	r2,-4(fp)
 400129c:	11000803 	ldbu	r4,32(r2)
 40012a0:	e0bfff17 	ldw	r2,-4(fp)
 40012a4:	1885883a 	add	r2,r3,r2
 40012a8:	10814b04 	addi	r2,r2,1324
 40012ac:	11000005 	stb	r4,0(r2)
 40012b0:	e0bffd17 	ldw	r2,-12(fp)
 40012b4:	10800044 	addi	r2,r2,1
 40012b8:	e0bffd15 	stw	r2,-12(fp)
        sNios->sUart0.ucTxBuf[idx] = sNios->sMotor.sMotorBp.ucMotorPWM & 0xff; idx++;          /* [6] motor B PWM_CMD present value (1 Byte)*/
 40012bc:	e0fffd17 	ldw	r3,-12(fp)
 40012c0:	e0bfff17 	ldw	r2,-4(fp)
 40012c4:	11001703 	ldbu	r4,92(r2)
 40012c8:	e0bfff17 	ldw	r2,-4(fp)
 40012cc:	1885883a 	add	r2,r3,r2
 40012d0:	10814b04 	addi	r2,r2,1324
 40012d4:	11000005 	stb	r4,0(r2)
 40012d8:	e0bffd17 	ldw	r2,-12(fp)
 40012dc:	10800044 	addi	r2,r2,1
 40012e0:	e0bffd15 	stw	r2,-12(fp)
        sNios->sUart0.ucTxBuf[idx] = sNios->sMotor.sMotorCp.ucMotorPWM & 0xff; idx++;          /* [7] motor C PWM_CMD present value (1 Byte)*/
 40012e4:	e0fffd17 	ldw	r3,-12(fp)
 40012e8:	e0bfff17 	ldw	r2,-4(fp)
 40012ec:	11002603 	ldbu	r4,152(r2)
 40012f0:	e0bfff17 	ldw	r2,-4(fp)
 40012f4:	1885883a 	add	r2,r3,r2
 40012f8:	10814b04 	addi	r2,r2,1324
 40012fc:	11000005 	stb	r4,0(r2)
 4001300:	e0bffd17 	ldw	r2,-12(fp)
 4001304:	10800044 	addi	r2,r2,1
 4001308:	e0bffd15 	stw	r2,-12(fp)
        sNios->sUart0.ucTxBuf[idx] = sNios->sMotor.sMotorDp.ucMotorPWM & 0xff; idx++;          /* [8] motor D PWM_CMD present value (1 Byte)*/
 400130c:	e0fffd17 	ldw	r3,-12(fp)
 4001310:	e0bfff17 	ldw	r2,-4(fp)
 4001314:	11003503 	ldbu	r4,212(r2)
 4001318:	e0bfff17 	ldw	r2,-4(fp)
 400131c:	1885883a 	add	r2,r3,r2
 4001320:	10814b04 	addi	r2,r2,1324
 4001324:	11000005 	stb	r4,0(r2)
 4001328:	e0bffd17 	ldw	r2,-12(fp)
 400132c:	10800044 	addi	r2,r2,1
 4001330:	e0bffd15 	stw	r2,-12(fp)
        sNios->sUart0.ucTxBuf[idx] = sNios->sMotor.uiR02MotorFBDir & 0xff; idx++;              /* [9] motor feedback direction */
 4001334:	e0fffd17 	ldw	r3,-12(fp)
 4001338:	e0bfff17 	ldw	r2,-4(fp)
 400133c:	10800417 	ldw	r2,16(r2)
 4001340:	1009883a 	mov	r4,r2
 4001344:	e0bfff17 	ldw	r2,-4(fp)
 4001348:	1885883a 	add	r2,r3,r2
 400134c:	10814b04 	addi	r2,r2,1324
 4001350:	11000005 	stb	r4,0(r2)
 4001354:	e0bffd17 	ldw	r2,-12(fp)
 4001358:	10800044 	addi	r2,r2,1
 400135c:	e0bffd15 	stw	r2,-12(fp)

//        LOGD("TxDir=%x \n", sNios->sUart0.ucTxBuf[9]);
//        LOGD("ENC=%x\n", sNios->sMotor.sMotorAp.iMotorFBEncoder);
        sNios->sUart0.ucTxBuf[idx] = sNios->sMotor.sMotorAp.iMotorFBEncoder>>24 & 0xff; idx++; /* [10] motor A feedback direction(4th Byte)*/
 4001360:	e13ffd17 	ldw	r4,-12(fp)
 4001364:	e0bfff17 	ldw	r2,-4(fp)
 4001368:	10800a17 	ldw	r2,40(r2)
 400136c:	1005d63a 	srai	r2,r2,24
 4001370:	1007883a 	mov	r3,r2
 4001374:	00bfffc4 	movi	r2,-1
 4001378:	1884703a 	and	r2,r3,r2
 400137c:	1007883a 	mov	r3,r2
 4001380:	e0bfff17 	ldw	r2,-4(fp)
 4001384:	2085883a 	add	r2,r4,r2
 4001388:	10814b04 	addi	r2,r2,1324
 400138c:	10c00005 	stb	r3,0(r2)
 4001390:	e0bffd17 	ldw	r2,-12(fp)
 4001394:	10800044 	addi	r2,r2,1
 4001398:	e0bffd15 	stw	r2,-12(fp)
        sNios->sUart0.ucTxBuf[idx] = sNios->sMotor.sMotorAp.iMotorFBEncoder>>16 & 0xff; idx++; /* [11] motor A feedback direction(3rd Byte) */
 400139c:	e13ffd17 	ldw	r4,-12(fp)
 40013a0:	e0bfff17 	ldw	r2,-4(fp)
 40013a4:	10800a17 	ldw	r2,40(r2)
 40013a8:	1005d43a 	srai	r2,r2,16
 40013ac:	1007883a 	mov	r3,r2
 40013b0:	00bfffc4 	movi	r2,-1
 40013b4:	1884703a 	and	r2,r3,r2
 40013b8:	1007883a 	mov	r3,r2
 40013bc:	e0bfff17 	ldw	r2,-4(fp)
 40013c0:	2085883a 	add	r2,r4,r2
 40013c4:	10814b04 	addi	r2,r2,1324
 40013c8:	10c00005 	stb	r3,0(r2)
 40013cc:	e0bffd17 	ldw	r2,-12(fp)
 40013d0:	10800044 	addi	r2,r2,1
 40013d4:	e0bffd15 	stw	r2,-12(fp)
        sNios->sUart0.ucTxBuf[idx] = sNios->sMotor.sMotorAp.iMotorFBEncoder>>8 & 0xff; idx++;  /* [12] motor A feedback direction(2nd Byte) */
 40013d8:	e13ffd17 	ldw	r4,-12(fp)
 40013dc:	e0bfff17 	ldw	r2,-4(fp)
 40013e0:	10800a17 	ldw	r2,40(r2)
 40013e4:	1005d23a 	srai	r2,r2,8
 40013e8:	1007883a 	mov	r3,r2
 40013ec:	00bfffc4 	movi	r2,-1
 40013f0:	1884703a 	and	r2,r3,r2
 40013f4:	1007883a 	mov	r3,r2
 40013f8:	e0bfff17 	ldw	r2,-4(fp)
 40013fc:	2085883a 	add	r2,r4,r2
 4001400:	10814b04 	addi	r2,r2,1324
 4001404:	10c00005 	stb	r3,0(r2)
 4001408:	e0bffd17 	ldw	r2,-12(fp)
 400140c:	10800044 	addi	r2,r2,1
 4001410:	e0bffd15 	stw	r2,-12(fp)
        sNios->sUart0.ucTxBuf[idx] = sNios->sMotor.sMotorAp.iMotorFBEncoder & 0xff; idx++;     /* [13] motor A feedback direction(1st Byte) */
 4001414:	e13ffd17 	ldw	r4,-12(fp)
 4001418:	e0bfff17 	ldw	r2,-4(fp)
 400141c:	10800a17 	ldw	r2,40(r2)
 4001420:	1007883a 	mov	r3,r2
 4001424:	00bfffc4 	movi	r2,-1
 4001428:	1884703a 	and	r2,r3,r2
 400142c:	1007883a 	mov	r3,r2
 4001430:	e0bfff17 	ldw	r2,-4(fp)
 4001434:	2085883a 	add	r2,r4,r2
 4001438:	10814b04 	addi	r2,r2,1324
 400143c:	10c00005 	stb	r3,0(r2)
 4001440:	e0bffd17 	ldw	r2,-12(fp)
 4001444:	10800044 	addi	r2,r2,1
 4001448:	e0bffd15 	stw	r2,-12(fp)
//        LOGD("ENC=%x %x", sNios->sUart0.ucTxBuf[10], sNios->sUart0.ucTxBuf[11]);
//        LOGD("ENC=%x %x\n", sNios->sUart0.ucTxBuf[12], sNios->sUart0.ucTxBuf[13]);
        sNios->sUart0.ucTxBuf[idx] = sNios->sMotor.sMotorBp.iMotorFBEncoder>>24 & 0xff; idx++; /* [14] motor B feedback direction(4th Byte)*/
 400144c:	e13ffd17 	ldw	r4,-12(fp)
 4001450:	e0bfff17 	ldw	r2,-4(fp)
 4001454:	10801917 	ldw	r2,100(r2)
 4001458:	1005d63a 	srai	r2,r2,24
 400145c:	1007883a 	mov	r3,r2
 4001460:	00bfffc4 	movi	r2,-1
 4001464:	1884703a 	and	r2,r3,r2
 4001468:	1007883a 	mov	r3,r2
 400146c:	e0bfff17 	ldw	r2,-4(fp)
 4001470:	2085883a 	add	r2,r4,r2
 4001474:	10814b04 	addi	r2,r2,1324
 4001478:	10c00005 	stb	r3,0(r2)
 400147c:	e0bffd17 	ldw	r2,-12(fp)
 4001480:	10800044 	addi	r2,r2,1
 4001484:	e0bffd15 	stw	r2,-12(fp)
        sNios->sUart0.ucTxBuf[idx] = sNios->sMotor.sMotorBp.iMotorFBEncoder>>16 & 0xff; idx++; /* [15] motor B feedback direction(3rd Byte) */
 4001488:	e13ffd17 	ldw	r4,-12(fp)
 400148c:	e0bfff17 	ldw	r2,-4(fp)
 4001490:	10801917 	ldw	r2,100(r2)
 4001494:	1005d43a 	srai	r2,r2,16
 4001498:	1007883a 	mov	r3,r2
 400149c:	00bfffc4 	movi	r2,-1
 40014a0:	1884703a 	and	r2,r3,r2
 40014a4:	1007883a 	mov	r3,r2
 40014a8:	e0bfff17 	ldw	r2,-4(fp)
 40014ac:	2085883a 	add	r2,r4,r2
 40014b0:	10814b04 	addi	r2,r2,1324
 40014b4:	10c00005 	stb	r3,0(r2)
 40014b8:	e0bffd17 	ldw	r2,-12(fp)
 40014bc:	10800044 	addi	r2,r2,1
 40014c0:	e0bffd15 	stw	r2,-12(fp)
        sNios->sUart0.ucTxBuf[idx] = sNios->sMotor.sMotorBp.iMotorFBEncoder>>8 & 0xff; idx++;  /* [16] motor B feedback direction(2nd Byte) */
 40014c4:	e13ffd17 	ldw	r4,-12(fp)
 40014c8:	e0bfff17 	ldw	r2,-4(fp)
 40014cc:	10801917 	ldw	r2,100(r2)
 40014d0:	1005d23a 	srai	r2,r2,8
 40014d4:	1007883a 	mov	r3,r2
 40014d8:	00bfffc4 	movi	r2,-1
 40014dc:	1884703a 	and	r2,r3,r2
 40014e0:	1007883a 	mov	r3,r2
 40014e4:	e0bfff17 	ldw	r2,-4(fp)
 40014e8:	2085883a 	add	r2,r4,r2
 40014ec:	10814b04 	addi	r2,r2,1324
 40014f0:	10c00005 	stb	r3,0(r2)
 40014f4:	e0bffd17 	ldw	r2,-12(fp)
 40014f8:	10800044 	addi	r2,r2,1
 40014fc:	e0bffd15 	stw	r2,-12(fp)
        sNios->sUart0.ucTxBuf[idx] = sNios->sMotor.sMotorBp.iMotorFBEncoder & 0xff; idx++;     /* [17] motor B feedback direction(1st Byte) */
 4001500:	e13ffd17 	ldw	r4,-12(fp)
 4001504:	e0bfff17 	ldw	r2,-4(fp)
 4001508:	10801917 	ldw	r2,100(r2)
 400150c:	1007883a 	mov	r3,r2
 4001510:	00bfffc4 	movi	r2,-1
 4001514:	1884703a 	and	r2,r3,r2
 4001518:	1007883a 	mov	r3,r2
 400151c:	e0bfff17 	ldw	r2,-4(fp)
 4001520:	2085883a 	add	r2,r4,r2
 4001524:	10814b04 	addi	r2,r2,1324
 4001528:	10c00005 	stb	r3,0(r2)
 400152c:	e0bffd17 	ldw	r2,-12(fp)
 4001530:	10800044 	addi	r2,r2,1
 4001534:	e0bffd15 	stw	r2,-12(fp)
        sNios->sUart0.ucTxBuf[idx] = sNios->sMotor.sMotorCp.iMotorFBEncoder>>24 & 0xff; idx++; /* [18] motor C feedback direction(4th Byte)*/
 4001538:	e13ffd17 	ldw	r4,-12(fp)
 400153c:	e0bfff17 	ldw	r2,-4(fp)
 4001540:	10802817 	ldw	r2,160(r2)
 4001544:	1005d63a 	srai	r2,r2,24
 4001548:	1007883a 	mov	r3,r2
 400154c:	00bfffc4 	movi	r2,-1
 4001550:	1884703a 	and	r2,r3,r2
 4001554:	1007883a 	mov	r3,r2
 4001558:	e0bfff17 	ldw	r2,-4(fp)
 400155c:	2085883a 	add	r2,r4,r2
 4001560:	10814b04 	addi	r2,r2,1324
 4001564:	10c00005 	stb	r3,0(r2)
 4001568:	e0bffd17 	ldw	r2,-12(fp)
 400156c:	10800044 	addi	r2,r2,1
 4001570:	e0bffd15 	stw	r2,-12(fp)
        sNios->sUart0.ucTxBuf[idx] = sNios->sMotor.sMotorCp.iMotorFBEncoder>>16 & 0xff; idx++; /* [19] motor C feedback direction(3rd Byte) */
 4001574:	e13ffd17 	ldw	r4,-12(fp)
 4001578:	e0bfff17 	ldw	r2,-4(fp)
 400157c:	10802817 	ldw	r2,160(r2)
 4001580:	1005d43a 	srai	r2,r2,16
 4001584:	1007883a 	mov	r3,r2
 4001588:	00bfffc4 	movi	r2,-1
 400158c:	1884703a 	and	r2,r3,r2
 4001590:	1007883a 	mov	r3,r2
 4001594:	e0bfff17 	ldw	r2,-4(fp)
 4001598:	2085883a 	add	r2,r4,r2
 400159c:	10814b04 	addi	r2,r2,1324
 40015a0:	10c00005 	stb	r3,0(r2)
 40015a4:	e0bffd17 	ldw	r2,-12(fp)
 40015a8:	10800044 	addi	r2,r2,1
 40015ac:	e0bffd15 	stw	r2,-12(fp)
        sNios->sUart0.ucTxBuf[idx] = sNios->sMotor.sMotorCp.iMotorFBEncoder>>8 & 0xff; idx++;  /* [20] motor C feedback direction(2nd Byte) */
 40015b0:	e13ffd17 	ldw	r4,-12(fp)
 40015b4:	e0bfff17 	ldw	r2,-4(fp)
 40015b8:	10802817 	ldw	r2,160(r2)
 40015bc:	1005d23a 	srai	r2,r2,8
 40015c0:	1007883a 	mov	r3,r2
 40015c4:	00bfffc4 	movi	r2,-1
 40015c8:	1884703a 	and	r2,r3,r2
 40015cc:	1007883a 	mov	r3,r2
 40015d0:	e0bfff17 	ldw	r2,-4(fp)
 40015d4:	2085883a 	add	r2,r4,r2
 40015d8:	10814b04 	addi	r2,r2,1324
 40015dc:	10c00005 	stb	r3,0(r2)
 40015e0:	e0bffd17 	ldw	r2,-12(fp)
 40015e4:	10800044 	addi	r2,r2,1
 40015e8:	e0bffd15 	stw	r2,-12(fp)
        sNios->sUart0.ucTxBuf[idx] = sNios->sMotor.sMotorCp.iMotorFBEncoder & 0xff; idx++;     /* [21] motor C feedback direction(1st Byte) */
 40015ec:	e13ffd17 	ldw	r4,-12(fp)
 40015f0:	e0bfff17 	ldw	r2,-4(fp)
 40015f4:	10802817 	ldw	r2,160(r2)
 40015f8:	1007883a 	mov	r3,r2
 40015fc:	00bfffc4 	movi	r2,-1
 4001600:	1884703a 	and	r2,r3,r2
 4001604:	1007883a 	mov	r3,r2
 4001608:	e0bfff17 	ldw	r2,-4(fp)
 400160c:	2085883a 	add	r2,r4,r2
 4001610:	10814b04 	addi	r2,r2,1324
 4001614:	10c00005 	stb	r3,0(r2)
 4001618:	e0bffd17 	ldw	r2,-12(fp)
 400161c:	10800044 	addi	r2,r2,1
 4001620:	e0bffd15 	stw	r2,-12(fp)
        sNios->sUart0.ucTxBuf[idx] = sNios->sMotor.sMotorDp.iMotorFBEncoder>>24 & 0xff; idx++; /* [22] motor D feedback direction(4th Byte)*/
 4001624:	e13ffd17 	ldw	r4,-12(fp)
 4001628:	e0bfff17 	ldw	r2,-4(fp)
 400162c:	10803717 	ldw	r2,220(r2)
 4001630:	1005d63a 	srai	r2,r2,24
 4001634:	1007883a 	mov	r3,r2
 4001638:	00bfffc4 	movi	r2,-1
 400163c:	1884703a 	and	r2,r3,r2
 4001640:	1007883a 	mov	r3,r2
 4001644:	e0bfff17 	ldw	r2,-4(fp)
 4001648:	2085883a 	add	r2,r4,r2
 400164c:	10814b04 	addi	r2,r2,1324
 4001650:	10c00005 	stb	r3,0(r2)
 4001654:	e0bffd17 	ldw	r2,-12(fp)
 4001658:	10800044 	addi	r2,r2,1
 400165c:	e0bffd15 	stw	r2,-12(fp)
        sNios->sUart0.ucTxBuf[idx] = sNios->sMotor.sMotorDp.iMotorFBEncoder>>16 & 0xff; idx++; /* [23] motor D feedback direction(3rd Byte) */
 4001660:	e13ffd17 	ldw	r4,-12(fp)
 4001664:	e0bfff17 	ldw	r2,-4(fp)
 4001668:	10803717 	ldw	r2,220(r2)
 400166c:	1005d43a 	srai	r2,r2,16
 4001670:	1007883a 	mov	r3,r2
 4001674:	00bfffc4 	movi	r2,-1
 4001678:	1884703a 	and	r2,r3,r2
 400167c:	1007883a 	mov	r3,r2
 4001680:	e0bfff17 	ldw	r2,-4(fp)
 4001684:	2085883a 	add	r2,r4,r2
 4001688:	10814b04 	addi	r2,r2,1324
 400168c:	10c00005 	stb	r3,0(r2)
 4001690:	e0bffd17 	ldw	r2,-12(fp)
 4001694:	10800044 	addi	r2,r2,1
 4001698:	e0bffd15 	stw	r2,-12(fp)
        sNios->sUart0.ucTxBuf[idx] = sNios->sMotor.sMotorDp.iMotorFBEncoder>>8 & 0xff; idx++;  /* [24] motor D feedback direction(2nd Byte) */
 400169c:	e13ffd17 	ldw	r4,-12(fp)
 40016a0:	e0bfff17 	ldw	r2,-4(fp)
 40016a4:	10803717 	ldw	r2,220(r2)
 40016a8:	1005d23a 	srai	r2,r2,8
 40016ac:	1007883a 	mov	r3,r2
 40016b0:	00bfffc4 	movi	r2,-1
 40016b4:	1884703a 	and	r2,r3,r2
 40016b8:	1007883a 	mov	r3,r2
 40016bc:	e0bfff17 	ldw	r2,-4(fp)
 40016c0:	2085883a 	add	r2,r4,r2
 40016c4:	10814b04 	addi	r2,r2,1324
 40016c8:	10c00005 	stb	r3,0(r2)
 40016cc:	e0bffd17 	ldw	r2,-12(fp)
 40016d0:	10800044 	addi	r2,r2,1
 40016d4:	e0bffd15 	stw	r2,-12(fp)
        sNios->sUart0.ucTxBuf[idx] = sNios->sMotor.sMotorDp.iMotorFBEncoder & 0xff; idx++;     /* [25] motor D feedback direction(1st Byte) */
 40016d8:	e13ffd17 	ldw	r4,-12(fp)
 40016dc:	e0bfff17 	ldw	r2,-4(fp)
 40016e0:	10803717 	ldw	r2,220(r2)
 40016e4:	1007883a 	mov	r3,r2
 40016e8:	00bfffc4 	movi	r2,-1
 40016ec:	1884703a 	and	r2,r3,r2
 40016f0:	1007883a 	mov	r3,r2
 40016f4:	e0bfff17 	ldw	r2,-4(fp)
 40016f8:	2085883a 	add	r2,r4,r2
 40016fc:	10814b04 	addi	r2,r2,1324
 4001700:	10c00005 	stb	r3,0(r2)
 4001704:	e0bffd17 	ldw	r2,-12(fp)
 4001708:	10800044 	addi	r2,r2,1
 400170c:	e0bffd15 	stw	r2,-12(fp)
        if(sNios->sMotor.sMotorAp.uiMotorFBSpeedAccCnt ==0){
 4001710:	e0bfff17 	ldw	r2,-4(fp)
 4001714:	10801017 	ldw	r2,64(r2)
 4001718:	1004c03a 	cmpne	r2,r2,zero
 400171c:	1000021e 	bne	r2,zero,4001728 <PackUartDataToHost+0x5bc>
//            LOGD("Error Spd.\n");
            uiTmp = 0;
 4001720:	e03ffc15 	stw	zero,-16(fp)
 4001724:	00000a06 	br	4001750 <PackUartDataToHost+0x5e4>
        }else{
            uiTmp = sNios->sMotor.sMotorAp.uiMotorFBSpeedAcc / sNios->sMotor.sMotorAp.uiMotorFBSpeedAccCnt;
 4001728:	e0bfff17 	ldw	r2,-4(fp)
 400172c:	11000f17 	ldw	r4,60(r2)
 4001730:	e0bfff17 	ldw	r2,-4(fp)
 4001734:	11401017 	ldw	r5,64(r2)
 4001738:	4004e800 	call	4004e80 <__udivsi3>
 400173c:	e0bffc15 	stw	r2,-16(fp)
            sNios->sMotor.sMotorAp.uiMotorFBSpeedAcc =0; sNios->sMotor.sMotorAp.uiMotorFBSpeedAccCnt=0;
 4001740:	e0bfff17 	ldw	r2,-4(fp)
 4001744:	10000f15 	stw	zero,60(r2)
 4001748:	e0bfff17 	ldw	r2,-4(fp)
 400174c:	10001015 	stw	zero,64(r2)
        }
        sNios->sUart0.ucTxBuf[idx] = uiTmp>>8 | 0x80; idx++;   /* [26] motor A feedback speed(MsB Byte),+dval*/
 4001750:	e13ffd17 	ldw	r4,-12(fp)
 4001754:	e0bffc17 	ldw	r2,-16(fp)
 4001758:	1004d23a 	srli	r2,r2,8
 400175c:	1007883a 	mov	r3,r2
 4001760:	00bfe004 	movi	r2,-128
 4001764:	1884b03a 	or	r2,r3,r2
 4001768:	1007883a 	mov	r3,r2
 400176c:	e0bfff17 	ldw	r2,-4(fp)
 4001770:	2085883a 	add	r2,r4,r2
 4001774:	10814b04 	addi	r2,r2,1324
 4001778:	10c00005 	stb	r3,0(r2)
 400177c:	e0bffd17 	ldw	r2,-12(fp)
 4001780:	10800044 	addi	r2,r2,1
 4001784:	e0bffd15 	stw	r2,-12(fp)
        sNios->sUart0.ucTxBuf[idx] = uiTmp & 0xff; idx++;      /* [27] motor A feedback speed(LSB Byte) */
 4001788:	e0fffd17 	ldw	r3,-12(fp)
 400178c:	e0bffc17 	ldw	r2,-16(fp)
 4001790:	1009883a 	mov	r4,r2
 4001794:	e0bfff17 	ldw	r2,-4(fp)
 4001798:	1885883a 	add	r2,r3,r2
 400179c:	10814b04 	addi	r2,r2,1324
 40017a0:	11000005 	stb	r4,0(r2)
 40017a4:	e0bffd17 	ldw	r2,-12(fp)
 40017a8:	10800044 	addi	r2,r2,1
 40017ac:	e0bffd15 	stw	r2,-12(fp)
//        LOGD("Spd= %2x,%2x.\n", sNios->sUart0.ucTxBuf[26], sNios->sUart0.ucTxBuf[27]);
        if(sNios->sMotor.sMotorBp.uiMotorFBSpeedAccCnt ==0){
 40017b0:	e0bfff17 	ldw	r2,-4(fp)
 40017b4:	10801f17 	ldw	r2,124(r2)
 40017b8:	1004c03a 	cmpne	r2,r2,zero
 40017bc:	1000021e 	bne	r2,zero,40017c8 <PackUartDataToHost+0x65c>
//            LOGD("Error Spd.\n");
            uiTmp = 0;
 40017c0:	e03ffc15 	stw	zero,-16(fp)
 40017c4:	00000a06 	br	40017f0 <PackUartDataToHost+0x684>
        }else{
            uiTmp = sNios->sMotor.sMotorBp.uiMotorFBSpeedAcc / sNios->sMotor.sMotorBp.uiMotorFBSpeedAccCnt;
 40017c8:	e0bfff17 	ldw	r2,-4(fp)
 40017cc:	11001e17 	ldw	r4,120(r2)
 40017d0:	e0bfff17 	ldw	r2,-4(fp)
 40017d4:	11401f17 	ldw	r5,124(r2)
 40017d8:	4004e800 	call	4004e80 <__udivsi3>
 40017dc:	e0bffc15 	stw	r2,-16(fp)
            sNios->sMotor.sMotorBp.uiMotorFBSpeedAcc =0; sNios->sMotor.sMotorBp.uiMotorFBSpeedAccCnt=0;
 40017e0:	e0bfff17 	ldw	r2,-4(fp)
 40017e4:	10001e15 	stw	zero,120(r2)
 40017e8:	e0bfff17 	ldw	r2,-4(fp)
 40017ec:	10001f15 	stw	zero,124(r2)
        }
        sNios->sUart0.ucTxBuf[idx] = uiTmp>>8 | 0x80; idx++;   /* [28] motor B feedback speed(MSB Byte),+dval */
 40017f0:	e13ffd17 	ldw	r4,-12(fp)
 40017f4:	e0bffc17 	ldw	r2,-16(fp)
 40017f8:	1004d23a 	srli	r2,r2,8
 40017fc:	1007883a 	mov	r3,r2
 4001800:	00bfe004 	movi	r2,-128
 4001804:	1884b03a 	or	r2,r3,r2
 4001808:	1007883a 	mov	r3,r2
 400180c:	e0bfff17 	ldw	r2,-4(fp)
 4001810:	2085883a 	add	r2,r4,r2
 4001814:	10814b04 	addi	r2,r2,1324
 4001818:	10c00005 	stb	r3,0(r2)
 400181c:	e0bffd17 	ldw	r2,-12(fp)
 4001820:	10800044 	addi	r2,r2,1
 4001824:	e0bffd15 	stw	r2,-12(fp)
        sNios->sUart0.ucTxBuf[idx] = uiTmp & 0xff; idx++;      /* [29] motor B feedback speed(LSB Byte) */
 4001828:	e0fffd17 	ldw	r3,-12(fp)
 400182c:	e0bffc17 	ldw	r2,-16(fp)
 4001830:	1009883a 	mov	r4,r2
 4001834:	e0bfff17 	ldw	r2,-4(fp)
 4001838:	1885883a 	add	r2,r3,r2
 400183c:	10814b04 	addi	r2,r2,1324
 4001840:	11000005 	stb	r4,0(r2)
 4001844:	e0bffd17 	ldw	r2,-12(fp)
 4001848:	10800044 	addi	r2,r2,1
 400184c:	e0bffd15 	stw	r2,-12(fp)
        if(sNios->sMotor.sMotorCp.uiMotorFBSpeedAccCnt ==0){
 4001850:	e0bfff17 	ldw	r2,-4(fp)
 4001854:	10802e17 	ldw	r2,184(r2)
 4001858:	1004c03a 	cmpne	r2,r2,zero
 400185c:	1000021e 	bne	r2,zero,4001868 <PackUartDataToHost+0x6fc>
//            LOGD("Error Spd.\n");
            uiTmp = 0;
 4001860:	e03ffc15 	stw	zero,-16(fp)
 4001864:	00000a06 	br	4001890 <PackUartDataToHost+0x724>
        }else{
            uiTmp = sNios->sMotor.sMotorCp.uiMotorFBSpeedAcc / sNios->sMotor.sMotorCp.uiMotorFBSpeedAccCnt;
 4001868:	e0bfff17 	ldw	r2,-4(fp)
 400186c:	11002d17 	ldw	r4,180(r2)
 4001870:	e0bfff17 	ldw	r2,-4(fp)
 4001874:	11402e17 	ldw	r5,184(r2)
 4001878:	4004e800 	call	4004e80 <__udivsi3>
 400187c:	e0bffc15 	stw	r2,-16(fp)
            sNios->sMotor.sMotorCp.uiMotorFBSpeedAcc =0; sNios->sMotor.sMotorCp.uiMotorFBSpeedAccCnt=0;
 4001880:	e0bfff17 	ldw	r2,-4(fp)
 4001884:	10002d15 	stw	zero,180(r2)
 4001888:	e0bfff17 	ldw	r2,-4(fp)
 400188c:	10002e15 	stw	zero,184(r2)
        }
        sNios->sUart0.ucTxBuf[idx] = uiTmp>>8 | 0x80; idx++;   /* [30] motor C feedback speed(MSB Byte),+dval*/
 4001890:	e13ffd17 	ldw	r4,-12(fp)
 4001894:	e0bffc17 	ldw	r2,-16(fp)
 4001898:	1004d23a 	srli	r2,r2,8
 400189c:	1007883a 	mov	r3,r2
 40018a0:	00bfe004 	movi	r2,-128
 40018a4:	1884b03a 	or	r2,r3,r2
 40018a8:	1007883a 	mov	r3,r2
 40018ac:	e0bfff17 	ldw	r2,-4(fp)
 40018b0:	2085883a 	add	r2,r4,r2
 40018b4:	10814b04 	addi	r2,r2,1324
 40018b8:	10c00005 	stb	r3,0(r2)
 40018bc:	e0bffd17 	ldw	r2,-12(fp)
 40018c0:	10800044 	addi	r2,r2,1
 40018c4:	e0bffd15 	stw	r2,-12(fp)
        sNios->sUart0.ucTxBuf[idx] = uiTmp & 0xff; idx++;      /* [31] motor C feedback speed(LSB Byte) */
 40018c8:	e0fffd17 	ldw	r3,-12(fp)
 40018cc:	e0bffc17 	ldw	r2,-16(fp)
 40018d0:	1009883a 	mov	r4,r2
 40018d4:	e0bfff17 	ldw	r2,-4(fp)
 40018d8:	1885883a 	add	r2,r3,r2
 40018dc:	10814b04 	addi	r2,r2,1324
 40018e0:	11000005 	stb	r4,0(r2)
 40018e4:	e0bffd17 	ldw	r2,-12(fp)
 40018e8:	10800044 	addi	r2,r2,1
 40018ec:	e0bffd15 	stw	r2,-12(fp)
        if(sNios->sMotor.sMotorDp.uiMotorFBSpeedAccCnt ==0){
 40018f0:	e0bfff17 	ldw	r2,-4(fp)
 40018f4:	10803d17 	ldw	r2,244(r2)
 40018f8:	1004c03a 	cmpne	r2,r2,zero
 40018fc:	1000021e 	bne	r2,zero,4001908 <PackUartDataToHost+0x79c>
//            LOGD("Error Spd.\n");
            uiTmp = 0;
 4001900:	e03ffc15 	stw	zero,-16(fp)
 4001904:	00000a06 	br	4001930 <PackUartDataToHost+0x7c4>
        }else{
            uiTmp = sNios->sMotor.sMotorDp.uiMotorFBSpeedAcc / sNios->sMotor.sMotorDp.uiMotorFBSpeedAccCnt;
 4001908:	e0bfff17 	ldw	r2,-4(fp)
 400190c:	11003c17 	ldw	r4,240(r2)
 4001910:	e0bfff17 	ldw	r2,-4(fp)
 4001914:	11403d17 	ldw	r5,244(r2)
 4001918:	4004e800 	call	4004e80 <__udivsi3>
 400191c:	e0bffc15 	stw	r2,-16(fp)
            sNios->sMotor.sMotorDp.uiMotorFBSpeedAcc =0; sNios->sMotor.sMotorDp.uiMotorFBSpeedAccCnt=0;
 4001920:	e0bfff17 	ldw	r2,-4(fp)
 4001924:	10003c15 	stw	zero,240(r2)
 4001928:	e0bfff17 	ldw	r2,-4(fp)
 400192c:	10003d15 	stw	zero,244(r2)
        }
        sNios->sUart0.ucTxBuf[idx] = uiTmp>>8 | 0x80; idx++;   /* [32] motor D feedback speed(MSB Byte), +dval */
 4001930:	e13ffd17 	ldw	r4,-12(fp)
 4001934:	e0bffc17 	ldw	r2,-16(fp)
 4001938:	1004d23a 	srli	r2,r2,8
 400193c:	1007883a 	mov	r3,r2
 4001940:	00bfe004 	movi	r2,-128
 4001944:	1884b03a 	or	r2,r3,r2
 4001948:	1007883a 	mov	r3,r2
 400194c:	e0bfff17 	ldw	r2,-4(fp)
 4001950:	2085883a 	add	r2,r4,r2
 4001954:	10814b04 	addi	r2,r2,1324
 4001958:	10c00005 	stb	r3,0(r2)
 400195c:	e0bffd17 	ldw	r2,-12(fp)
 4001960:	10800044 	addi	r2,r2,1
 4001964:	e0bffd15 	stw	r2,-12(fp)
        sNios->sUart0.ucTxBuf[idx] = uiTmp & 0xff; idx++;      /* [33] motor D feedback speed(LSB Byte) */
 4001968:	e0fffd17 	ldw	r3,-12(fp)
 400196c:	e0bffc17 	ldw	r2,-16(fp)
 4001970:	1009883a 	mov	r4,r2
 4001974:	e0bfff17 	ldw	r2,-4(fp)
 4001978:	1885883a 	add	r2,r3,r2
 400197c:	10814b04 	addi	r2,r2,1324
 4001980:	11000005 	stb	r4,0(r2)
 4001984:	e0bffd17 	ldw	r2,-12(fp)
 4001988:	10800044 	addi	r2,r2,1
 400198c:	e0bffd15 	stw	r2,-12(fp)
        if(sNios->sMotor.sMotorAp.uiMotorFBVoltageAccCnt ==0){
 4001990:	e0bfff17 	ldw	r2,-4(fp)
 4001994:	10801217 	ldw	r2,72(r2)
 4001998:	1004c03a 	cmpne	r2,r2,zero
 400199c:	1000021e 	bne	r2,zero,40019a8 <PackUartDataToHost+0x83c>
//            LOGD("Error Voltage A.\n");
            uiTmp = 0;
 40019a0:	e03ffc15 	stw	zero,-16(fp)
 40019a4:	00000a06 	br	40019d0 <PackUartDataToHost+0x864>
        }else{
            uiTmp = sNios->sMotor.sMotorAp.uiMotorFBVoltageAcc / sNios->sMotor.sMotorAp.uiMotorFBVoltageAccCnt;
 40019a8:	e0bfff17 	ldw	r2,-4(fp)
 40019ac:	11001117 	ldw	r4,68(r2)
 40019b0:	e0bfff17 	ldw	r2,-4(fp)
 40019b4:	11401217 	ldw	r5,72(r2)
 40019b8:	4004e800 	call	4004e80 <__udivsi3>
 40019bc:	e0bffc15 	stw	r2,-16(fp)
            sNios->sMotor.sMotorAp.uiMotorFBVoltageAcc =0; sNios->sMotor.sMotorAp.uiMotorFBVoltageAccCnt=0;
 40019c0:	e0bfff17 	ldw	r2,-4(fp)
 40019c4:	10001115 	stw	zero,68(r2)
 40019c8:	e0bfff17 	ldw	r2,-4(fp)
 40019cc:	10001215 	stw	zero,72(r2)
        }

        sNios->sUart0.ucTxBuf[idx] = uiTmp>>8 & 0xff; idx++;        /* [34] motor A feedback Voltage(MsB Byte)*/
 40019d0:	e0fffd17 	ldw	r3,-12(fp)
 40019d4:	e0bffc17 	ldw	r2,-16(fp)
 40019d8:	1004d23a 	srli	r2,r2,8
 40019dc:	1009883a 	mov	r4,r2
 40019e0:	e0bfff17 	ldw	r2,-4(fp)
 40019e4:	1885883a 	add	r2,r3,r2
 40019e8:	10814b04 	addi	r2,r2,1324
 40019ec:	11000005 	stb	r4,0(r2)
 40019f0:	e0bffd17 	ldw	r2,-12(fp)
 40019f4:	10800044 	addi	r2,r2,1
 40019f8:	e0bffd15 	stw	r2,-12(fp)
        sNios->sUart0.ucTxBuf[idx] = uiTmp & 0xff; idx++;           /* [35] motor A feedback Voltage(LSB Byte) */
 40019fc:	e0fffd17 	ldw	r3,-12(fp)
 4001a00:	e0bffc17 	ldw	r2,-16(fp)
 4001a04:	1009883a 	mov	r4,r2
 4001a08:	e0bfff17 	ldw	r2,-4(fp)
 4001a0c:	1885883a 	add	r2,r3,r2
 4001a10:	10814b04 	addi	r2,r2,1324
 4001a14:	11000005 	stb	r4,0(r2)
 4001a18:	e0bffd17 	ldw	r2,-12(fp)
 4001a1c:	10800044 	addi	r2,r2,1
 4001a20:	e0bffd15 	stw	r2,-12(fp)
//        LOGD(" %2x,%2x(v)",sNios->sUart0.ucTxBuf[34] , sNios->sUart0.ucTxBuf[35] );

        if(sNios->sMotor.sMotorBp.uiMotorFBVoltageAccCnt ==0){
 4001a24:	e0bfff17 	ldw	r2,-4(fp)
 4001a28:	10802117 	ldw	r2,132(r2)
 4001a2c:	1004c03a 	cmpne	r2,r2,zero
 4001a30:	1000021e 	bne	r2,zero,4001a3c <PackUartDataToHost+0x8d0>
//            LOGD("Error Voltage B.\n");
            uiTmp = 0;
 4001a34:	e03ffc15 	stw	zero,-16(fp)
 4001a38:	00000a06 	br	4001a64 <PackUartDataToHost+0x8f8>
        }else{
            uiTmp = sNios->sMotor.sMotorBp.uiMotorFBVoltageAcc / sNios->sMotor.sMotorBp.uiMotorFBVoltageAccCnt;
 4001a3c:	e0bfff17 	ldw	r2,-4(fp)
 4001a40:	11002017 	ldw	r4,128(r2)
 4001a44:	e0bfff17 	ldw	r2,-4(fp)
 4001a48:	11402117 	ldw	r5,132(r2)
 4001a4c:	4004e800 	call	4004e80 <__udivsi3>
 4001a50:	e0bffc15 	stw	r2,-16(fp)
            sNios->sMotor.sMotorBp.uiMotorFBVoltageAcc =0; sNios->sMotor.sMotorBp.uiMotorFBVoltageAccCnt=0;
 4001a54:	e0bfff17 	ldw	r2,-4(fp)
 4001a58:	10002015 	stw	zero,128(r2)
 4001a5c:	e0bfff17 	ldw	r2,-4(fp)
 4001a60:	10002115 	stw	zero,132(r2)
        }
        sNios->sUart0.ucTxBuf[idx] = uiTmp>>8 & 0xff; idx++;        /* [36] motor B feedback Voltage(MSB Byte) */
 4001a64:	e0fffd17 	ldw	r3,-12(fp)
 4001a68:	e0bffc17 	ldw	r2,-16(fp)
 4001a6c:	1004d23a 	srli	r2,r2,8
 4001a70:	1009883a 	mov	r4,r2
 4001a74:	e0bfff17 	ldw	r2,-4(fp)
 4001a78:	1885883a 	add	r2,r3,r2
 4001a7c:	10814b04 	addi	r2,r2,1324
 4001a80:	11000005 	stb	r4,0(r2)
 4001a84:	e0bffd17 	ldw	r2,-12(fp)
 4001a88:	10800044 	addi	r2,r2,1
 4001a8c:	e0bffd15 	stw	r2,-12(fp)
        sNios->sUart0.ucTxBuf[idx] = uiTmp & 0xff; idx++;           /* [37] motor B feedback Voltage(LSB Byte) */
 4001a90:	e0fffd17 	ldw	r3,-12(fp)
 4001a94:	e0bffc17 	ldw	r2,-16(fp)
 4001a98:	1009883a 	mov	r4,r2
 4001a9c:	e0bfff17 	ldw	r2,-4(fp)
 4001aa0:	1885883a 	add	r2,r3,r2
 4001aa4:	10814b04 	addi	r2,r2,1324
 4001aa8:	11000005 	stb	r4,0(r2)
 4001aac:	e0bffd17 	ldw	r2,-12(fp)
 4001ab0:	10800044 	addi	r2,r2,1
 4001ab4:	e0bffd15 	stw	r2,-12(fp)

        if(sNios->sMotor.sMotorCp.uiMotorFBVoltageAccCnt ==0){
 4001ab8:	e0bfff17 	ldw	r2,-4(fp)
 4001abc:	10803017 	ldw	r2,192(r2)
 4001ac0:	1004c03a 	cmpne	r2,r2,zero
 4001ac4:	1000021e 	bne	r2,zero,4001ad0 <PackUartDataToHost+0x964>
//            LOGD("Error Voltage C.\n");
            uiTmp = 0;
 4001ac8:	e03ffc15 	stw	zero,-16(fp)
 4001acc:	00000a06 	br	4001af8 <PackUartDataToHost+0x98c>
        }else{
            uiTmp = sNios->sMotor.sMotorCp.uiMotorFBVoltageAcc / sNios->sMotor.sMotorCp.uiMotorFBVoltageAccCnt;
 4001ad0:	e0bfff17 	ldw	r2,-4(fp)
 4001ad4:	11002f17 	ldw	r4,188(r2)
 4001ad8:	e0bfff17 	ldw	r2,-4(fp)
 4001adc:	11403017 	ldw	r5,192(r2)
 4001ae0:	4004e800 	call	4004e80 <__udivsi3>
 4001ae4:	e0bffc15 	stw	r2,-16(fp)
            sNios->sMotor.sMotorCp.uiMotorFBVoltageAcc =0; sNios->sMotor.sMotorCp.uiMotorFBVoltageAccCnt=0;
 4001ae8:	e0bfff17 	ldw	r2,-4(fp)
 4001aec:	10002f15 	stw	zero,188(r2)
 4001af0:	e0bfff17 	ldw	r2,-4(fp)
 4001af4:	10003015 	stw	zero,192(r2)
        }

        sNios->sUart0.ucTxBuf[idx] = uiTmp>>8 & 0xff; idx++;        /* [38] motor C feedback Voltage(MSB Byte)*/
 4001af8:	e0fffd17 	ldw	r3,-12(fp)
 4001afc:	e0bffc17 	ldw	r2,-16(fp)
 4001b00:	1004d23a 	srli	r2,r2,8
 4001b04:	1009883a 	mov	r4,r2
 4001b08:	e0bfff17 	ldw	r2,-4(fp)
 4001b0c:	1885883a 	add	r2,r3,r2
 4001b10:	10814b04 	addi	r2,r2,1324
 4001b14:	11000005 	stb	r4,0(r2)
 4001b18:	e0bffd17 	ldw	r2,-12(fp)
 4001b1c:	10800044 	addi	r2,r2,1
 4001b20:	e0bffd15 	stw	r2,-12(fp)
        sNios->sUart0.ucTxBuf[idx] = uiTmp & 0xff; idx++;           /* [39] motor C feedback Voltage(LSB Byte) */
 4001b24:	e0fffd17 	ldw	r3,-12(fp)
 4001b28:	e0bffc17 	ldw	r2,-16(fp)
 4001b2c:	1009883a 	mov	r4,r2
 4001b30:	e0bfff17 	ldw	r2,-4(fp)
 4001b34:	1885883a 	add	r2,r3,r2
 4001b38:	10814b04 	addi	r2,r2,1324
 4001b3c:	11000005 	stb	r4,0(r2)
 4001b40:	e0bffd17 	ldw	r2,-12(fp)
 4001b44:	10800044 	addi	r2,r2,1
 4001b48:	e0bffd15 	stw	r2,-12(fp)
        if(sNios->sMotor.sMotorDp.uiMotorFBVoltageAccCnt ==0){
 4001b4c:	e0bfff17 	ldw	r2,-4(fp)
 4001b50:	10803f17 	ldw	r2,252(r2)
 4001b54:	1004c03a 	cmpne	r2,r2,zero
 4001b58:	1000021e 	bne	r2,zero,4001b64 <PackUartDataToHost+0x9f8>
//            LOGD("Error Voltage D.\n");
            uiTmp = 0;
 4001b5c:	e03ffc15 	stw	zero,-16(fp)
 4001b60:	00000a06 	br	4001b8c <PackUartDataToHost+0xa20>
        }else{
            uiTmp = sNios->sMotor.sMotorDp.uiMotorFBVoltageAcc / sNios->sMotor.sMotorDp.uiMotorFBVoltageAccCnt;
 4001b64:	e0bfff17 	ldw	r2,-4(fp)
 4001b68:	11003e17 	ldw	r4,248(r2)
 4001b6c:	e0bfff17 	ldw	r2,-4(fp)
 4001b70:	11403f17 	ldw	r5,252(r2)
 4001b74:	4004e800 	call	4004e80 <__udivsi3>
 4001b78:	e0bffc15 	stw	r2,-16(fp)
            sNios->sMotor.sMotorDp.uiMotorFBVoltageAcc =0; sNios->sMotor.sMotorDp.uiMotorFBVoltageAccCnt=0;
 4001b7c:	e0bfff17 	ldw	r2,-4(fp)
 4001b80:	10003e15 	stw	zero,248(r2)
 4001b84:	e0bfff17 	ldw	r2,-4(fp)
 4001b88:	10003f15 	stw	zero,252(r2)
        }
        sNios->sUart0.ucTxBuf[idx] = uiTmp>>8 & 0xff; idx++;        /* [40] motor D feedback Voltage(MSB Byte) */
 4001b8c:	e0fffd17 	ldw	r3,-12(fp)
 4001b90:	e0bffc17 	ldw	r2,-16(fp)
 4001b94:	1004d23a 	srli	r2,r2,8
 4001b98:	1009883a 	mov	r4,r2
 4001b9c:	e0bfff17 	ldw	r2,-4(fp)
 4001ba0:	1885883a 	add	r2,r3,r2
 4001ba4:	10814b04 	addi	r2,r2,1324
 4001ba8:	11000005 	stb	r4,0(r2)
 4001bac:	e0bffd17 	ldw	r2,-12(fp)
 4001bb0:	10800044 	addi	r2,r2,1
 4001bb4:	e0bffd15 	stw	r2,-12(fp)
        sNios->sUart0.ucTxBuf[idx] = uiTmp & 0xff; idx++;           /* [41] motor D feedback Voltage(LSB Byte) */
 4001bb8:	e0fffd17 	ldw	r3,-12(fp)
 4001bbc:	e0bffc17 	ldw	r2,-16(fp)
 4001bc0:	1009883a 	mov	r4,r2
 4001bc4:	e0bfff17 	ldw	r2,-4(fp)
 4001bc8:	1885883a 	add	r2,r3,r2
 4001bcc:	10814b04 	addi	r2,r2,1324
 4001bd0:	11000005 	stb	r4,0(r2)
 4001bd4:	e0bffd17 	ldw	r2,-12(fp)
 4001bd8:	10800044 	addi	r2,r2,1
 4001bdc:	e0bffd15 	stw	r2,-12(fp)
        if(sNios->sMotor.sMotorAp.uiMotorFBCurrentAccCnt ==0){
 4001be0:	e0bfff17 	ldw	r2,-4(fp)
 4001be4:	10801417 	ldw	r2,80(r2)
 4001be8:	1004c03a 	cmpne	r2,r2,zero
 4001bec:	1000021e 	bne	r2,zero,4001bf8 <PackUartDataToHost+0xa8c>
//            LOGD("Error Current A.\n");
            uiTmp = 0;
 4001bf0:	e03ffc15 	stw	zero,-16(fp)
 4001bf4:	00000a06 	br	4001c20 <PackUartDataToHost+0xab4>
        }else{
            uiTmp = sNios->sMotor.sMotorAp.uiMotorFBCurrentAcc / sNios->sMotor.sMotorAp.uiMotorFBCurrentAccCnt;
 4001bf8:	e0bfff17 	ldw	r2,-4(fp)
 4001bfc:	11001317 	ldw	r4,76(r2)
 4001c00:	e0bfff17 	ldw	r2,-4(fp)
 4001c04:	11401417 	ldw	r5,80(r2)
 4001c08:	4004e800 	call	4004e80 <__udivsi3>
 4001c0c:	e0bffc15 	stw	r2,-16(fp)
            sNios->sMotor.sMotorAp.uiMotorFBCurrentAcc =0; sNios->sMotor.sMotorAp.uiMotorFBCurrentAccCnt=0;
 4001c10:	e0bfff17 	ldw	r2,-4(fp)
 4001c14:	10001315 	stw	zero,76(r2)
 4001c18:	e0bfff17 	ldw	r2,-4(fp)
 4001c1c:	10001415 	stw	zero,80(r2)
        }

        sNios->sUart0.ucTxBuf[idx] = uiTmp>>8 & 0xff; idx++;        /* [42] motor A feedback Current(MsB Byte)*/
 4001c20:	e0fffd17 	ldw	r3,-12(fp)
 4001c24:	e0bffc17 	ldw	r2,-16(fp)
 4001c28:	1004d23a 	srli	r2,r2,8
 4001c2c:	1009883a 	mov	r4,r2
 4001c30:	e0bfff17 	ldw	r2,-4(fp)
 4001c34:	1885883a 	add	r2,r3,r2
 4001c38:	10814b04 	addi	r2,r2,1324
 4001c3c:	11000005 	stb	r4,0(r2)
 4001c40:	e0bffd17 	ldw	r2,-12(fp)
 4001c44:	10800044 	addi	r2,r2,1
 4001c48:	e0bffd15 	stw	r2,-12(fp)
        sNios->sUart0.ucTxBuf[idx] = uiTmp & 0xff; idx++;           /* [43] motor A feedback Current(LSB Byte) */
 4001c4c:	e0fffd17 	ldw	r3,-12(fp)
 4001c50:	e0bffc17 	ldw	r2,-16(fp)
 4001c54:	1009883a 	mov	r4,r2
 4001c58:	e0bfff17 	ldw	r2,-4(fp)
 4001c5c:	1885883a 	add	r2,r3,r2
 4001c60:	10814b04 	addi	r2,r2,1324
 4001c64:	11000005 	stb	r4,0(r2)
 4001c68:	e0bffd17 	ldw	r2,-12(fp)
 4001c6c:	10800044 	addi	r2,r2,1
 4001c70:	e0bffd15 	stw	r2,-12(fp)
//        LOGD("%2x,%2x(I)\n",sNios->sUart0.ucTxBuf[42] , sNios->sUart0.ucTxBuf[43] );
        if(sNios->sMotor.sMotorBp.uiMotorFBCurrentAccCnt ==0){
 4001c74:	e0bfff17 	ldw	r2,-4(fp)
 4001c78:	10802317 	ldw	r2,140(r2)
 4001c7c:	1004c03a 	cmpne	r2,r2,zero
 4001c80:	1000021e 	bne	r2,zero,4001c8c <PackUartDataToHost+0xb20>
//            LOGD("Error Current B.\n");
            uiTmp = 0;
 4001c84:	e03ffc15 	stw	zero,-16(fp)
 4001c88:	00000a06 	br	4001cb4 <PackUartDataToHost+0xb48>
        }else{
            uiTmp = sNios->sMotor.sMotorBp.uiMotorFBCurrentAcc / sNios->sMotor.sMotorBp.uiMotorFBCurrentAccCnt;
 4001c8c:	e0bfff17 	ldw	r2,-4(fp)
 4001c90:	11002217 	ldw	r4,136(r2)
 4001c94:	e0bfff17 	ldw	r2,-4(fp)
 4001c98:	11402317 	ldw	r5,140(r2)
 4001c9c:	4004e800 	call	4004e80 <__udivsi3>
 4001ca0:	e0bffc15 	stw	r2,-16(fp)
            sNios->sMotor.sMotorBp.uiMotorFBCurrentAcc =0; sNios->sMotor.sMotorBp.uiMotorFBCurrentAccCnt=0;
 4001ca4:	e0bfff17 	ldw	r2,-4(fp)
 4001ca8:	10002215 	stw	zero,136(r2)
 4001cac:	e0bfff17 	ldw	r2,-4(fp)
 4001cb0:	10002315 	stw	zero,140(r2)
        }

        sNios->sUart0.ucTxBuf[idx] = uiTmp>>8 & 0xff; idx++;        /* [44] motor B feedback Current(MSB Byte) */
 4001cb4:	e0fffd17 	ldw	r3,-12(fp)
 4001cb8:	e0bffc17 	ldw	r2,-16(fp)
 4001cbc:	1004d23a 	srli	r2,r2,8
 4001cc0:	1009883a 	mov	r4,r2
 4001cc4:	e0bfff17 	ldw	r2,-4(fp)
 4001cc8:	1885883a 	add	r2,r3,r2
 4001ccc:	10814b04 	addi	r2,r2,1324
 4001cd0:	11000005 	stb	r4,0(r2)
 4001cd4:	e0bffd17 	ldw	r2,-12(fp)
 4001cd8:	10800044 	addi	r2,r2,1
 4001cdc:	e0bffd15 	stw	r2,-12(fp)
        sNios->sUart0.ucTxBuf[idx] = uiTmp & 0xff; idx++;           /* [45] motor B feedback Current(LSB Byte) */
 4001ce0:	e0fffd17 	ldw	r3,-12(fp)
 4001ce4:	e0bffc17 	ldw	r2,-16(fp)
 4001ce8:	1009883a 	mov	r4,r2
 4001cec:	e0bfff17 	ldw	r2,-4(fp)
 4001cf0:	1885883a 	add	r2,r3,r2
 4001cf4:	10814b04 	addi	r2,r2,1324
 4001cf8:	11000005 	stb	r4,0(r2)
 4001cfc:	e0bffd17 	ldw	r2,-12(fp)
 4001d00:	10800044 	addi	r2,r2,1
 4001d04:	e0bffd15 	stw	r2,-12(fp)
        if(sNios->sMotor.sMotorCp.uiMotorFBCurrentAccCnt ==0){
 4001d08:	e0bfff17 	ldw	r2,-4(fp)
 4001d0c:	10803217 	ldw	r2,200(r2)
 4001d10:	1004c03a 	cmpne	r2,r2,zero
 4001d14:	1000021e 	bne	r2,zero,4001d20 <PackUartDataToHost+0xbb4>
//            LOGD("Error Current C.\n");
            uiTmp = 0;
 4001d18:	e03ffc15 	stw	zero,-16(fp)
 4001d1c:	00000a06 	br	4001d48 <PackUartDataToHost+0xbdc>
        }else{
            uiTmp = sNios->sMotor.sMotorCp.uiMotorFBCurrentAcc / sNios->sMotor.sMotorCp.uiMotorFBCurrentAccCnt;
 4001d20:	e0bfff17 	ldw	r2,-4(fp)
 4001d24:	11003117 	ldw	r4,196(r2)
 4001d28:	e0bfff17 	ldw	r2,-4(fp)
 4001d2c:	11403217 	ldw	r5,200(r2)
 4001d30:	4004e800 	call	4004e80 <__udivsi3>
 4001d34:	e0bffc15 	stw	r2,-16(fp)
            sNios->sMotor.sMotorCp.uiMotorFBCurrentAcc =0; sNios->sMotor.sMotorCp.uiMotorFBCurrentAccCnt=0;
 4001d38:	e0bfff17 	ldw	r2,-4(fp)
 4001d3c:	10003115 	stw	zero,196(r2)
 4001d40:	e0bfff17 	ldw	r2,-4(fp)
 4001d44:	10003215 	stw	zero,200(r2)
        }

        sNios->sUart0.ucTxBuf[idx] = uiTmp >>8 & 0xff; idx++;        /* [46] motor C feedback Current(MSB Byte)*/
 4001d48:	e0fffd17 	ldw	r3,-12(fp)
 4001d4c:	e0bffc17 	ldw	r2,-16(fp)
 4001d50:	1004d23a 	srli	r2,r2,8
 4001d54:	1009883a 	mov	r4,r2
 4001d58:	e0bfff17 	ldw	r2,-4(fp)
 4001d5c:	1885883a 	add	r2,r3,r2
 4001d60:	10814b04 	addi	r2,r2,1324
 4001d64:	11000005 	stb	r4,0(r2)
 4001d68:	e0bffd17 	ldw	r2,-12(fp)
 4001d6c:	10800044 	addi	r2,r2,1
 4001d70:	e0bffd15 	stw	r2,-12(fp)
        sNios->sUart0.ucTxBuf[idx] = uiTmp & 0xff; idx++;           /* [47] motor C feedback Current(LSB Byte) */
 4001d74:	e0fffd17 	ldw	r3,-12(fp)
 4001d78:	e0bffc17 	ldw	r2,-16(fp)
 4001d7c:	1009883a 	mov	r4,r2
 4001d80:	e0bfff17 	ldw	r2,-4(fp)
 4001d84:	1885883a 	add	r2,r3,r2
 4001d88:	10814b04 	addi	r2,r2,1324
 4001d8c:	11000005 	stb	r4,0(r2)
 4001d90:	e0bffd17 	ldw	r2,-12(fp)
 4001d94:	10800044 	addi	r2,r2,1
 4001d98:	e0bffd15 	stw	r2,-12(fp)

        if(sNios->sMotor.sMotorDp.uiMotorFBCurrentAccCnt ==0){
 4001d9c:	e0bfff17 	ldw	r2,-4(fp)
 4001da0:	10804117 	ldw	r2,260(r2)
 4001da4:	1004c03a 	cmpne	r2,r2,zero
 4001da8:	1000021e 	bne	r2,zero,4001db4 <PackUartDataToHost+0xc48>
//            LOGD("Error Current D.\n");
        uiTmp = 0;
 4001dac:	e03ffc15 	stw	zero,-16(fp)
 4001db0:	00000a06 	br	4001ddc <PackUartDataToHost+0xc70>
        }else{
            uiTmp = sNios->sMotor.sMotorDp.uiMotorFBCurrentAcc / sNios->sMotor.sMotorDp.uiMotorFBCurrentAccCnt;
 4001db4:	e0bfff17 	ldw	r2,-4(fp)
 4001db8:	11004017 	ldw	r4,256(r2)
 4001dbc:	e0bfff17 	ldw	r2,-4(fp)
 4001dc0:	11404117 	ldw	r5,260(r2)
 4001dc4:	4004e800 	call	4004e80 <__udivsi3>
 4001dc8:	e0bffc15 	stw	r2,-16(fp)
            sNios->sMotor.sMotorDp.uiMotorFBCurrentAcc =0; sNios->sMotor.sMotorDp.uiMotorFBCurrentAccCnt=0;
 4001dcc:	e0bfff17 	ldw	r2,-4(fp)
 4001dd0:	10004015 	stw	zero,256(r2)
 4001dd4:	e0bfff17 	ldw	r2,-4(fp)
 4001dd8:	10004115 	stw	zero,260(r2)
        }

        sNios->sUart0.ucTxBuf[idx] = uiTmp>>8 & 0xff; idx++;        /* [48] motor D feedback Current(MSB Byte) */
 4001ddc:	e0fffd17 	ldw	r3,-12(fp)
 4001de0:	e0bffc17 	ldw	r2,-16(fp)
 4001de4:	1004d23a 	srli	r2,r2,8
 4001de8:	1009883a 	mov	r4,r2
 4001dec:	e0bfff17 	ldw	r2,-4(fp)
 4001df0:	1885883a 	add	r2,r3,r2
 4001df4:	10814b04 	addi	r2,r2,1324
 4001df8:	11000005 	stb	r4,0(r2)
 4001dfc:	e0bffd17 	ldw	r2,-12(fp)
 4001e00:	10800044 	addi	r2,r2,1
 4001e04:	e0bffd15 	stw	r2,-12(fp)
        sNios->sUart0.ucTxBuf[idx] = uiTmp & 0xff; idx++;           /* [49] motor D feedback Current(LSB Byte) */
 4001e08:	e0fffd17 	ldw	r3,-12(fp)
 4001e0c:	e0bffc17 	ldw	r2,-16(fp)
 4001e10:	1009883a 	mov	r4,r2
 4001e14:	e0bfff17 	ldw	r2,-4(fp)
 4001e18:	1885883a 	add	r2,r3,r2
 4001e1c:	10814b04 	addi	r2,r2,1324
 4001e20:	11000005 	stb	r4,0(r2)
 4001e24:	e0bffd17 	ldw	r2,-12(fp)
 4001e28:	10800044 	addi	r2,r2,1
 4001e2c:	e0bffd15 	stw	r2,-12(fp)

        sNios->sUart0.ucTxBuf[idx] = sNios->sIMU.uiRawAcce>>24 & 0xff; idx++;                  /* [50] IMU Accelerometer (4th Byte)*/
 4001e30:	e13ffd17 	ldw	r4,-12(fp)
 4001e34:	e0bfff17 	ldw	r2,-4(fp)
 4001e38:	10824e17 	ldw	r2,2360(r2)
 4001e3c:	1004d63a 	srli	r2,r2,24
 4001e40:	1007883a 	mov	r3,r2
 4001e44:	e0bfff17 	ldw	r2,-4(fp)
 4001e48:	2085883a 	add	r2,r4,r2
 4001e4c:	10814b04 	addi	r2,r2,1324
 4001e50:	10c00005 	stb	r3,0(r2)
 4001e54:	e0bffd17 	ldw	r2,-12(fp)
 4001e58:	10800044 	addi	r2,r2,1
 4001e5c:	e0bffd15 	stw	r2,-12(fp)
        sNios->sUart0.ucTxBuf[idx] = sNios->sIMU.uiRawAcce>>16 & 0xff; idx++;                  /* [51] IMU Accelerometer (3th Byte)*/
 4001e60:	e13ffd17 	ldw	r4,-12(fp)
 4001e64:	e0bfff17 	ldw	r2,-4(fp)
 4001e68:	10824e17 	ldw	r2,2360(r2)
 4001e6c:	1004d43a 	srli	r2,r2,16
 4001e70:	1007883a 	mov	r3,r2
 4001e74:	e0bfff17 	ldw	r2,-4(fp)
 4001e78:	2085883a 	add	r2,r4,r2
 4001e7c:	10814b04 	addi	r2,r2,1324
 4001e80:	10c00005 	stb	r3,0(r2)
 4001e84:	e0bffd17 	ldw	r2,-12(fp)
 4001e88:	10800044 	addi	r2,r2,1
 4001e8c:	e0bffd15 	stw	r2,-12(fp)
        sNios->sUart0.ucTxBuf[idx] = sNios->sIMU.uiRawAcce>>8 & 0xff; idx++;                   /* [52] IMU Accelerometer (2th Byte)*/
 4001e90:	e13ffd17 	ldw	r4,-12(fp)
 4001e94:	e0bfff17 	ldw	r2,-4(fp)
 4001e98:	10824e17 	ldw	r2,2360(r2)
 4001e9c:	1004d23a 	srli	r2,r2,8
 4001ea0:	1007883a 	mov	r3,r2
 4001ea4:	e0bfff17 	ldw	r2,-4(fp)
 4001ea8:	2085883a 	add	r2,r4,r2
 4001eac:	10814b04 	addi	r2,r2,1324
 4001eb0:	10c00005 	stb	r3,0(r2)
 4001eb4:	e0bffd17 	ldw	r2,-12(fp)
 4001eb8:	10800044 	addi	r2,r2,1
 4001ebc:	e0bffd15 	stw	r2,-12(fp)
        sNios->sUart0.ucTxBuf[idx] = sNios->sIMU.uiRawAcce & 0xff; idx++;                      /* [53] IMU Accelerometer (1th Byte)*/
 4001ec0:	e0fffd17 	ldw	r3,-12(fp)
 4001ec4:	e0bfff17 	ldw	r2,-4(fp)
 4001ec8:	10824e17 	ldw	r2,2360(r2)
 4001ecc:	1009883a 	mov	r4,r2
 4001ed0:	e0bfff17 	ldw	r2,-4(fp)
 4001ed4:	1885883a 	add	r2,r3,r2
 4001ed8:	10814b04 	addi	r2,r2,1324
 4001edc:	11000005 	stb	r4,0(r2)
 4001ee0:	e0bffd17 	ldw	r2,-12(fp)
 4001ee4:	10800044 	addi	r2,r2,1
 4001ee8:	e0bffd15 	stw	r2,-12(fp)
        sNios->sUart0.ucTxBuf[idx] = sNios->sIMU.uiRawGyro>>24 & 0xff; idx++;                  /* [54] IMU Gyroscope (4th Byte)*/
 4001eec:	e13ffd17 	ldw	r4,-12(fp)
 4001ef0:	e0bfff17 	ldw	r2,-4(fp)
 4001ef4:	10825217 	ldw	r2,2376(r2)
 4001ef8:	1004d63a 	srli	r2,r2,24
 4001efc:	1007883a 	mov	r3,r2
 4001f00:	e0bfff17 	ldw	r2,-4(fp)
 4001f04:	2085883a 	add	r2,r4,r2
 4001f08:	10814b04 	addi	r2,r2,1324
 4001f0c:	10c00005 	stb	r3,0(r2)
 4001f10:	e0bffd17 	ldw	r2,-12(fp)
 4001f14:	10800044 	addi	r2,r2,1
 4001f18:	e0bffd15 	stw	r2,-12(fp)
        sNios->sUart0.ucTxBuf[idx] = sNios->sIMU.uiRawGyro>>16 & 0xff; idx++;                  /* [55] IMU Gyroscope (3th Byte)*/
 4001f1c:	e13ffd17 	ldw	r4,-12(fp)
 4001f20:	e0bfff17 	ldw	r2,-4(fp)
 4001f24:	10825217 	ldw	r2,2376(r2)
 4001f28:	1004d43a 	srli	r2,r2,16
 4001f2c:	1007883a 	mov	r3,r2
 4001f30:	e0bfff17 	ldw	r2,-4(fp)
 4001f34:	2085883a 	add	r2,r4,r2
 4001f38:	10814b04 	addi	r2,r2,1324
 4001f3c:	10c00005 	stb	r3,0(r2)
 4001f40:	e0bffd17 	ldw	r2,-12(fp)
 4001f44:	10800044 	addi	r2,r2,1
 4001f48:	e0bffd15 	stw	r2,-12(fp)
        sNios->sUart0.ucTxBuf[idx] = sNios->sIMU.uiRawGyro>>8 & 0xff; idx++;                   /* [56] IMU Gyroscope (2th Byte)*/
 4001f4c:	e13ffd17 	ldw	r4,-12(fp)
 4001f50:	e0bfff17 	ldw	r2,-4(fp)
 4001f54:	10825217 	ldw	r2,2376(r2)
 4001f58:	1004d23a 	srli	r2,r2,8
 4001f5c:	1007883a 	mov	r3,r2
 4001f60:	e0bfff17 	ldw	r2,-4(fp)
 4001f64:	2085883a 	add	r2,r4,r2
 4001f68:	10814b04 	addi	r2,r2,1324
 4001f6c:	10c00005 	stb	r3,0(r2)
 4001f70:	e0bffd17 	ldw	r2,-12(fp)
 4001f74:	10800044 	addi	r2,r2,1
 4001f78:	e0bffd15 	stw	r2,-12(fp)
        sNios->sUart0.ucTxBuf[idx] = sNios->sIMU.uiRawGyro & 0xff; idx++;                      /* [57] IMU Gyroscope (1th Byte)*/
 4001f7c:	e0fffd17 	ldw	r3,-12(fp)
 4001f80:	e0bfff17 	ldw	r2,-4(fp)
 4001f84:	10825217 	ldw	r2,2376(r2)
 4001f88:	1009883a 	mov	r4,r2
 4001f8c:	e0bfff17 	ldw	r2,-4(fp)
 4001f90:	1885883a 	add	r2,r3,r2
 4001f94:	10814b04 	addi	r2,r2,1324
 4001f98:	11000005 	stb	r4,0(r2)
 4001f9c:	e0bffd17 	ldw	r2,-12(fp)
 4001fa0:	10800044 	addi	r2,r2,1
 4001fa4:	e0bffd15 	stw	r2,-12(fp)
        sNios->sUart0.ucTxBuf[idx] = sNios->sIMU.uiRawMagn>>24 & 0xff; idx++;                  /* [58] IMU Magneticmeter (4th Byte)*/
 4001fa8:	e13ffd17 	ldw	r4,-12(fp)
 4001fac:	e0bfff17 	ldw	r2,-4(fp)
 4001fb0:	10825617 	ldw	r2,2392(r2)
 4001fb4:	1004d63a 	srli	r2,r2,24
 4001fb8:	1007883a 	mov	r3,r2
 4001fbc:	e0bfff17 	ldw	r2,-4(fp)
 4001fc0:	2085883a 	add	r2,r4,r2
 4001fc4:	10814b04 	addi	r2,r2,1324
 4001fc8:	10c00005 	stb	r3,0(r2)
 4001fcc:	e0bffd17 	ldw	r2,-12(fp)
 4001fd0:	10800044 	addi	r2,r2,1
 4001fd4:	e0bffd15 	stw	r2,-12(fp)
        sNios->sUart0.ucTxBuf[idx] = sNios->sIMU.uiRawMagn>>16 & 0xff; idx++;                  /* [59] IMU Magneticmeter (3th Byte)*/
 4001fd8:	e13ffd17 	ldw	r4,-12(fp)
 4001fdc:	e0bfff17 	ldw	r2,-4(fp)
 4001fe0:	10825617 	ldw	r2,2392(r2)
 4001fe4:	1004d43a 	srli	r2,r2,16
 4001fe8:	1007883a 	mov	r3,r2
 4001fec:	e0bfff17 	ldw	r2,-4(fp)
 4001ff0:	2085883a 	add	r2,r4,r2
 4001ff4:	10814b04 	addi	r2,r2,1324
 4001ff8:	10c00005 	stb	r3,0(r2)
 4001ffc:	e0bffd17 	ldw	r2,-12(fp)
 4002000:	10800044 	addi	r2,r2,1
 4002004:	e0bffd15 	stw	r2,-12(fp)
        sNios->sUart0.ucTxBuf[idx] = sNios->sIMU.uiRawMagn>>8 & 0xff; idx++;                   /* [60] IMU Magneticmeter (2th Byte)*/
 4002008:	e13ffd17 	ldw	r4,-12(fp)
 400200c:	e0bfff17 	ldw	r2,-4(fp)
 4002010:	10825617 	ldw	r2,2392(r2)
 4002014:	1004d23a 	srli	r2,r2,8
 4002018:	1007883a 	mov	r3,r2
 400201c:	e0bfff17 	ldw	r2,-4(fp)
 4002020:	2085883a 	add	r2,r4,r2
 4002024:	10814b04 	addi	r2,r2,1324
 4002028:	10c00005 	stb	r3,0(r2)
 400202c:	e0bffd17 	ldw	r2,-12(fp)
 4002030:	10800044 	addi	r2,r2,1
 4002034:	e0bffd15 	stw	r2,-12(fp)
        sNios->sUart0.ucTxBuf[idx] = sNios->sIMU.uiRawMagn & 0xff; idx++;                      /* [61] IMU Magneticmeter (1th Byte)*/
 4002038:	e0fffd17 	ldw	r3,-12(fp)
 400203c:	e0bfff17 	ldw	r2,-4(fp)
 4002040:	10825617 	ldw	r2,2392(r2)
 4002044:	1009883a 	mov	r4,r2
 4002048:	e0bfff17 	ldw	r2,-4(fp)
 400204c:	1885883a 	add	r2,r3,r2
 4002050:	10814b04 	addi	r2,r2,1324
 4002054:	11000005 	stb	r4,0(r2)
 4002058:	e0bffd17 	ldw	r2,-12(fp)
 400205c:	10800044 	addi	r2,r2,1
 4002060:	e0bffd15 	stw	r2,-12(fp)
        /* generate crc code */
        for(i=1, ucCRC = 0; i < UartPackageLengthToHost-2; i++){
 4002064:	00800044 	movi	r2,1
 4002068:	e0bffe15 	stw	r2,-8(fp)
 400206c:	e03ffb05 	stb	zero,-20(fp)
 4002070:	00000b06 	br	40020a0 <PackUartDataToHost+0xf34>
            ucCRC +=  sNios->sUart0.ucTxBuf[i];
 4002074:	e0fffe17 	ldw	r3,-8(fp)
 4002078:	e0bfff17 	ldw	r2,-4(fp)
 400207c:	1885883a 	add	r2,r3,r2
 4002080:	10814b04 	addi	r2,r2,1324
 4002084:	10c00003 	ldbu	r3,0(r2)
 4002088:	e0bffb03 	ldbu	r2,-20(fp)
 400208c:	10c5883a 	add	r2,r2,r3
 4002090:	e0bffb05 	stb	r2,-20(fp)
        sNios->sUart0.ucTxBuf[idx] = sNios->sIMU.uiRawMagn>>24 & 0xff; idx++;                  /* [58] IMU Magneticmeter (4th Byte)*/
        sNios->sUart0.ucTxBuf[idx] = sNios->sIMU.uiRawMagn>>16 & 0xff; idx++;                  /* [59] IMU Magneticmeter (3th Byte)*/
        sNios->sUart0.ucTxBuf[idx] = sNios->sIMU.uiRawMagn>>8 & 0xff; idx++;                   /* [60] IMU Magneticmeter (2th Byte)*/
        sNios->sUart0.ucTxBuf[idx] = sNios->sIMU.uiRawMagn & 0xff; idx++;                      /* [61] IMU Magneticmeter (1th Byte)*/
        /* generate crc code */
        for(i=1, ucCRC = 0; i < UartPackageLengthToHost-2; i++){
 4002094:	e0bffe17 	ldw	r2,-8(fp)
 4002098:	10800044 	addi	r2,r2,1
 400209c:	e0bffe15 	stw	r2,-8(fp)
 40020a0:	e0bffe17 	ldw	r2,-8(fp)
 40020a4:	10800f90 	cmplti	r2,r2,62
 40020a8:	103ff21e 	bne	r2,zero,4002074 <PackUartDataToHost+0xf08>
            ucCRC +=  sNios->sUart0.ucTxBuf[i];
        }
    //    LOGD("\nTxCRC=0x%x\n", ucCRC&0xff);
        sNios->sUart0.ucTxBuf[idx] = ucCRC; idx++;        /* [62] IMU Magneticmeter (1th Byte)*/
 40020ac:	e0fffd17 	ldw	r3,-12(fp)
 40020b0:	e0bfff17 	ldw	r2,-4(fp)
 40020b4:	1885883a 	add	r2,r3,r2
 40020b8:	10c14b04 	addi	r3,r2,1324
 40020bc:	e0bffb03 	ldbu	r2,-20(fp)
 40020c0:	18800005 	stb	r2,0(r3)
 40020c4:	e0bffd17 	ldw	r2,-12(fp)
 40020c8:	10800044 	addi	r2,r2,1
 40020cc:	e0bffd15 	stw	r2,-12(fp)
        sNios->sUart0.ucTxBuf[idx] = UartPackageFrameEnd; /* [63] package end */
 40020d0:	e0fffd17 	ldw	r3,-12(fp)
 40020d4:	e0bfff17 	ldw	r2,-4(fp)
 40020d8:	1885883a 	add	r2,r3,r2
 40020dc:	10c14b04 	addi	r3,r2,1324
 40020e0:	00bffb84 	movi	r2,-18
 40020e4:	18800005 	stb	r2,0(r3)
//        sNios->sUart0.uiTxBuf_Head = 0;
        sNios->sUart0.uiTxBuf_End += UartPackageLengthToHost;
 40020e8:	e0bfff17 	ldw	r2,-4(fp)
 40020ec:	10824617 	ldw	r2,2328(r2)
 40020f0:	10c01004 	addi	r3,r2,64
 40020f4:	e0bfff17 	ldw	r2,-4(fp)
 40020f8:	10c24615 	stw	r3,2328(r2)
        sNios->sUart0.cTXbufRdy = 1; /* set tx data ready to send */
 40020fc:	e0ffff17 	ldw	r3,-4(fp)
 4002100:	00800044 	movi	r2,1
 4002104:	18824a05 	stb	r2,2344(r3)
    }

#endif
}
 4002108:	e037883a 	mov	sp,fp
 400210c:	dfc00117 	ldw	ra,4(sp)
 4002110:	df000017 	ldw	fp,0(sp)
 4002114:	dec00204 	addi	sp,sp,8
 4002118:	f800283a 	ret

0400211c <ShowStatusLed>:

void ShowStatusLed(sNios_s *sNios){     /* show status LED */
 400211c:	defffe04 	addi	sp,sp,-8
 4002120:	df000115 	stw	fp,4(sp)
 4002124:	df000104 	addi	fp,sp,4
 4002128:	e13fff15 	stw	r4,-4(fp)
        * 3rd LED: receive Host package
        * 4th LED: Nios life
        * */
    #ifdef LEDG_NAME

        sNios->ucLedError = 0;
 400212c:	e0bfff17 	ldw	r2,-4(fp)
 4002130:	10028c05 	stb	zero,2608(r2)

        sNios->ucLedNiosLife = sNios->sTimer0.ucLEDNiosLife;
 4002134:	e0bfff17 	ldw	r2,-4(fp)
 4002138:	10c04a03 	ldbu	r3,296(r2)
 400213c:	e0bfff17 	ldw	r2,-4(fp)
 4002140:	10c28c85 	stb	r3,2610(r2)
        sNios->ucLedStatus = sNios->ucLedError |             /* 1st LED: Error*/   \
 4002144:	e0bfff17 	ldw	r2,-4(fp)
 4002148:	10828c03 	ldbu	r2,2608(r2)
 400214c:	1007883a 	mov	r3,r2
 4002150:	e0bfff17 	ldw	r2,-4(fp)
 4002154:	10828c43 	ldbu	r2,2609(r2)
 4002158:	10803fcc 	andi	r2,r2,255
 400215c:	1085883a 	add	r2,r2,r2
 4002160:	1085883a 	add	r2,r2,r2
 4002164:	1884b03a 	or	r2,r3,r2
 4002168:	1007883a 	mov	r3,r2
 400216c:	e0bfff17 	ldw	r2,-4(fp)
 4002170:	10828c83 	ldbu	r2,2610(r2)
 4002174:	10803fcc 	andi	r2,r2,255
 4002178:	100490fa 	slli	r2,r2,3
 400217c:	1884b03a 	or	r2,r3,r2
 4002180:	1007883a 	mov	r3,r2
 4002184:	e0bfff17 	ldw	r2,-4(fp)
 4002188:	10c28cc5 	stb	r3,2611(r2)
                             sNios->ucLedRcvHostPackage <<2 | /* 3rd LED: Receive Host package */ \
                             sNios->ucLedNiosLife<<3;      /* 4th LED: Nios life */
        IOWR(LEDG_BASE, 0, sNios->ucLedStatus); /* show LED*/
 400218c:	e0bfff17 	ldw	r2,-4(fp)
 4002190:	10828cc3 	ldbu	r2,2611(r2)
 4002194:	10c03fcc 	andi	r3,r2,255
 4002198:	00863804 	movi	r2,6368
 400219c:	10c00035 	stwio	r3,0(r2)
    #else
        LOGD("[Warning]No Status Led.\n");
    #endif
}
 40021a0:	e037883a 	mov	sp,fp
 40021a4:	df000017 	ldw	fp,0(sp)
 40021a8:	dec00104 	addi	sp,sp,4
 40021ac:	f800283a 	ret

040021b0 <SelfCircleRunTest>:

/* Let robot run circle round*/
void SelfCircleRunTest(sNios_s *sNios){
 40021b0:	defffc04 	addi	sp,sp,-16
 40021b4:	dfc00315 	stw	ra,12(sp)
 40021b8:	df000215 	stw	fp,8(sp)
 40021bc:	df000204 	addi	fp,sp,8
 40021c0:	e13fff15 	stw	r4,-4(fp)

    LOGD("This function is for testing robot move ability!\n");

    Send4XwheelDir(&sNios->sMotor, 0, 0, 0, 0);      /* send motor direction, 0:CW, 1:CCW  */
 40021c4:	e0bfff17 	ldw	r2,-4(fp)
 40021c8:	11000104 	addi	r4,r2,4
 40021cc:	d8000015 	stw	zero,0(sp)
 40021d0:	000b883a 	mov	r5,zero
 40021d4:	000d883a 	mov	r6,zero
 40021d8:	000f883a 	mov	r7,zero
 40021dc:	40037a40 	call	40037a4 <Send4XwheelDir>
    Send4XwheelPwm(&sNios->sMotor, 50, 50, 50, 50);  /* send motor PWM duty cycle, 0~100 */
 40021e0:	e0bfff17 	ldw	r2,-4(fp)
 40021e4:	11000104 	addi	r4,r2,4
 40021e8:	00800c84 	movi	r2,50
 40021ec:	d8800015 	stw	r2,0(sp)
 40021f0:	01400c84 	movi	r5,50
 40021f4:	01800c84 	movi	r6,50
 40021f8:	01c00c84 	movi	r7,50
 40021fc:	40036e80 	call	40036e8 <Send4XwheelPwm>
    Send2XMotorDriverEnable(&sNios->sMotor, 1, 1);   /* open motor driver, 1: enable, 0: disable */
 4002200:	e0bfff17 	ldw	r2,-4(fp)
 4002204:	11000104 	addi	r4,r2,4
 4002208:	01400044 	movi	r5,1
 400220c:	01800044 	movi	r6,1
 4002210:	400381c0 	call	400381c <Send2XMotorDriverEnable>
    usleep(3000000);  /* delay time */
 4002214:	01000bb4 	movhi	r4,46
 4002218:	2131b004 	addi	r4,r4,-14656
 400221c:	4010d9c0 	call	4010d9c <usleep>
    Send4XwheelDir(&sNios->sMotor, 1, 1, 1, 1);      /* send motor direction, 0:CW, 1:CCW  */
 4002220:	e0bfff17 	ldw	r2,-4(fp)
 4002224:	11000104 	addi	r4,r2,4
 4002228:	00800044 	movi	r2,1
 400222c:	d8800015 	stw	r2,0(sp)
 4002230:	01400044 	movi	r5,1
 4002234:	01800044 	movi	r6,1
 4002238:	01c00044 	movi	r7,1
 400223c:	40037a40 	call	40037a4 <Send4XwheelDir>
    Send4XwheelPwm(&sNios->sMotor, 50, 50, 50, 50);  /* send motor PWM duty cycle, 0~100 */
 4002240:	e0bfff17 	ldw	r2,-4(fp)
 4002244:	11000104 	addi	r4,r2,4
 4002248:	00800c84 	movi	r2,50
 400224c:	d8800015 	stw	r2,0(sp)
 4002250:	01400c84 	movi	r5,50
 4002254:	01800c84 	movi	r6,50
 4002258:	01c00c84 	movi	r7,50
 400225c:	40036e80 	call	40036e8 <Send4XwheelPwm>
    Send2XMotorDriverEnable(&sNios->sMotor, 1, 1);   /* open motor driver, 1: enable, 0: disable */
 4002260:	e0bfff17 	ldw	r2,-4(fp)
 4002264:	11000104 	addi	r4,r2,4
 4002268:	01400044 	movi	r5,1
 400226c:	01800044 	movi	r6,1
 4002270:	400381c0 	call	400381c <Send2XMotorDriverEnable>
    usleep(3000000);  /* delay time */
 4002274:	01000bb4 	movhi	r4,46
 4002278:	2131b004 	addi	r4,r4,-14656
 400227c:	4010d9c0 	call	4010d9c <usleep>
    Send4XwheelDir(&sNios->sMotor, 0, 0, 0, 0);     /* send motor direction, 0:CW, 1:CCW  */
 4002280:	e0bfff17 	ldw	r2,-4(fp)
 4002284:	11000104 	addi	r4,r2,4
 4002288:	d8000015 	stw	zero,0(sp)
 400228c:	000b883a 	mov	r5,zero
 4002290:	000d883a 	mov	r6,zero
 4002294:	000f883a 	mov	r7,zero
 4002298:	40037a40 	call	40037a4 <Send4XwheelDir>
    Send4XwheelPwm(&sNios->sMotor, 0, 0, 0, 0); /* send motor PWM duty cycle, 0~100 */
 400229c:	e0bfff17 	ldw	r2,-4(fp)
 40022a0:	11000104 	addi	r4,r2,4
 40022a4:	d8000015 	stw	zero,0(sp)
 40022a8:	000b883a 	mov	r5,zero
 40022ac:	000d883a 	mov	r6,zero
 40022b0:	000f883a 	mov	r7,zero
 40022b4:	40036e80 	call	40036e8 <Send4XwheelPwm>
    Send2XMotorDriverEnable(&sNios->sMotor, 1, 1);   /* open motor driver, 1: enable, 0: disable */
 40022b8:	e0bfff17 	ldw	r2,-4(fp)
 40022bc:	11000104 	addi	r4,r2,4
 40022c0:	01400044 	movi	r5,1
 40022c4:	01800044 	movi	r6,1
 40022c8:	400381c0 	call	400381c <Send2XMotorDriverEnable>
}
 40022cc:	e037883a 	mov	sp,fp
 40022d0:	dfc00117 	ldw	ra,4(sp)
 40022d4:	df000017 	ldw	fp,0(sp)
 40022d8:	dec00204 	addi	sp,sp,8
 40022dc:	f800283a 	ret

040022e0 <TimeDely>:

void TimeDely(sNios_s *sNios, unsigned int delaytimeCnt){ /* delay time, unit(ms) */
 40022e0:	defffc04 	addi	sp,sp,-16
 40022e4:	df000315 	stw	fp,12(sp)
 40022e8:	df000304 	addi	fp,sp,12
 40022ec:	e13ffe15 	stw	r4,-8(fp)
 40022f0:	e17fff15 	stw	r5,-4(fp)
    unsigned int uiTmp;

    uiTmp = sNios->sTimer0.uiTICnt;
 40022f4:	e0bffe17 	ldw	r2,-8(fp)
 40022f8:	10804617 	ldw	r2,280(r2)
 40022fc:	e0bffd15 	stw	r2,-12(fp)

    while((sNios->sTimer0.uiTICnt - uiTmp) < delaytimeCnt);
 4002300:	e0bffe17 	ldw	r2,-8(fp)
 4002304:	10c04617 	ldw	r3,280(r2)
 4002308:	e0bffd17 	ldw	r2,-12(fp)
 400230c:	1887c83a 	sub	r3,r3,r2
 4002310:	e0bfff17 	ldw	r2,-4(fp)
 4002314:	18bffa36 	bltu	r3,r2,4002300 <TimeDely+0x20>

}
 4002318:	e037883a 	mov	sp,fp
 400231c:	df000017 	ldw	fp,0(sp)
 4002320:	dec00104 	addi	sp,sp,4
 4002324:	f800283a 	ret

04002328 <InitSystem>:



extern void MotorDriverInit(sMotor_s *sMotor); /* initial motor driver */

void InitSystem(sNios_s *sNios){
 4002328:	defffd04 	addi	sp,sp,-12
 400232c:	dfc00215 	stw	ra,8(sp)
 4002330:	df000115 	stw	fp,4(sp)
 4002334:	df000104 	addi	fp,sp,4
 4002338:	e13fff15 	stw	r4,-4(fp)
    /* initial Nios parameter*/
    sNios->cFlagHostDataIn = 0;
 400233c:	e0bfff17 	ldw	r2,-4(fp)
 4002340:	10000085 	stb	zero,2(r2)
    sNios->cFlagPackDataToHost = 0;
 4002344:	e0bfff17 	ldw	r2,-4(fp)
 4002348:	10000005 	stb	zero,0(r2)
    sNios->cFlagUnpackHostComplete = 0;
 400234c:	e0bfff17 	ldw	r2,-4(fp)
 4002350:	10000045 	stb	zero,1(r2)
    sNios->ucLedError = 0;
 4002354:	e0bfff17 	ldw	r2,-4(fp)
 4002358:	10028c05 	stb	zero,2608(r2)
    sNios->ucLedNiosLife = 0;
 400235c:	e0bfff17 	ldw	r2,-4(fp)
 4002360:	10028c85 	stb	zero,2610(r2)
    sNios->ucLedRcvHostPackage = 0;
 4002364:	e0bfff17 	ldw	r2,-4(fp)
 4002368:	10028c45 	stb	zero,2609(r2)
    sNios->uiRecvHostPackageTimeCnt = 0;
 400236c:	e0bfff17 	ldw	r2,-4(fp)
 4002370:	10028b15 	stw	zero,2604(r2)


    /* init motor fifo */
    MotorDriverInit(&sNios->sMotor); /* initial motor driver */
 4002374:	e0bfff17 	ldw	r2,-4(fp)
 4002378:	11000104 	addi	r4,r2,4
 400237c:	40035b80 	call	40035b8 <MotorDriverInit>

    /* initial PID controller*/
    PIDinit(&sNios->sPID_MA, PIDControlTimeUnit);
 4002380:	e0bfff17 	ldw	r2,-4(fp)
 4002384:	11025704 	addi	r4,r2,2396
 4002388:	01400044 	movi	r5,1
 400238c:	40027b00 	call	40027b0 <PIDinit>
    PIDinit(&sNios->sPID_MB, PIDControlTimeUnit);
 4002390:	e0bfff17 	ldw	r2,-4(fp)
 4002394:	11026404 	addi	r4,r2,2448
 4002398:	01400044 	movi	r5,1
 400239c:	40027b00 	call	40027b0 <PIDinit>
    PIDinit(&sNios->sPID_MC, PIDControlTimeUnit);
 40023a0:	e0bfff17 	ldw	r2,-4(fp)
 40023a4:	11027104 	addi	r4,r2,2500
 40023a8:	01400044 	movi	r5,1
 40023ac:	40027b00 	call	40027b0 <PIDinit>
    PIDinit(&sNios->sPID_MD, PIDControlTimeUnit);
 40023b0:	e0bfff17 	ldw	r2,-4(fp)
 40023b4:	11027e04 	addi	r4,r2,2552
 40023b8:	01400044 	movi	r5,1
 40023bc:	40027b00 	call	40027b0 <PIDinit>


    /* final initial */
        /* initial Uart0 */
        UartISRInitial(&sNios->sUart0);
 40023c0:	e0bfff17 	ldw	r2,-4(fp)
 40023c4:	11004b04 	addi	r4,r2,300
 40023c8:	40045d80 	call	40045d8 <UartISRInitial>
        /* initial timer0 */
        TimerISRInitial(&sNios->sTimer0, TimerInterruptTime); /* timer initial, in timer.c */
 40023cc:	e0bfff17 	ldw	r2,-4(fp)
 40023d0:	11004204 	addi	r4,r2,264
 40023d4:	014ea0f4 	movhi	r5,14979
 40023d8:	29449bc4 	addi	r5,r5,4719
 40023dc:	40043000 	call	4004300 <TimerISRInitial>


    IOWR(SYSREG_BASE,3,0x80000000);  /* clear all fifo */
 40023e0:	00c60304 	movi	r3,6156
 40023e4:	00a00034 	movhi	r2,32768
 40023e8:	18800035 	stwio	r2,0(r3)
    IOWR(SYSREG_BASE,3,0x00000000);  /* clear all fisfo */
 40023ec:	00860304 	movi	r2,6156
 40023f0:	10000035 	stwio	zero,0(r2)
}
 40023f4:	e037883a 	mov	sp,fp
 40023f8:	dfc00117 	ldw	ra,4(sp)
 40023fc:	df000017 	ldw	fp,0(sp)
 4002400:	dec00204 	addi	sp,sp,8
 4002404:	f800283a 	ret

04002408 <testtest>:



void testtest( void ){
 4002408:	defffd04 	addi	sp,sp,-12
 400240c:	dfc00215 	stw	ra,8(sp)
 4002410:	df000115 	stw	fp,4(sp)
 4002414:	df000104 	addi	fp,sp,4
    int i;
//    int *stdout_p;

    i=100;
 4002418:	00801904 	movi	r2,100
 400241c:	e0bfff15 	stw	r2,-4(fp)
    LOGD("TEst %d", i);
//    stdout_p = stdout;
//    stdout = gc_debug_buf;
//    printf(" 1 2 3 4 5");
//    stdout = stdout_p;
    printf("%s", gc_debug_buf);
 4002420:	01010074 	movhi	r4,1025
 4002424:	21173a04 	addi	r4,r4,23784
 4002428:	014104b4 	movhi	r5,1042
 400242c:	2968d004 	addi	r5,r5,-23744
 4002430:	4006f380 	call	4006f38 <printf>

//    while(1);
    gi_debug_buf_idx=0;
 4002434:	008100b4 	movhi	r2,1026
 4002438:	10a8b304 	addi	r2,r2,-23860
 400243c:	10000015 	stw	zero,0(r2)
//    while(1);
    for(i=0;i<10;i++){
 4002440:	e03fff15 	stw	zero,-4(fp)
 4002444:	00000306 	br	4002454 <testtest+0x4c>
 4002448:	e0bfff17 	ldw	r2,-4(fp)
 400244c:	10800044 	addi	r2,r2,1
 4002450:	e0bfff15 	stw	r2,-4(fp)
 4002454:	e0bfff17 	ldw	r2,-4(fp)
 4002458:	10800290 	cmplti	r2,r2,10
 400245c:	103ffa1e 	bne	r2,zero,4002448 <testtest+0x40>
        LOGD("Number %d\n", i);
//        gi_debug_buf_idx += LOGD("Number %d\n", i);
    }
    printf("Leng1=%d\n", gi_debug_buf_idx);
 4002460:	008100b4 	movhi	r2,1026
 4002464:	10a8b304 	addi	r2,r2,-23860
 4002468:	11400017 	ldw	r5,0(r2)
 400246c:	01010074 	movhi	r4,1025
 4002470:	21173b04 	addi	r4,r4,23788
 4002474:	4006f380 	call	4006f38 <printf>
    //Printf("%s", gc_debug_buf); gi_debug_buf_idx=0;
    LOGD("second.\n"); gi_debug_buf_idx=0;
 4002478:	008100b4 	movhi	r2,1026
 400247c:	10a8b304 	addi	r2,r2,-23860
 4002480:	10000015 	stw	zero,0(r2)
    for(i=11;i<20;i++){
 4002484:	008002c4 	movi	r2,11
 4002488:	e0bfff15 	stw	r2,-4(fp)
 400248c:	00000306 	br	400249c <testtest+0x94>
 4002490:	e0bfff17 	ldw	r2,-4(fp)
 4002494:	10800044 	addi	r2,r2,1
 4002498:	e0bfff15 	stw	r2,-4(fp)
 400249c:	e0bfff17 	ldw	r2,-4(fp)
 40024a0:	10800510 	cmplti	r2,r2,20
 40024a4:	103ffa1e 	bne	r2,zero,4002490 <testtest+0x88>
        LOGD("N %d\n", i);
//        gi_debug_buf_idx += LOGD("N %d", i);
    }
    printf("%s", gc_debug_buf);
 40024a8:	01010074 	movhi	r4,1025
 40024ac:	21173a04 	addi	r4,r4,23784
 40024b0:	014104b4 	movhi	r5,1042
 40024b4:	2968d004 	addi	r5,r5,-23744
 40024b8:	4006f380 	call	4006f38 <printf>
    printf("Leng2=%d\n", gi_debug_buf_idx);
 40024bc:	008100b4 	movhi	r2,1026
 40024c0:	10a8b304 	addi	r2,r2,-23860
 40024c4:	11400017 	ldw	r5,0(r2)
 40024c8:	01010074 	movhi	r4,1025
 40024cc:	21173e04 	addi	r4,r4,23800
 40024d0:	4006f380 	call	4006f38 <printf>

    while(1){
        ShowDebugMesspage();
 40024d4:	4002bb40 	call	4002bb4 <ShowDebugMesspage>
    }
 40024d8:	003ffe06 	br	40024d4 <testtest+0xcc>

040024dc <main>:
    }
}


int main()
{
 40024dc:	defd7004 	addi	sp,sp,-2624
 40024e0:	dfc28f15 	stw	ra,2620(sp)
 40024e4:	df028e15 	stw	fp,2616(sp)
 40024e8:	df028e04 	addi	fp,sp,2616
    int i;
    sNios_s sNios;      /* declare sMotor structure variable */

//    testtest();

    SelfCircleRunTest(&sNios);      /* Test motor & driver etc.*/
 40024ec:	e13d7304 	addi	r4,fp,-2612
 40024f0:	40021b00 	call	40021b0 <SelfCircleRunTest>
    InitSystem(&sNios);             /* initial system */
 40024f4:	e13d7304 	addi	r4,fp,-2612
 40024f8:	40023280 	call	4002328 <InitSystem>
    sNios.sTimer0.sNios_p = &sNios; /* store sNios address */
 40024fc:	e0bd7304 	addi	r2,fp,-2612
 4002500:	e0bdbc15 	stw	r2,-2320(fp)
    /* main loop:
     * 1.作給HOST封包的打包.
     * 2.傳輸封包給HOST.
     * 3. */

        PackUartDataToHost(&sNios); /* pack Nios data to Host*/
 4002504:	e13d7304 	addi	r4,fp,-2612
 4002508:	400116c0 	call	400116c <PackUartDataToHost>
        UartTxbufProcess(&sNios);   /* send txbuf to host via UART0 */
 400250c:	e13d7304 	addi	r4,fp,-2612
 4002510:	4000edc0 	call	4000edc <UartTxbufProcess>
        UartRxbufProcess(&sNios);   /* receive host data to rxbuf via UART0 */
 4002514:	e13d7304 	addi	r4,fp,-2612
 4002518:	4000fc00 	call	4000fc0 <UartRxbufProcess>

//        ReadIMU(&sNios.sIMU);
//        LOGD("X=%d, Y=%d, Z=%d\n", sNios.sIMU.iAccX, sNios.sIMU.iAccY, sNios.sIMU.iAccZ);
        ShowStatusLed(&sNios);
 400251c:	e13d7304 	addi	r4,fp,-2612
 4002520:	400211c0 	call	400211c <ShowStatusLed>
        ShowDebugMesspage();
 4002524:	4002bb40 	call	4002bb4 <ShowDebugMesspage>
    }
 4002528:	003ff606 	br	4002504 <main+0x28>

0400252c <ReadIMU>:
#include "imu.h"

void ReadIMU(sIMU_s *sIMU){
 400252c:	defffb04 	addi	sp,sp,-20
 4002530:	df000415 	stw	fp,16(sp)
 4002534:	df000404 	addi	fp,sp,16
 4002538:	e13fff15 	stw	r4,-4(fp)
    unsigned int uiFifoStatus;
    int uiIMUdata, iTmp;
    uiFifoStatus = IORD(SYSREG_BASE, 4); /* read sensor fifo register */
 400253c:	00860404 	movi	r2,6160
 4002540:	10800037 	ldwio	r2,0(r2)
 4002544:	e0bffe15 	stw	r2,-8(fp)
    if(uiFifoStatus & 0x100000) { /* 20th bit, Accelerometer fifo */
 4002548:	e0bffe17 	ldw	r2,-8(fp)
 400254c:	1080042c 	andhi	r2,r2,16
 4002550:	1005003a 	cmpeq	r2,r2,zero
 4002554:	1000271e 	bne	r2,zero,40025f4 <ReadIMU+0xc8>
        uiIMUdata = IORD(SYSREG_BASE, 29); /* read accelerometer value*/
 4002558:	00861d04 	movi	r2,6260
 400255c:	10800037 	ldwio	r2,0(r2)
 4002560:	e0bffd15 	stw	r2,-12(fp)
        sIMU->uiRawAcce = uiIMUdata;    /* store raw data */
 4002564:	e0fffd17 	ldw	r3,-12(fp)
 4002568:	e0bfff17 	ldw	r2,-4(fp)
 400256c:	10c00315 	stw	r3,12(r2)
        sIMU->uiRawAcce |= 0x80000000;    /* +dval */
 4002570:	e0bfff17 	ldw	r2,-4(fp)
 4002574:	10800317 	ldw	r2,12(r2)
 4002578:	10e00034 	orhi	r3,r2,32768
 400257c:	e0bfff17 	ldw	r2,-4(fp)
 4002580:	10c00315 	stw	r3,12(r2)
        iTmp = (int) (uiIMUdata & 0x000003FF) << 22;    /* [9:0]bit is X-asis */
 4002584:	e0bffd17 	ldw	r2,-12(fp)
 4002588:	1080ffcc 	andi	r2,r2,1023
 400258c:	100495ba 	slli	r2,r2,22
 4002590:	e0bffc15 	stw	r2,-16(fp)
        sIMU->iAccX = (int) (iTmp) >> 22;          /* X-asis */
 4002594:	e0bffc17 	ldw	r2,-16(fp)
 4002598:	1007d5ba 	srai	r3,r2,22
 400259c:	e0bfff17 	ldw	r2,-4(fp)
 40025a0:	10c00015 	stw	r3,0(r2)
        iTmp = (int) (uiIMUdata & 0x000FFC00) << 12;  /* [19:10]bit is Y-asis */
 40025a4:	e0fffd17 	ldw	r3,-12(fp)
 40025a8:	00800434 	movhi	r2,16
 40025ac:	10bf0004 	addi	r2,r2,-1024
 40025b0:	1884703a 	and	r2,r3,r2
 40025b4:	1004933a 	slli	r2,r2,12
 40025b8:	e0bffc15 	stw	r2,-16(fp)
        sIMU->iAccY = (int) (iTmp) >> 22;          /* Y-asis */
 40025bc:	e0bffc17 	ldw	r2,-16(fp)
 40025c0:	1007d5ba 	srai	r3,r2,22
 40025c4:	e0bfff17 	ldw	r2,-4(fp)
 40025c8:	10c00115 	stw	r3,4(r2)
        iTmp = (int) (uiIMUdata & 0x3FF00000) << 2; /* [29:20]bit is Z-asis */
 40025cc:	e0bffd17 	ldw	r2,-12(fp)
 40025d0:	108ffc2c 	andhi	r2,r2,16368
 40025d4:	1085883a 	add	r2,r2,r2
 40025d8:	1085883a 	add	r2,r2,r2
 40025dc:	e0bffc15 	stw	r2,-16(fp)
        sIMU->iAccZ = (int) (iTmp) >> 22;          /* Z-asis */
 40025e0:	e0bffc17 	ldw	r2,-16(fp)
 40025e4:	1007d5ba 	srai	r3,r2,22
 40025e8:	e0bfff17 	ldw	r2,-4(fp)
 40025ec:	10c00215 	stw	r3,8(r2)
 40025f0:	00000706 	br	4002610 <ReadIMU+0xe4>
//        sIMU->uiRawAcce = 0xDeadBeef;   /* no data */
//        sIMU->iAccX = 0xDeadBeef;      /* no data */
//        sIMU->iAccY = 0xDeadBeef;      /* no data */
//        sIMU->iAccZ = 0xDeadBeef;      /* no data */
    }else{
        sIMU->uiRawAcce &= 0x7FFFFFFF;    /* clear dval */
 40025f4:	e0bfff17 	ldw	r2,-4(fp)
 40025f8:	10c00317 	ldw	r3,12(r2)
 40025fc:	00a00034 	movhi	r2,32768
 4002600:	10bfffc4 	addi	r2,r2,-1
 4002604:	1886703a 	and	r3,r3,r2
 4002608:	e0bfff17 	ldw	r2,-4(fp)
 400260c:	10c00315 	stw	r3,12(r2)
    }
    if(uiFifoStatus & 0x200000){ /*21th bit, Gyroscope fifo */
 4002610:	e0bffe17 	ldw	r2,-8(fp)
 4002614:	1080082c 	andhi	r2,r2,32
 4002618:	1005003a 	cmpeq	r2,r2,zero
 400261c:	1000271e 	bne	r2,zero,40026bc <ReadIMU+0x190>
        uiIMUdata = IORD(SYSREG_BASE, 30); /* read accelerometer value*/
 4002620:	00861e04 	movi	r2,6264
 4002624:	10800037 	ldwio	r2,0(r2)
 4002628:	e0bffd15 	stw	r2,-12(fp)
        sIMU->uiRawGyro = uiIMUdata;    /* store raw data */
 400262c:	e0fffd17 	ldw	r3,-12(fp)
 4002630:	e0bfff17 	ldw	r2,-4(fp)
 4002634:	10c00715 	stw	r3,28(r2)
        sIMU->uiRawGyro |= 0x80000000;    /* +dval */
 4002638:	e0bfff17 	ldw	r2,-4(fp)
 400263c:	10800717 	ldw	r2,28(r2)
 4002640:	10e00034 	orhi	r3,r2,32768
 4002644:	e0bfff17 	ldw	r2,-4(fp)
 4002648:	10c00715 	stw	r3,28(r2)
        iTmp = (int) (uiIMUdata & 0x000003FF) << 22;    /* [9:0]bit is X-asis */
 400264c:	e0bffd17 	ldw	r2,-12(fp)
 4002650:	1080ffcc 	andi	r2,r2,1023
 4002654:	100495ba 	slli	r2,r2,22
 4002658:	e0bffc15 	stw	r2,-16(fp)
        sIMU->iGyroX = (int) (iTmp) >> 22;               /* X-asis */
 400265c:	e0bffc17 	ldw	r2,-16(fp)
 4002660:	1007d5ba 	srai	r3,r2,22
 4002664:	e0bfff17 	ldw	r2,-4(fp)
 4002668:	10c00415 	stw	r3,16(r2)
        iTmp = (int) (uiIMUdata & 0x000FFC00) << 12;    /* [19:10]bit is Y-asis */
 400266c:	e0fffd17 	ldw	r3,-12(fp)
 4002670:	00800434 	movhi	r2,16
 4002674:	10bf0004 	addi	r2,r2,-1024
 4002678:	1884703a 	and	r2,r3,r2
 400267c:	1004933a 	slli	r2,r2,12
 4002680:	e0bffc15 	stw	r2,-16(fp)
        sIMU->iGyroY = (int) (iTmp) >> 22;               /* Y-asis */
 4002684:	e0bffc17 	ldw	r2,-16(fp)
 4002688:	1007d5ba 	srai	r3,r2,22
 400268c:	e0bfff17 	ldw	r2,-4(fp)
 4002690:	10c00515 	stw	r3,20(r2)
        iTmp = (int) (uiIMUdata & 0x3FF00000) << 2;     /* [29:20]bit is Z-asis */
 4002694:	e0bffd17 	ldw	r2,-12(fp)
 4002698:	108ffc2c 	andhi	r2,r2,16368
 400269c:	1085883a 	add	r2,r2,r2
 40026a0:	1085883a 	add	r2,r2,r2
 40026a4:	e0bffc15 	stw	r2,-16(fp)
        sIMU->iGyroZ = (int) (iTmp) >> 22;               /* Z-asis */
 40026a8:	e0bffc17 	ldw	r2,-16(fp)
 40026ac:	1007d5ba 	srai	r3,r2,22
 40026b0:	e0bfff17 	ldw	r2,-4(fp)
 40026b4:	10c00615 	stw	r3,24(r2)
 40026b8:	00000706 	br	40026d8 <ReadIMU+0x1ac>
    }else{
        sIMU->uiRawGyro &= 0x7FFFFFFF;    /* clear dval */
 40026bc:	e0bfff17 	ldw	r2,-4(fp)
 40026c0:	10c00717 	ldw	r3,28(r2)
 40026c4:	00a00034 	movhi	r2,32768
 40026c8:	10bfffc4 	addi	r2,r2,-1
 40026cc:	1886703a 	and	r3,r3,r2
 40026d0:	e0bfff17 	ldw	r2,-4(fp)
 40026d4:	10c00715 	stw	r3,28(r2)
//        sIMU->uiRawGyro = 0xDeadBeef;   /* no data */
//        sIMU->iGyroX = 0xDeadBeef;      /* no data */
//        sIMU->iGyroY = 0xDeadBeef;      /* no data */
//        sIMU->iGyroZ = 0xDeadBeef;      /* no data */
//    }
    if(uiFifoStatus & 0x400000){ /*22th bit, Magnetic fifo */
 40026d8:	e0bffe17 	ldw	r2,-8(fp)
 40026dc:	1080102c 	andhi	r2,r2,64
 40026e0:	1005003a 	cmpeq	r2,r2,zero
 40026e4:	1000271e 	bne	r2,zero,4002784 <ReadIMU+0x258>
        uiIMUdata = IORD(SYSREG_BASE, 31); /* read Magneticmeter value*/
 40026e8:	00861f04 	movi	r2,6268
 40026ec:	10800037 	ldwio	r2,0(r2)
 40026f0:	e0bffd15 	stw	r2,-12(fp)
        sIMU->uiRawMagn = uiIMUdata;    /* store raw data */
 40026f4:	e0fffd17 	ldw	r3,-12(fp)
 40026f8:	e0bfff17 	ldw	r2,-4(fp)
 40026fc:	10c00b15 	stw	r3,44(r2)
        sIMU->uiRawMagn |= 0x80000000;    /* +dval */
 4002700:	e0bfff17 	ldw	r2,-4(fp)
 4002704:	10800b17 	ldw	r2,44(r2)
 4002708:	10e00034 	orhi	r3,r2,32768
 400270c:	e0bfff17 	ldw	r2,-4(fp)
 4002710:	10c00b15 	stw	r3,44(r2)
        iTmp = (int) (uiIMUdata & 0x000003FF) << 22;    /* [9:0]bit is X-asis */
 4002714:	e0bffd17 	ldw	r2,-12(fp)
 4002718:	1080ffcc 	andi	r2,r2,1023
 400271c:	100495ba 	slli	r2,r2,22
 4002720:	e0bffc15 	stw	r2,-16(fp)
        sIMU->iMagnX = (int) (iTmp) >> 22;               /* X-asis */
 4002724:	e0bffc17 	ldw	r2,-16(fp)
 4002728:	1007d5ba 	srai	r3,r2,22
 400272c:	e0bfff17 	ldw	r2,-4(fp)
 4002730:	10c00815 	stw	r3,32(r2)
        iTmp = (int) (uiIMUdata & 0x000FFC00) << 12;    /* [19:10]bit is Y-asis */
 4002734:	e0fffd17 	ldw	r3,-12(fp)
 4002738:	00800434 	movhi	r2,16
 400273c:	10bf0004 	addi	r2,r2,-1024
 4002740:	1884703a 	and	r2,r3,r2
 4002744:	1004933a 	slli	r2,r2,12
 4002748:	e0bffc15 	stw	r2,-16(fp)
        sIMU->iMagnY = (int) (iTmp) >> 22;               /* Y-asis */
 400274c:	e0bffc17 	ldw	r2,-16(fp)
 4002750:	1007d5ba 	srai	r3,r2,22
 4002754:	e0bfff17 	ldw	r2,-4(fp)
 4002758:	10c00915 	stw	r3,36(r2)
        iTmp = (int) (uiIMUdata & 0x3FF00000) << 2;     /* [29:20]bit is Z-asis */
 400275c:	e0bffd17 	ldw	r2,-12(fp)
 4002760:	108ffc2c 	andhi	r2,r2,16368
 4002764:	1085883a 	add	r2,r2,r2
 4002768:	1085883a 	add	r2,r2,r2
 400276c:	e0bffc15 	stw	r2,-16(fp)
        sIMU->iMagnZ = (int) (iTmp) >> 22;               /* Z-asis */
 4002770:	e0bffc17 	ldw	r2,-16(fp)
 4002774:	1007d5ba 	srai	r3,r2,22
 4002778:	e0bfff17 	ldw	r2,-4(fp)
 400277c:	10c00a15 	stw	r3,40(r2)
 4002780:	00000706 	br	40027a0 <ReadIMU+0x274>
    }else{
        sIMU->uiRawMagn &= 0x7FFFFFFF;    /* clear dval */
 4002784:	e0bfff17 	ldw	r2,-4(fp)
 4002788:	10c00b17 	ldw	r3,44(r2)
 400278c:	00a00034 	movhi	r2,32768
 4002790:	10bfffc4 	addi	r2,r2,-1
 4002794:	1886703a 	and	r3,r3,r2
 4002798:	e0bfff17 	ldw	r2,-4(fp)
 400279c:	10c00b15 	stw	r3,44(r2)
//        sIMU->uiRawMagn = 0xDeadBeef;   /* no data */
//        sIMU->iMagnX = 0xDeadBeef;      /* no data */
//        sIMU->iMagnY = 0xDeadBeef;      /* no data */
//        sIMU->iMagnZ = 0xDeadBeef;      /* no data */
//    }
}
 40027a0:	e037883a 	mov	sp,fp
 40027a4:	df000017 	ldw	fp,0(sp)
 40027a8:	dec00104 	addi	sp,sp,4
 40027ac:	f800283a 	ret

040027b0 <PIDinit>:
#include "controller.h"


void PIDinit(sPIDCtrl_s *sCtrl, unsigned int uiCtrlTimeUnit){
 40027b0:	defffd04 	addi	sp,sp,-12
 40027b4:	df000215 	stw	fp,8(sp)
 40027b8:	df000204 	addi	fp,sp,8
 40027bc:	e13ffe15 	stw	r4,-8(fp)
 40027c0:	e17fff15 	stw	r5,-4(fp)
    /* PID digital controller formula:
     *      yo(kT) = KpE(kT) +Ki(sigma{j=0}{t}E(jT))+Kd[E(kT)-E((k-1)T)])
     *
     *
     * */
    sCtrl->fRefCom = 0;
 40027c4:	e0bffe17 	ldw	r2,-8(fp)
 40027c8:	10000115 	stw	zero,4(r2)
    sCtrl->fErrT = 0;
 40027cc:	e0bffe17 	ldw	r2,-8(fp)
 40027d0:	10000515 	stw	zero,20(r2)
    sCtrl->fDeltaErr = 0;
 40027d4:	e0bffe17 	ldw	r2,-8(fp)
 40027d8:	10000715 	stw	zero,28(r2)
    sCtrl->fErrLastTime = 0; /* timer interrupt unit */
 40027dc:	e0bffe17 	ldw	r2,-8(fp)
 40027e0:	10000615 	stw	zero,24(r2)
    sCtrl->fIntegralErr = 0;
 40027e4:	e0bffe17 	ldw	r2,-8(fp)
 40027e8:	10000815 	stw	zero,32(r2)
    sCtrl->fDeltaCmd = 0;
 40027ec:	e0bffe17 	ldw	r2,-8(fp)
 40027f0:	10000b15 	stw	zero,44(r2)
    sCtrl->iCtrlOutCmd = 0;
 40027f4:	e0bffe17 	ldw	r2,-8(fp)
 40027f8:	10000c15 	stw	zero,48(r2)

    /* set parameters */
    sCtrl->fKp = PID_Kp;
 40027fc:	e0fffe17 	ldw	r3,-8(fp)
 4002800:	008fc034 	movhi	r2,16128
 4002804:	18800215 	stw	r2,8(r3)
    sCtrl->fKi = PID_Ki;
 4002808:	e0fffe17 	ldw	r3,-8(fp)
 400280c:	008fa034 	movhi	r2,16000
 4002810:	18800315 	stw	r2,12(r3)
    sCtrl->fKd = PID_Kd;
 4002814:	e0fffe17 	ldw	r3,-8(fp)
 4002818:	008fa034 	movhi	r2,16000
 400281c:	18800415 	stw	r2,16(r3)
    sCtrl->uiControlTime = uiCtrlTimeUnit;
 4002820:	e0fffe17 	ldw	r3,-8(fp)
 4002824:	e0bfff17 	ldw	r2,-4(fp)
 4002828:	18800915 	stw	r2,36(r3)
    sCtrl->uiSpdCntCmd = 0;
 400282c:	e0bffe17 	ldw	r2,-8(fp)
 4002830:	10000015 	stw	zero,0(r2)

    sCtrl->cSpd_posN = PID_Spd_posN; /* choice control method */
 4002834:	e0fffe17 	ldw	r3,-8(fp)
 4002838:	00800044 	movi	r2,1
 400283c:	18800a05 	stb	r2,40(r3)


}
 4002840:	e037883a 	mov	sp,fp
 4002844:	df000017 	ldw	fp,0(sp)
 4002848:	dec00104 	addi	sp,sp,4
 400284c:	f800283a 	ret

04002850 <PIDctrl>:

void PIDctrl(sPIDCtrl_s *sCtrl, float fSensorValue){
 4002850:	defffa04 	addi	sp,sp,-24
 4002854:	dfc00515 	stw	ra,20(sp)
 4002858:	df000415 	stw	fp,16(sp)
 400285c:	dc000315 	stw	r16,12(sp)
 4002860:	df000304 	addi	fp,sp,12
 4002864:	e13ffe15 	stw	r4,-8(fp)
 4002868:	e17fff15 	stw	r5,-4(fp)
    int     iTmpCmd;

//    printf("refcmd=%f\n", sCtrl->fRefCom);

    { /* calculate Error(t), boundary: -1 ~ 1*/
        sCtrl->fErrT = sCtrl->fRefCom - fSensorValue;
 400286c:	e0bffe17 	ldw	r2,-8(fp)
 4002870:	10c00117 	ldw	r3,4(r2)
 4002874:	e0bfff17 	ldw	r2,-4(fp)
 4002878:	1887ffb2 	custom	254,r3,r3,r2
 400287c:	e0bffe17 	ldw	r2,-8(fp)
 4002880:	10c00515 	stw	r3,20(r2)
        if(sCtrl->fErrT > 1.0) sCtrl->fErrT = 1.0;
 4002884:	e0bffe17 	ldw	r2,-8(fp)
 4002888:	10800517 	ldw	r2,20(r2)
 400288c:	1009883a 	mov	r4,r2
 4002890:	014fe034 	movhi	r5,16256
 4002894:	4004a880 	call	4004a88 <__gtsf2>
 4002898:	10800048 	cmpgei	r2,r2,1
 400289c:	1000011e 	bne	r2,zero,40028a4 <PIDctrl+0x54>
 40028a0:	00000406 	br	40028b4 <PIDctrl+0x64>
 40028a4:	e0fffe17 	ldw	r3,-8(fp)
 40028a8:	008fe034 	movhi	r2,16256
 40028ac:	18800515 	stw	r2,20(r3)
 40028b0:	00000b06 	br	40028e0 <PIDctrl+0x90>
        else if (sCtrl->fErrT < -1.0) sCtrl->fErrT = -1.0;
 40028b4:	e0bffe17 	ldw	r2,-8(fp)
 40028b8:	10800517 	ldw	r2,20(r2)
 40028bc:	1009883a 	mov	r4,r2
 40028c0:	016fe034 	movhi	r5,49024
 40028c4:	4004b780 	call	4004b78 <__ltsf2>
 40028c8:	1004803a 	cmplt	r2,r2,zero
 40028cc:	1000011e 	bne	r2,zero,40028d4 <PIDctrl+0x84>
 40028d0:	00000306 	br	40028e0 <PIDctrl+0x90>
 40028d4:	e0fffe17 	ldw	r3,-8(fp)
 40028d8:	00afe034 	movhi	r2,49024
 40028dc:	18800515 	stw	r2,20(r3)
    }
    { /* calculate DeltaErr(t) boundary: -1 ~ 1*/
        sCtrl->fDeltaErr = sCtrl->fErrT - sCtrl->fErrLastTime;
 40028e0:	e0bffe17 	ldw	r2,-8(fp)
 40028e4:	10c00517 	ldw	r3,20(r2)
 40028e8:	e0bffe17 	ldw	r2,-8(fp)
 40028ec:	10800617 	ldw	r2,24(r2)
 40028f0:	1887ffb2 	custom	254,r3,r3,r2
 40028f4:	e0bffe17 	ldw	r2,-8(fp)
 40028f8:	10c00715 	stw	r3,28(r2)
        if(sCtrl->fDeltaErr > 1.0) sCtrl->fDeltaErr = 1.0;
 40028fc:	e0bffe17 	ldw	r2,-8(fp)
 4002900:	10800717 	ldw	r2,28(r2)
 4002904:	1009883a 	mov	r4,r2
 4002908:	014fe034 	movhi	r5,16256
 400290c:	4004a880 	call	4004a88 <__gtsf2>
 4002910:	10800048 	cmpgei	r2,r2,1
 4002914:	1000011e 	bne	r2,zero,400291c <PIDctrl+0xcc>
 4002918:	00000406 	br	400292c <PIDctrl+0xdc>
 400291c:	e0fffe17 	ldw	r3,-8(fp)
 4002920:	008fe034 	movhi	r2,16256
 4002924:	18800715 	stw	r2,28(r3)
 4002928:	00000b06 	br	4002958 <PIDctrl+0x108>
        else if (sCtrl->fDeltaErr < -1.0) sCtrl->fDeltaErr = -1.0;
 400292c:	e0bffe17 	ldw	r2,-8(fp)
 4002930:	10800717 	ldw	r2,28(r2)
 4002934:	1009883a 	mov	r4,r2
 4002938:	016fe034 	movhi	r5,49024
 400293c:	4004b780 	call	4004b78 <__ltsf2>
 4002940:	1004803a 	cmplt	r2,r2,zero
 4002944:	1000011e 	bne	r2,zero,400294c <PIDctrl+0xfc>
 4002948:	00000306 	br	4002958 <PIDctrl+0x108>
 400294c:	e0fffe17 	ldw	r3,-8(fp)
 4002950:	00afe034 	movhi	r2,49024
 4002954:	18800715 	stw	r2,28(r3)
    }
    { /* calculate Integral error boundary: -1 ~ 1*/
        sCtrl->fIntegralErr = sCtrl->fIntegralErr + sCtrl->fErrT;
 4002958:	e0bffe17 	ldw	r2,-8(fp)
 400295c:	10c00817 	ldw	r3,32(r2)
 4002960:	e0bffe17 	ldw	r2,-8(fp)
 4002964:	10800517 	ldw	r2,20(r2)
 4002968:	1887ff72 	custom	253,r3,r3,r2
 400296c:	e0bffe17 	ldw	r2,-8(fp)
 4002970:	10c00815 	stw	r3,32(r2)
        if(sCtrl->fIntegralErr > 1.0) sCtrl->fIntegralErr = 1.0;
 4002974:	e0bffe17 	ldw	r2,-8(fp)
 4002978:	10800817 	ldw	r2,32(r2)
 400297c:	1009883a 	mov	r4,r2
 4002980:	014fe034 	movhi	r5,16256
 4002984:	4004a880 	call	4004a88 <__gtsf2>
 4002988:	10800048 	cmpgei	r2,r2,1
 400298c:	1000011e 	bne	r2,zero,4002994 <PIDctrl+0x144>
 4002990:	00000406 	br	40029a4 <PIDctrl+0x154>
 4002994:	e0fffe17 	ldw	r3,-8(fp)
 4002998:	008fe034 	movhi	r2,16256
 400299c:	18800815 	stw	r2,32(r3)
 40029a0:	00000b06 	br	40029d0 <PIDctrl+0x180>
        else if (sCtrl->fIntegralErr < -1.0) sCtrl->fIntegralErr = -1.0;
 40029a4:	e0bffe17 	ldw	r2,-8(fp)
 40029a8:	10800817 	ldw	r2,32(r2)
 40029ac:	1009883a 	mov	r4,r2
 40029b0:	016fe034 	movhi	r5,49024
 40029b4:	4004b780 	call	4004b78 <__ltsf2>
 40029b8:	1004803a 	cmplt	r2,r2,zero
 40029bc:	1000011e 	bne	r2,zero,40029c4 <PIDctrl+0x174>
 40029c0:	00000306 	br	40029d0 <PIDctrl+0x180>
 40029c4:	e0fffe17 	ldw	r3,-8(fp)
 40029c8:	00afe034 	movhi	r2,49024
 40029cc:	18800815 	stw	r2,32(r3)
    }

    { /* control method choice */
        if(sCtrl->cSpd_posN){ /* speed control */
 40029d0:	e0bffe17 	ldw	r2,-8(fp)
 40029d4:	10800a03 	ldbu	r2,40(r2)
 40029d8:	10803fcc 	andi	r2,r2,255
 40029dc:	1080201c 	xori	r2,r2,128
 40029e0:	10bfe004 	addi	r2,r2,-128
 40029e4:	1005003a 	cmpeq	r2,r2,zero
 40029e8:	10001e1e 	bne	r2,zero,4002a64 <PIDctrl+0x214>
            sCtrl->fDeltaCmd = sCtrl->fKp*sCtrl->fErrT +
 40029ec:	e0bffe17 	ldw	r2,-8(fp)
 40029f0:	10c00217 	ldw	r3,8(r2)
 40029f4:	e0bffe17 	ldw	r2,-8(fp)
 40029f8:	10800517 	ldw	r2,20(r2)
 40029fc:	1889ff32 	custom	252,r4,r3,r2
 4002a00:	e0bffe17 	ldw	r2,-8(fp)
 4002a04:	10c00317 	ldw	r3,12(r2)
 4002a08:	e0bffe17 	ldw	r2,-8(fp)
 4002a0c:	10800817 	ldw	r2,32(r2)
 4002a10:	1885ff32 	custom	252,r2,r3,r2
 4002a14:	2089ff72 	custom	253,r4,r4,r2
 4002a18:	e0bffe17 	ldw	r2,-8(fp)
 4002a1c:	10c00417 	ldw	r3,16(r2)
 4002a20:	e0bffe17 	ldw	r2,-8(fp)
 4002a24:	10800717 	ldw	r2,28(r2)
 4002a28:	1885ff32 	custom	252,r2,r3,r2
 4002a2c:	2087ff72 	custom	253,r3,r4,r2
 4002a30:	e0bffe17 	ldw	r2,-8(fp)
 4002a34:	10c00b15 	stw	r3,44(r2)
                        sCtrl->fKi*(sCtrl->fIntegralErr) +
                        sCtrl->fKd*sCtrl->fDeltaErr;
            iTmpCmd = (int) (sCtrl->iCtrlOutCmd + (int) (sCtrl->fDeltaCmd * PID_OutX));
 4002a38:	e0bffe17 	ldw	r2,-8(fp)
 4002a3c:	14000c17 	ldw	r16,48(r2)
 4002a40:	e0bffe17 	ldw	r2,-8(fp)
 4002a44:	10c00b17 	ldw	r3,44(r2)
 4002a48:	00904834 	movhi	r2,16672
 4002a4c:	1885ff32 	custom	252,r2,r3,r2
 4002a50:	1009883a 	mov	r4,r2
 4002a54:	4004bf00 	call	4004bf0 <__fixsfsi>
 4002a58:	8085883a 	add	r2,r16,r2
 4002a5c:	e0bffd15 	stw	r2,-12(fp)
 4002a60:	00001406 	br	4002ab4 <PIDctrl+0x264>
        } else { /* position control */
        	iTmpCmd = (int)(sCtrl->fKp*sCtrl->fErrT +
 4002a64:	e0bffe17 	ldw	r2,-8(fp)
 4002a68:	10c00217 	ldw	r3,8(r2)
 4002a6c:	e0bffe17 	ldw	r2,-8(fp)
 4002a70:	10800517 	ldw	r2,20(r2)
 4002a74:	1889ff32 	custom	252,r4,r3,r2
 4002a78:	e0bffe17 	ldw	r2,-8(fp)
 4002a7c:	10c00317 	ldw	r3,12(r2)
 4002a80:	e0bffe17 	ldw	r2,-8(fp)
 4002a84:	10800817 	ldw	r2,32(r2)
 4002a88:	1885ff32 	custom	252,r2,r3,r2
 4002a8c:	2089ff72 	custom	253,r4,r4,r2
 4002a90:	e0bffe17 	ldw	r2,-8(fp)
 4002a94:	10c00417 	ldw	r3,16(r2)
 4002a98:	e0bffe17 	ldw	r2,-8(fp)
 4002a9c:	10800717 	ldw	r2,28(r2)
 4002aa0:	1885ff32 	custom	252,r2,r3,r2
 4002aa4:	2085ff72 	custom	253,r2,r4,r2
 4002aa8:	1009883a 	mov	r4,r2
 4002aac:	4004bf00 	call	4004bf0 <__fixsfsi>
 4002ab0:	e0bffd15 	stw	r2,-12(fp)
        }
    }
    /* boundary check */
    //LOGD("PID=%d\n",  iTmpCmd);
    {
    	if(sCtrl->fRefCom == 0){ /* 命令為0時，強迫輸出電壓為0*/
 4002ab4:	e0bffe17 	ldw	r2,-8(fp)
 4002ab8:	10800117 	ldw	r2,4(r2)
 4002abc:	1009883a 	mov	r4,r2
 4002ac0:	000b883a 	mov	r5,zero
 4002ac4:	4004a100 	call	4004a10 <__eqsf2>
 4002ac8:	1005003a 	cmpeq	r2,r2,zero
 4002acc:	1000011e 	bne	r2,zero,4002ad4 <PIDctrl+0x284>
 4002ad0:	00000306 	br	4002ae0 <PIDctrl+0x290>
    		sCtrl->iCtrlOutCmd = 0;
 4002ad4:	e0bffe17 	ldw	r2,-8(fp)
 4002ad8:	10000c15 	stw	zero,48(r2)
 4002adc:	00001006 	br	4002b20 <PIDctrl+0x2d0>
    	}else {
            if( iTmpCmd >= PwmMaxDuty){ /* */
 4002ae0:	e0bffd17 	ldw	r2,-12(fp)
 4002ae4:	10801910 	cmplti	r2,r2,100
 4002ae8:	1000041e 	bne	r2,zero,4002afc <PIDctrl+0x2ac>
                sCtrl->iCtrlOutCmd = PwmMaxDuty;
 4002aec:	e0fffe17 	ldw	r3,-8(fp)
 4002af0:	00801904 	movi	r2,100
 4002af4:	18800c15 	stw	r2,48(r3)
 4002af8:	00000906 	br	4002b20 <PIDctrl+0x2d0>
            }else if(iTmpCmd <= PwmMinDuty){
 4002afc:	e0bffd17 	ldw	r2,-12(fp)
 4002b00:	10800048 	cmpgei	r2,r2,1
 4002b04:	1000031e 	bne	r2,zero,4002b14 <PIDctrl+0x2c4>
                sCtrl->iCtrlOutCmd = PwmMinDuty;
 4002b08:	e0bffe17 	ldw	r2,-8(fp)
 4002b0c:	10000c15 	stw	zero,48(r2)
 4002b10:	00000306 	br	4002b20 <PIDctrl+0x2d0>
            }else {
                sCtrl->iCtrlOutCmd = iTmpCmd;
 4002b14:	e0fffe17 	ldw	r3,-8(fp)
 4002b18:	e0bffd17 	ldw	r2,-12(fp)
 4002b1c:	18800c15 	stw	r2,48(r3)

    }


    /* update variable */
    sCtrl->fErrLastTime = sCtrl->fErrT; /* release Error(t-1)*/
 4002b20:	e0bffe17 	ldw	r2,-8(fp)
 4002b24:	10c00517 	ldw	r3,20(r2)
 4002b28:	e0bffe17 	ldw	r2,-8(fp)
 4002b2c:	10c00615 	stw	r3,24(r2)
}
 4002b30:	e037883a 	mov	sp,fp
 4002b34:	dfc00217 	ldw	ra,8(sp)
 4002b38:	df000117 	ldw	fp,4(sp)
 4002b3c:	dc000017 	ldw	r16,0(sp)
 4002b40:	dec00304 	addi	sp,sp,12
 4002b44:	f800283a 	ret

04002b48 <DebugPrintf>:
int  gi_debug_buf_idx=0;
int  msglock;
unsigned char uctmp[100];

void DebugPrintf(const char *format)
{
 4002b48:	defffd04 	addi	sp,sp,-12
 4002b4c:	dfc00215 	stw	ra,8(sp)
 4002b50:	df000115 	stw	fp,4(sp)
 4002b54:	df000104 	addi	fp,sp,4
 4002b58:	e13fff15 	stw	r4,-4(fp)
    msglock = 1; /*lock*/
 4002b5c:	00800044 	movi	r2,1
 4002b60:	d0a77115 	stw	r2,-25148(gp)
    gi_debug_buf_idx += sprintf( (gc_debug_buf+gi_debug_buf_idx),  ("%s"), uctmp); /* 將訊息新增到buffer後面 */
 4002b64:	d0a77017 	ldw	r2,-25152(gp)
 4002b68:	1007883a 	mov	r3,r2
 4002b6c:	008104b4 	movhi	r2,1042
 4002b70:	10a8d004 	addi	r2,r2,-23744
 4002b74:	1889883a 	add	r4,r3,r2
 4002b78:	01410074 	movhi	r5,1025
 4002b7c:	29574104 	addi	r5,r5,23812
 4002b80:	018108b4 	movhi	r6,1058
 4002b84:	31a8d004 	addi	r6,r6,-23744
 4002b88:	40074240 	call	4007424 <sprintf>
 4002b8c:	1007883a 	mov	r3,r2
 4002b90:	d0a77017 	ldw	r2,-25152(gp)
 4002b94:	1885883a 	add	r2,r3,r2
 4002b98:	d0a77015 	stw	r2,-25152(gp)
    msglock = 0; /*unlock*/
 4002b9c:	d0277115 	stw	zero,-25148(gp)
}
 4002ba0:	e037883a 	mov	sp,fp
 4002ba4:	dfc00117 	ldw	ra,4(sp)
 4002ba8:	df000017 	ldw	fp,0(sp)
 4002bac:	dec00204 	addi	sp,sp,8
 4002bb0:	f800283a 	ret

04002bb4 <ShowDebugMesspage>:

void ShowDebugMesspage(void ){
 4002bb4:	defffe04 	addi	sp,sp,-8
 4002bb8:	dfc00115 	stw	ra,4(sp)
 4002bbc:	df000015 	stw	fp,0(sp)
 4002bc0:	d839883a 	mov	fp,sp
    if(msglock) { /* 判斷是否被鎖住 */
 4002bc4:	d0a77117 	ldw	r2,-25148(gp)
 4002bc8:	1004c03a 	cmpne	r2,r2,zero
 4002bcc:	1000091e 	bne	r2,zero,4002bf4 <ShowDebugMesspage+0x40>
        /* do nothing */
    }else {
        if(gi_debug_buf_idx){ /* 確認是否有值 */
 4002bd0:	d0a77017 	ldw	r2,-25152(gp)
 4002bd4:	1005003a 	cmpeq	r2,r2,zero
 4002bd8:	1000061e 	bne	r2,zero,4002bf4 <ShowDebugMesspage+0x40>
            printf("%s", gc_debug_buf); /* 印出buffer內容*/
 4002bdc:	01010074 	movhi	r4,1025
 4002be0:	21174104 	addi	r4,r4,23812
 4002be4:	014104b4 	movhi	r5,1042
 4002be8:	2968d004 	addi	r5,r5,-23744
 4002bec:	4006f380 	call	4006f38 <printf>
            gi_debug_buf_idx = 0;
 4002bf0:	d0277015 	stw	zero,-25152(gp)
        }else{
            /* do nothing*/
        }
    }
}
 4002bf4:	e037883a 	mov	sp,fp
 4002bf8:	dfc00117 	ldw	ra,4(sp)
 4002bfc:	df000017 	ldw	fp,0(sp)
 4002c00:	dec00204 	addi	sp,sp,8
 4002c04:	f800283a 	ret

04002c08 <log_set_level>:
static uchar g_level[LOG_M_MAX] = {0}; /* LOG_M_MAX is 7*/


#ifdef USE_SUB_MODULE
    void log_set_level(const uint mod, const uchar level)
    {
 4002c08:	defffd04 	addi	sp,sp,-12
 4002c0c:	df000215 	stw	fp,8(sp)
 4002c10:	df000204 	addi	fp,sp,8
 4002c14:	e13ffe15 	stw	r4,-8(fp)
 4002c18:	e17fff05 	stb	r5,-4(fp)
        if (mod >= LOG_M_MAX)
 4002c1c:	e0bffe17 	ldw	r2,-8(fp)
 4002c20:	108001e8 	cmpgeui	r2,r2,7
 4002c24:	1000051e 	bne	r2,zero,4002c3c <log_set_level+0x34>
        {
            return ;
        }
        g_level[mod] = level;
 4002c28:	e0fffe17 	ldw	r3,-8(fp)
 4002c2c:	d0a77204 	addi	r2,gp,-25144
 4002c30:	1887883a 	add	r3,r3,r2
 4002c34:	e0bfff03 	ldbu	r2,-4(fp)
 4002c38:	18800005 	stb	r2,0(r3)
        return ;
    }
 4002c3c:	e037883a 	mov	sp,fp
 4002c40:	df000017 	ldw	fp,0(sp)
 4002c44:	dec00104 	addi	sp,sp,4
 4002c48:	f800283a 	ret

04002c4c <log_p>:

    void log_p(const uint mod, const uchar level,const char *va_alist, ...)
    {
 4002c4c:	deffd704 	addi	sp,sp,-164
 4002c50:	dfc02715 	stw	ra,156(sp)
 4002c54:	df002615 	stw	fp,152(sp)
 4002c58:	dc002515 	stw	r16,148(sp)
 4002c5c:	df002504 	addi	fp,sp,148
 4002c60:	e13ffc15 	stw	r4,-16(fp)
 4002c64:	e1c00315 	stw	r7,12(fp)
 4002c68:	e1bffe15 	stw	r6,-8(fp)
 4002c6c:	e17ffd05 	stb	r5,-12(fp)
        if (mod >= LOG_M_MAX || !(g_level[mod] & level))
 4002c70:	e0bffc17 	ldw	r2,-16(fp)
 4002c74:	108001e8 	cmpgeui	r2,r2,7
 4002c78:	1000b41e 	bne	r2,zero,4002f4c <log_p+0x300>
 4002c7c:	e0fffc17 	ldw	r3,-16(fp)
 4002c80:	d0a77204 	addi	r2,gp,-25144
 4002c84:	1885883a 	add	r2,r3,r2
 4002c88:	10c00003 	ldbu	r3,0(r2)
 4002c8c:	e0bffd03 	ldbu	r2,-12(fp)
 4002c90:	1884703a 	and	r2,r3,r2
 4002c94:	10803fcc 	andi	r2,r2,255
 4002c98:	1004c03a 	cmpne	r2,r2,zero
 4002c9c:	1000011e 	bne	r2,zero,4002ca4 <log_p+0x58>
        {
            return ;
 4002ca0:	0000aa06 	br	4002f4c <log_p+0x300>
        }
        va_list args;
        uchar buf[128] = {0};
 4002ca4:	e13fdc04 	addi	r4,fp,-144
 4002ca8:	01802004 	movi	r6,128
 4002cac:	000b883a 	mov	r5,zero
 4002cb0:	4006da80 	call	4006da8 <memset>
        snprintf(buf, sizeof(buf), "[%s]", g_log_modu_str[mod]);
 4002cb4:	e13fdc04 	addi	r4,fp,-144
 4002cb8:	e0bffc17 	ldw	r2,-16(fp)
 4002cbc:	10800524 	muli	r2,r2,20
 4002cc0:	1007883a 	mov	r3,r2
 4002cc4:	00810074 	movhi	r2,1025
 4002cc8:	109a1b04 	addi	r2,r2,26732
 4002ccc:	1885883a 	add	r2,r3,r2
 4002cd0:	100f883a 	mov	r7,r2
 4002cd4:	01402004 	movi	r5,128
 4002cd8:	01810074 	movhi	r6,1025
 4002cdc:	31974204 	addi	r6,r6,23816
 4002ce0:	40072b40 	call	40072b4 <snprintf>
        switch (level & g_level[mod])
 4002ce4:	e0fffc17 	ldw	r3,-16(fp)
 4002ce8:	d0a77204 	addi	r2,gp,-25144
 4002cec:	1885883a 	add	r2,r3,r2
 4002cf0:	10c00003 	ldbu	r3,0(r2)
 4002cf4:	e0bffd03 	ldbu	r2,-12(fp)
 4002cf8:	1884703a 	and	r2,r3,r2
 4002cfc:	10803fcc 	andi	r2,r2,255
 4002d00:	e0bfff15 	stw	r2,-4(fp)
 4002d04:	e0ffff17 	ldw	r3,-4(fp)
 4002d08:	188000a0 	cmpeqi	r2,r3,2
 4002d0c:	1000271e 	bne	r2,zero,4002dac <log_p+0x160>
 4002d10:	e0ffff17 	ldw	r3,-4(fp)
 4002d14:	188000c8 	cmpgei	r2,r3,3
 4002d18:	1000041e 	bne	r2,zero,4002d2c <log_p+0xe0>
 4002d1c:	e0ffff17 	ldw	r3,-4(fp)
 4002d20:	18800060 	cmpeqi	r2,r3,1
 4002d24:	1000081e 	bne	r2,zero,4002d48 <log_p+0xfc>
 4002d28:	00008806 	br	4002f4c <log_p+0x300>
 4002d2c:	e0ffff17 	ldw	r3,-4(fp)
 4002d30:	18800120 	cmpeqi	r2,r3,4
 4002d34:	1000381e 	bne	r2,zero,4002e18 <log_p+0x1cc>
 4002d38:	e0ffff17 	ldw	r3,-4(fp)
 4002d3c:	18800220 	cmpeqi	r2,r3,8
 4002d40:	1000541e 	bne	r2,zero,4002e94 <log_p+0x248>
 4002d44:	00008106 	br	4002f4c <log_p+0x300>
        {
            case LOG_T_INFO:
                strcat(buf, "[T_INFO] ");
 4002d48:	e43fdc04 	addi	r16,fp,-144
 4002d4c:	8009883a 	mov	r4,r16
 4002d50:	4007cb80 	call	4007cb8 <strlen>
 4002d54:	1405883a 	add	r2,r2,r16
 4002d58:	1007883a 	mov	r3,r2
 4002d5c:	008016c4 	movi	r2,91
 4002d60:	18800005 	stb	r2,0(r3)
 4002d64:	00801504 	movi	r2,84
 4002d68:	18800045 	stb	r2,1(r3)
 4002d6c:	008017c4 	movi	r2,95
 4002d70:	18800085 	stb	r2,2(r3)
 4002d74:	00801244 	movi	r2,73
 4002d78:	188000c5 	stb	r2,3(r3)
 4002d7c:	00801384 	movi	r2,78
 4002d80:	18800105 	stb	r2,4(r3)
 4002d84:	00801184 	movi	r2,70
 4002d88:	18800145 	stb	r2,5(r3)
 4002d8c:	008013c4 	movi	r2,79
 4002d90:	18800185 	stb	r2,6(r3)
 4002d94:	00801744 	movi	r2,93
 4002d98:	188001c5 	stb	r2,7(r3)
 4002d9c:	00800804 	movi	r2,32
 4002da0:	18800205 	stb	r2,8(r3)
 4002da4:	18000245 	stb	zero,9(r3)
                break;
 4002da8:	00005406 	br	4002efc <log_p+0x2b0>
            case LOG_T_DEBUG:
                strcat(buf, "[T_DEBUG] ");
 4002dac:	e43fdc04 	addi	r16,fp,-144
 4002db0:	8009883a 	mov	r4,r16
 4002db4:	4007cb80 	call	4007cb8 <strlen>
 4002db8:	1405883a 	add	r2,r2,r16
 4002dbc:	1007883a 	mov	r3,r2
 4002dc0:	008016c4 	movi	r2,91
 4002dc4:	18800005 	stb	r2,0(r3)
 4002dc8:	00801504 	movi	r2,84
 4002dcc:	18800045 	stb	r2,1(r3)
 4002dd0:	008017c4 	movi	r2,95
 4002dd4:	18800085 	stb	r2,2(r3)
 4002dd8:	00801104 	movi	r2,68
 4002ddc:	188000c5 	stb	r2,3(r3)
 4002de0:	00801144 	movi	r2,69
 4002de4:	18800105 	stb	r2,4(r3)
 4002de8:	00801084 	movi	r2,66
 4002dec:	18800145 	stb	r2,5(r3)
 4002df0:	00801544 	movi	r2,85
 4002df4:	18800185 	stb	r2,6(r3)
 4002df8:	008011c4 	movi	r2,71
 4002dfc:	188001c5 	stb	r2,7(r3)
 4002e00:	00801744 	movi	r2,93
 4002e04:	18800205 	stb	r2,8(r3)
 4002e08:	00800804 	movi	r2,32
 4002e0c:	18800245 	stb	r2,9(r3)
 4002e10:	18000285 	stb	zero,10(r3)
                break;
 4002e14:	00003906 	br	4002efc <log_p+0x2b0>
            case LOG_T_WARNING:
                strcat(buf, "[T_WARNING] ");
 4002e18:	e43fdc04 	addi	r16,fp,-144
 4002e1c:	8009883a 	mov	r4,r16
 4002e20:	4007cb80 	call	4007cb8 <strlen>
 4002e24:	1405883a 	add	r2,r2,r16
 4002e28:	1007883a 	mov	r3,r2
 4002e2c:	008016c4 	movi	r2,91
 4002e30:	18800005 	stb	r2,0(r3)
 4002e34:	00801504 	movi	r2,84
 4002e38:	18800045 	stb	r2,1(r3)
 4002e3c:	008017c4 	movi	r2,95
 4002e40:	18800085 	stb	r2,2(r3)
 4002e44:	008015c4 	movi	r2,87
 4002e48:	188000c5 	stb	r2,3(r3)
 4002e4c:	00801044 	movi	r2,65
 4002e50:	18800105 	stb	r2,4(r3)
 4002e54:	00801484 	movi	r2,82
 4002e58:	18800145 	stb	r2,5(r3)
 4002e5c:	00801384 	movi	r2,78
 4002e60:	18800185 	stb	r2,6(r3)
 4002e64:	00801244 	movi	r2,73
 4002e68:	188001c5 	stb	r2,7(r3)
 4002e6c:	00801384 	movi	r2,78
 4002e70:	18800205 	stb	r2,8(r3)
 4002e74:	008011c4 	movi	r2,71
 4002e78:	18800245 	stb	r2,9(r3)
 4002e7c:	00801744 	movi	r2,93
 4002e80:	18800285 	stb	r2,10(r3)
 4002e84:	00800804 	movi	r2,32
 4002e88:	188002c5 	stb	r2,11(r3)
 4002e8c:	18000305 	stb	zero,12(r3)
                break;
 4002e90:	00001a06 	br	4002efc <log_p+0x2b0>
            case LOG_T_ERROR:
                strcat(buf, "[T_ERROR] ");
 4002e94:	e43fdc04 	addi	r16,fp,-144
 4002e98:	8009883a 	mov	r4,r16
 4002e9c:	4007cb80 	call	4007cb8 <strlen>
 4002ea0:	1405883a 	add	r2,r2,r16
 4002ea4:	1007883a 	mov	r3,r2
 4002ea8:	008016c4 	movi	r2,91
 4002eac:	18800005 	stb	r2,0(r3)
 4002eb0:	00801504 	movi	r2,84
 4002eb4:	18800045 	stb	r2,1(r3)
 4002eb8:	008017c4 	movi	r2,95
 4002ebc:	18800085 	stb	r2,2(r3)
 4002ec0:	00801144 	movi	r2,69
 4002ec4:	188000c5 	stb	r2,3(r3)
 4002ec8:	00801484 	movi	r2,82
 4002ecc:	18800105 	stb	r2,4(r3)
 4002ed0:	00801484 	movi	r2,82
 4002ed4:	18800145 	stb	r2,5(r3)
 4002ed8:	008013c4 	movi	r2,79
 4002edc:	18800185 	stb	r2,6(r3)
 4002ee0:	00801484 	movi	r2,82
 4002ee4:	188001c5 	stb	r2,7(r3)
 4002ee8:	00801744 	movi	r2,93
 4002eec:	18800205 	stb	r2,8(r3)
 4002ef0:	00800804 	movi	r2,32
 4002ef4:	18800245 	stb	r2,9(r3)
 4002ef8:	18000285 	stb	zero,10(r3)
                break;
            default:
                return ;
        }
        fprintf(stdout, buf);
 4002efc:	008100b4 	movhi	r2,1026
 4002f00:	10a14304 	addi	r2,r2,-31476
 4002f04:	10800017 	ldw	r2,0(r2)
 4002f08:	11000217 	ldw	r4,8(r2)
 4002f0c:	e17fdc04 	addi	r5,fp,-144
 4002f10:	40059040 	call	4005904 <fprintf>
        va_start(args, va_alist);
 4002f14:	e0800304 	addi	r2,fp,12
 4002f18:	e0bfdb15 	stw	r2,-148(fp)
        vfprintf(stdout, va_alist, args);
 4002f1c:	008100b4 	movhi	r2,1026
 4002f20:	10a14304 	addi	r2,r2,-31476
 4002f24:	10800017 	ldw	r2,0(r2)
 4002f28:	11000217 	ldw	r4,8(r2)
 4002f2c:	e1bfdb17 	ldw	r6,-148(fp)
 4002f30:	e17ffe17 	ldw	r5,-8(fp)
 4002f34:	4009c5c0 	call	4009c5c <vfprintf>
        va_end(args);
        fflush(stdout);
 4002f38:	008100b4 	movhi	r2,1026
 4002f3c:	10a14304 	addi	r2,r2,-31476
 4002f40:	10800017 	ldw	r2,0(r2)
 4002f44:	11000217 	ldw	r4,8(r2)
 4002f48:	40055000 	call	4005500 <fflush>
        return ;
    }
 4002f4c:	e037883a 	mov	sp,fp
 4002f50:	dfc00217 	ldw	ra,8(sp)
 4002f54:	df000117 	ldw	fp,4(sp)
 4002f58:	dc000017 	ldw	r16,0(sp)
 4002f5c:	dec00404 	addi	sp,sp,16
 4002f60:	f800283a 	ret

04002f64 <file_write>:


#define LOG_FILE_NAME "log.txt"

int file_write(char* buf, size_t buf_len, char* file_name, char* type)
{
 4002f64:	defff804 	addi	sp,sp,-32
 4002f68:	dfc00715 	stw	ra,28(sp)
 4002f6c:	df000615 	stw	fp,24(sp)
 4002f70:	df000604 	addi	fp,sp,24
 4002f74:	e13ffb15 	stw	r4,-20(fp)
 4002f78:	e17ffc15 	stw	r5,-16(fp)
 4002f7c:	e1bffd15 	stw	r6,-12(fp)
 4002f80:	e1fffe15 	stw	r7,-8(fp)
#ifdef ALTERA_HOSTFS_NAME
    if ( buf == NULL || buf_len <= 0 ||\
 4002f84:	e0bffb17 	ldw	r2,-20(fp)
 4002f88:	1005003a 	cmpeq	r2,r2,zero
 4002f8c:	10000d1e 	bne	r2,zero,4002fc4 <file_write+0x60>
 4002f90:	e0bffc17 	ldw	r2,-16(fp)
 4002f94:	1005003a 	cmpeq	r2,r2,zero
 4002f98:	10000a1e 	bne	r2,zero,4002fc4 <file_write+0x60>
 4002f9c:	e0bffd17 	ldw	r2,-12(fp)
 4002fa0:	1005003a 	cmpeq	r2,r2,zero
 4002fa4:	1000071e 	bne	r2,zero,4002fc4 <file_write+0x60>
 4002fa8:	e0bffd17 	ldw	r2,-12(fp)
 4002fac:	10800003 	ldbu	r2,0(r2)
 4002fb0:	10803fcc 	andi	r2,r2,255
 4002fb4:	1080201c 	xori	r2,r2,128
 4002fb8:	10bfe004 	addi	r2,r2,-128
 4002fbc:	1004c03a 	cmpne	r2,r2,zero
 4002fc0:	1000021e 	bne	r2,zero,4002fcc <file_write+0x68>
    file_name == NULL || file_name[0] == 0)
    {
        return 0;
 4002fc4:	e03fff15 	stw	zero,-4(fp)
 4002fc8:	00001506 	br	4003020 <file_write+0xbc>
    }
    FILE *fd = fopen(file_name, type);
 4002fcc:	e13ffd17 	ldw	r4,-12(fp)
 4002fd0:	e17ffe17 	ldw	r5,-8(fp)
 4002fd4:	40058e80 	call	40058e8 <fopen>
 4002fd8:	e0bffa15 	stw	r2,-24(fp)
    if (fd == NULL)
 4002fdc:	e0bffa17 	ldw	r2,-24(fp)
 4002fe0:	1004c03a 	cmpne	r2,r2,zero
 4002fe4:	1000051e 	bne	r2,zero,4002ffc <file_write+0x98>
    {
        perror("fopen");
 4002fe8:	01010074 	movhi	r4,1025
 4002fec:	21174404 	addi	r4,r4,23824
 4002ff0:	4006f240 	call	4006f24 <perror>
        return 0;
 4002ff4:	e03fff15 	stw	zero,-4(fp)
 4002ff8:	00000906 	br	4003020 <file_write+0xbc>
    }
    fwrite(buf, 1, buf_len, fd);
 4002ffc:	e13ffb17 	ldw	r4,-20(fp)
 4003000:	01400044 	movi	r5,1
 4003004:	e1bffc17 	ldw	r6,-16(fp)
 4003008:	e1fffa17 	ldw	r7,-24(fp)
 400300c:	40064940 	call	4006494 <fwrite>
    fclose(fd);
 4003010:	e13ffa17 	ldw	r4,-24(fp)
 4003014:	40052f00 	call	40052f0 <fclose>
    return 1;
 4003018:	00800044 	movi	r2,1
 400301c:	e0bfff15 	stw	r2,-4(fp)
 4003020:	e0bfff17 	ldw	r2,-4(fp)
#else
    printf("No Host file system find.\n");
#endif

}
 4003024:	e037883a 	mov	sp,fp
 4003028:	dfc00117 	ldw	ra,4(sp)
 400302c:	df000017 	ldw	fp,0(sp)
 4003030:	dec00204 	addi	sp,sp,8
 4003034:	f800283a 	ret

04003038 <log_write_file>:

/* log資訊寫回到檔案 */
int log_write_file(char* buf, size_t buf_len, char* file_name)
{
 4003038:	defffb04 	addi	sp,sp,-20
 400303c:	dfc00415 	stw	ra,16(sp)
 4003040:	df000315 	stw	fp,12(sp)
 4003044:	df000304 	addi	fp,sp,12
 4003048:	e13ffd15 	stw	r4,-12(fp)
 400304c:	e17ffe15 	stw	r5,-8(fp)
 4003050:	e1bfff15 	stw	r6,-4(fp)
    return file_write(buf, buf_len, file_name, "a ");
 4003054:	e13ffd17 	ldw	r4,-12(fp)
 4003058:	e17ffe17 	ldw	r5,-8(fp)
 400305c:	e1bfff17 	ldw	r6,-4(fp)
 4003060:	01c10074 	movhi	r7,1025
 4003064:	39d74604 	addi	r7,r7,23832
 4003068:	4002f640 	call	4002f64 <file_write>
}
 400306c:	e037883a 	mov	sp,fp
 4003070:	dfc00117 	ldw	ra,4(sp)
 4003074:	df000017 	ldw	fp,0(sp)
 4003078:	dec00204 	addi	sp,sp,8
 400307c:	f800283a 	ret

04003080 <log_to_file>:

void log_to_file(const uint mod, const uchar level, const char *va_alist, ...)
{
 4003080:	deffd704 	addi	sp,sp,-164
 4003084:	dfc02715 	stw	ra,156(sp)
 4003088:	df002615 	stw	fp,152(sp)
 400308c:	dc002515 	stw	r16,148(sp)
 4003090:	df002504 	addi	fp,sp,148
 4003094:	e13ffc15 	stw	r4,-16(fp)
 4003098:	e1c00315 	stw	r7,12(fp)
 400309c:	e1bffe15 	stw	r6,-8(fp)
 40030a0:	e17ffd05 	stb	r5,-12(fp)
    if (mod >= LOG_M_MAX || !(g_level[mod] & level))
 40030a4:	e0bffc17 	ldw	r2,-16(fp)
 40030a8:	108001e8 	cmpgeui	r2,r2,7
 40030ac:	1000091e 	bne	r2,zero,40030d4 <log_to_file+0x54>
 40030b0:	e0fffc17 	ldw	r3,-16(fp)
 40030b4:	d0a77204 	addi	r2,gp,-25144
 40030b8:	1885883a 	add	r2,r3,r2
 40030bc:	10c00003 	ldbu	r3,0(r2)
 40030c0:	e0bffd03 	ldbu	r2,-12(fp)
 40030c4:	1884703a 	and	r2,r3,r2
 40030c8:	10803fcc 	andi	r2,r2,255
 40030cc:	1004c03a 	cmpne	r2,r2,zero
 40030d0:	1000041e 	bne	r2,zero,40030e4 <log_to_file+0x64>
    {
        printf("Error with mod.\n");
 40030d4:	01010074 	movhi	r4,1025
 40030d8:	21174704 	addi	r4,r4,23836
 40030dc:	40070500 	call	4007050 <puts>
        return ;
 40030e0:	0000b006 	br	40033a4 <log_to_file+0x324>
    }
    va_list args;
    char buf[128] = {0};
 40030e4:	e13fdc04 	addi	r4,fp,-144
 40030e8:	01802004 	movi	r6,128
 40030ec:	000b883a 	mov	r5,zero
 40030f0:	4006da80 	call	4006da8 <memset>
    snprintf(buf, sizeof(buf), "[%s]", g_log_modu_str[mod]);
 40030f4:	e0bffc17 	ldw	r2,-16(fp)
 40030f8:	10800524 	muli	r2,r2,20
 40030fc:	1007883a 	mov	r3,r2
 4003100:	00810074 	movhi	r2,1025
 4003104:	109a1b04 	addi	r2,r2,26732
 4003108:	1885883a 	add	r2,r3,r2
 400310c:	100f883a 	mov	r7,r2
 4003110:	e13fdc04 	addi	r4,fp,-144
 4003114:	01402004 	movi	r5,128
 4003118:	01810074 	movhi	r6,1025
 400311c:	31974204 	addi	r6,r6,23816
 4003120:	40072b40 	call	40072b4 <snprintf>
    switch (level & g_level[mod])
 4003124:	e0fffc17 	ldw	r3,-16(fp)
 4003128:	d0a77204 	addi	r2,gp,-25144
 400312c:	1885883a 	add	r2,r3,r2
 4003130:	10c00003 	ldbu	r3,0(r2)
 4003134:	e0bffd03 	ldbu	r2,-12(fp)
 4003138:	1884703a 	and	r2,r3,r2
 400313c:	10803fcc 	andi	r2,r2,255
 4003140:	e0bfff15 	stw	r2,-4(fp)
 4003144:	e0ffff17 	ldw	r3,-4(fp)
 4003148:	188000a0 	cmpeqi	r2,r3,2
 400314c:	1000271e 	bne	r2,zero,40031ec <log_to_file+0x16c>
 4003150:	e0ffff17 	ldw	r3,-4(fp)
 4003154:	188000c8 	cmpgei	r2,r3,3
 4003158:	1000041e 	bne	r2,zero,400316c <log_to_file+0xec>
 400315c:	e0ffff17 	ldw	r3,-4(fp)
 4003160:	18800060 	cmpeqi	r2,r3,1
 4003164:	1000081e 	bne	r2,zero,4003188 <log_to_file+0x108>
 4003168:	00008e06 	br	40033a4 <log_to_file+0x324>
 400316c:	e0ffff17 	ldw	r3,-4(fp)
 4003170:	18800120 	cmpeqi	r2,r3,4
 4003174:	1000381e 	bne	r2,zero,4003258 <log_to_file+0x1d8>
 4003178:	e0ffff17 	ldw	r3,-4(fp)
 400317c:	18800220 	cmpeqi	r2,r3,8
 4003180:	1000541e 	bne	r2,zero,40032d4 <log_to_file+0x254>
 4003184:	00008706 	br	40033a4 <log_to_file+0x324>
    {
        case LOG_T_INFO:
            strcat(buf, "[T_INFO] ");
 4003188:	e43fdc04 	addi	r16,fp,-144
 400318c:	e13fdc04 	addi	r4,fp,-144
 4003190:	4007cb80 	call	4007cb8 <strlen>
 4003194:	8085883a 	add	r2,r16,r2
 4003198:	1007883a 	mov	r3,r2
 400319c:	008016c4 	movi	r2,91
 40031a0:	18800005 	stb	r2,0(r3)
 40031a4:	00801504 	movi	r2,84
 40031a8:	18800045 	stb	r2,1(r3)
 40031ac:	008017c4 	movi	r2,95
 40031b0:	18800085 	stb	r2,2(r3)
 40031b4:	00801244 	movi	r2,73
 40031b8:	188000c5 	stb	r2,3(r3)
 40031bc:	00801384 	movi	r2,78
 40031c0:	18800105 	stb	r2,4(r3)
 40031c4:	00801184 	movi	r2,70
 40031c8:	18800145 	stb	r2,5(r3)
 40031cc:	008013c4 	movi	r2,79
 40031d0:	18800185 	stb	r2,6(r3)
 40031d4:	00801744 	movi	r2,93
 40031d8:	188001c5 	stb	r2,7(r3)
 40031dc:	00800804 	movi	r2,32
 40031e0:	18800205 	stb	r2,8(r3)
 40031e4:	18000245 	stb	zero,9(r3)
            break;
 40031e8:	00005406 	br	400333c <log_to_file+0x2bc>
        case LOG_T_DEBUG:
            strcat(buf, "[T_DEBUG] ");
 40031ec:	e43fdc04 	addi	r16,fp,-144
 40031f0:	e13fdc04 	addi	r4,fp,-144
 40031f4:	4007cb80 	call	4007cb8 <strlen>
 40031f8:	8085883a 	add	r2,r16,r2
 40031fc:	1007883a 	mov	r3,r2
 4003200:	008016c4 	movi	r2,91
 4003204:	18800005 	stb	r2,0(r3)
 4003208:	00801504 	movi	r2,84
 400320c:	18800045 	stb	r2,1(r3)
 4003210:	008017c4 	movi	r2,95
 4003214:	18800085 	stb	r2,2(r3)
 4003218:	00801104 	movi	r2,68
 400321c:	188000c5 	stb	r2,3(r3)
 4003220:	00801144 	movi	r2,69
 4003224:	18800105 	stb	r2,4(r3)
 4003228:	00801084 	movi	r2,66
 400322c:	18800145 	stb	r2,5(r3)
 4003230:	00801544 	movi	r2,85
 4003234:	18800185 	stb	r2,6(r3)
 4003238:	008011c4 	movi	r2,71
 400323c:	188001c5 	stb	r2,7(r3)
 4003240:	00801744 	movi	r2,93
 4003244:	18800205 	stb	r2,8(r3)
 4003248:	00800804 	movi	r2,32
 400324c:	18800245 	stb	r2,9(r3)
 4003250:	18000285 	stb	zero,10(r3)
            break;
 4003254:	00003906 	br	400333c <log_to_file+0x2bc>
        case LOG_T_WARNING:
            strcat(buf, "[T_WARNING] ");
 4003258:	e43fdc04 	addi	r16,fp,-144
 400325c:	e13fdc04 	addi	r4,fp,-144
 4003260:	4007cb80 	call	4007cb8 <strlen>
 4003264:	8085883a 	add	r2,r16,r2
 4003268:	1007883a 	mov	r3,r2
 400326c:	008016c4 	movi	r2,91
 4003270:	18800005 	stb	r2,0(r3)
 4003274:	00801504 	movi	r2,84
 4003278:	18800045 	stb	r2,1(r3)
 400327c:	008017c4 	movi	r2,95
 4003280:	18800085 	stb	r2,2(r3)
 4003284:	008015c4 	movi	r2,87
 4003288:	188000c5 	stb	r2,3(r3)
 400328c:	00801044 	movi	r2,65
 4003290:	18800105 	stb	r2,4(r3)
 4003294:	00801484 	movi	r2,82
 4003298:	18800145 	stb	r2,5(r3)
 400329c:	00801384 	movi	r2,78
 40032a0:	18800185 	stb	r2,6(r3)
 40032a4:	00801244 	movi	r2,73
 40032a8:	188001c5 	stb	r2,7(r3)
 40032ac:	00801384 	movi	r2,78
 40032b0:	18800205 	stb	r2,8(r3)
 40032b4:	008011c4 	movi	r2,71
 40032b8:	18800245 	stb	r2,9(r3)
 40032bc:	00801744 	movi	r2,93
 40032c0:	18800285 	stb	r2,10(r3)
 40032c4:	00800804 	movi	r2,32
 40032c8:	188002c5 	stb	r2,11(r3)
 40032cc:	18000305 	stb	zero,12(r3)
            break;
 40032d0:	00001a06 	br	400333c <log_to_file+0x2bc>
        case LOG_T_ERROR:
            strcat(buf, "[T_ERROR] ");
 40032d4:	e43fdc04 	addi	r16,fp,-144
 40032d8:	e13fdc04 	addi	r4,fp,-144
 40032dc:	4007cb80 	call	4007cb8 <strlen>
 40032e0:	8085883a 	add	r2,r16,r2
 40032e4:	1007883a 	mov	r3,r2
 40032e8:	008016c4 	movi	r2,91
 40032ec:	18800005 	stb	r2,0(r3)
 40032f0:	00801504 	movi	r2,84
 40032f4:	18800045 	stb	r2,1(r3)
 40032f8:	008017c4 	movi	r2,95
 40032fc:	18800085 	stb	r2,2(r3)
 4003300:	00801144 	movi	r2,69
 4003304:	188000c5 	stb	r2,3(r3)
 4003308:	00801484 	movi	r2,82
 400330c:	18800105 	stb	r2,4(r3)
 4003310:	00801484 	movi	r2,82
 4003314:	18800145 	stb	r2,5(r3)
 4003318:	008013c4 	movi	r2,79
 400331c:	18800185 	stb	r2,6(r3)
 4003320:	00801484 	movi	r2,82
 4003324:	188001c5 	stb	r2,7(r3)
 4003328:	00801744 	movi	r2,93
 400332c:	18800205 	stb	r2,8(r3)
 4003330:	00800804 	movi	r2,32
 4003334:	18800245 	stb	r2,9(r3)
 4003338:	18000285 	stb	zero,10(r3)
            break;
        default:
            return ;
    }

    log_write_file(buf, strlen(buf), LOG_FILE_NAME);
 400333c:	e13fdc04 	addi	r4,fp,-144
 4003340:	4007cb80 	call	4007cb8 <strlen>
 4003344:	100b883a 	mov	r5,r2
 4003348:	e13fdc04 	addi	r4,fp,-144
 400334c:	01810074 	movhi	r6,1025
 4003350:	31974b04 	addi	r6,r6,23852
 4003354:	40030380 	call	4003038 <log_write_file>
    va_start(args, va_alist);
 4003358:	e0800304 	addi	r2,fp,12
 400335c:	e0bfdb15 	stw	r2,-148(fp)
    memset(buf, 0, sizeof(buf));
 4003360:	e0bfdc04 	addi	r2,fp,-144
 4003364:	1009883a 	mov	r4,r2
 4003368:	01802004 	movi	r6,128
 400336c:	000b883a 	mov	r5,zero
 4003370:	4006da80 	call	4006da8 <memset>
    vsnprintf(buf, sizeof(buf), va_alist, args);
 4003374:	e1ffdb17 	ldw	r7,-148(fp)
 4003378:	e13fdc04 	addi	r4,fp,-144
 400337c:	01402004 	movi	r5,128
 4003380:	e1bffe17 	ldw	r6,-8(fp)
 4003384:	4009d140 	call	4009d14 <vsnprintf>
    log_write_file(buf, strlen(buf), LOG_FILE_NAME);
 4003388:	e13fdc04 	addi	r4,fp,-144
 400338c:	4007cb80 	call	4007cb8 <strlen>
 4003390:	100b883a 	mov	r5,r2
 4003394:	e13fdc04 	addi	r4,fp,-144
 4003398:	01810074 	movhi	r6,1025
 400339c:	31974b04 	addi	r6,r6,23852
 40033a0:	40030380 	call	4003038 <log_write_file>
    va_end(args);
    return ;
}
 40033a4:	e037883a 	mov	sp,fp
 40033a8:	dfc00217 	ldw	ra,8(sp)
 40033ac:	df000117 	ldw	fp,4(sp)
 40033b0:	dc000017 	ldw	r16,0(sp)
 40033b4:	dec00404 	addi	sp,sp,16
 40033b8:	f800283a 	ret

040033bc <log_init>:

#define LOG_INI_FILE "log.ini"

void log_init(void)
{
 40033bc:	deffff04 	addi	sp,sp,-4
 40033c0:	df000015 	stw	fp,0(sp)
 40033c4:	d839883a 	mov	fp,sp

    return ;
}
 40033c8:	e037883a 	mov	sp,fp
 40033cc:	df000017 	ldw	fp,0(sp)
 40033d0:	dec00104 	addi	sp,sp,4
 40033d4:	f800283a 	ret

040033d8 <InitMotorValue>:
void Read4XMotorSpeed(sMotor_s *sMotor);  /* read motor speed */
void Read4XMotorSensor(sMotor_s *sMotor); /* read motor voltage and current */
void MotorTestFun(sMotor_s *sMotor );     /* test motor fundamental function. */
void MotorDriverInit(sMotor_s *sMotor);   /* motor driver init*/

void InitMotorValue(sMotor_s *sMotor){
 40033d8:	defffe04 	addi	sp,sp,-8
 40033dc:	df000115 	stw	fp,4(sp)
 40033e0:	df000104 	addi	fp,sp,4
 40033e4:	e13fff15 	stw	r4,-4(fp)
    sMotor->sMotorAp.iMotorFBEncoder = 0;
 40033e8:	e0bfff17 	ldw	r2,-4(fp)
 40033ec:	10000915 	stw	zero,36(r2)
    sMotor->sMotorAp.ucMotorPWM = 0;
 40033f0:	e0bfff17 	ldw	r2,-4(fp)
 40033f4:	10000705 	stb	zero,28(r2)
    sMotor->sMotorAp.uiCurrent = 0;
 40033f8:	e0bfff17 	ldw	r2,-4(fp)
 40033fc:	10000b15 	stw	zero,44(r2)
    sMotor->sMotorAp.uiMotorFBDir = 0;
 4003400:	e0bfff17 	ldw	r2,-4(fp)
 4003404:	10000515 	stw	zero,20(r2)
    sMotor->sMotorAp.uiMotorFBSpeed = 0;
 4003408:	e0bfff17 	ldw	r2,-4(fp)
 400340c:	10000815 	stw	zero,32(r2)
    sMotor->sMotorAp.uiVoltage = 0;
 4003410:	e0bfff17 	ldw	r2,-4(fp)
 4003414:	10000a15 	stw	zero,40(r2)
    sMotor->sMotorAp.uiMotorFBSpeedAcc = 0; /* feedback Speed accumulate */
 4003418:	e0bfff17 	ldw	r2,-4(fp)
 400341c:	10000e15 	stw	zero,56(r2)
    sMotor->sMotorAp.uiMotorFBSpeedAccCnt = 0; /* feedback Speed accumulate counter*/
 4003420:	e0bfff17 	ldw	r2,-4(fp)
 4003424:	10000f15 	stw	zero,60(r2)
    sMotor->sMotorAp.uiMotorFBVoltageAcc = 0; /* feedback voltage  accumulate */
 4003428:	e0bfff17 	ldw	r2,-4(fp)
 400342c:	10001015 	stw	zero,64(r2)
    sMotor->sMotorAp.uiMotorFBVoltageAccCnt=0; /* feedback Voltage accumulate counter*/
 4003430:	e0bfff17 	ldw	r2,-4(fp)
 4003434:	10001115 	stw	zero,68(r2)
    sMotor->sMotorAp.uiMotorFBCurrentAcc = 0; /* feedback Current accumulate */
 4003438:	e0bfff17 	ldw	r2,-4(fp)
 400343c:	10001215 	stw	zero,72(r2)
    sMotor->sMotorAp.uiMotorFBCurrentAccCnt = 0; /* feedback Current accumulate counter*/
 4003440:	e0bfff17 	ldw	r2,-4(fp)
 4003444:	10001315 	stw	zero,76(r2)
    sMotor->sMotorAp.uiHostMotorDirCmd = 0;
 4003448:	e0bfff17 	ldw	r2,-4(fp)
 400344c:	10000d15 	stw	zero,52(r2)
    sMotor->sMotorAp.uiHostMotorSpdCmd = 0;
 4003450:	e0bfff17 	ldw	r2,-4(fp)
 4003454:	10000c15 	stw	zero,48(r2)


    sMotor->sMotorBp.iMotorFBEncoder = 0;
 4003458:	e0bfff17 	ldw	r2,-4(fp)
 400345c:	10001815 	stw	zero,96(r2)
    sMotor->sMotorBp.ucMotorPWM = 0;
 4003460:	e0bfff17 	ldw	r2,-4(fp)
 4003464:	10001605 	stb	zero,88(r2)
    sMotor->sMotorBp.uiCurrent = 0;
 4003468:	e0bfff17 	ldw	r2,-4(fp)
 400346c:	10001a15 	stw	zero,104(r2)
    sMotor->sMotorBp.uiMotorFBDir = 0;
 4003470:	e0bfff17 	ldw	r2,-4(fp)
 4003474:	10001415 	stw	zero,80(r2)
    sMotor->sMotorBp.uiMotorFBSpeed = 0;
 4003478:	e0bfff17 	ldw	r2,-4(fp)
 400347c:	10001715 	stw	zero,92(r2)
    sMotor->sMotorBp.uiVoltage = 0;
 4003480:	e0bfff17 	ldw	r2,-4(fp)
 4003484:	10001915 	stw	zero,100(r2)
    sMotor->sMotorBp.uiMotorFBSpeedAcc = 0; /* feedback Speed accumulate */
 4003488:	e0bfff17 	ldw	r2,-4(fp)
 400348c:	10001d15 	stw	zero,116(r2)
    sMotor->sMotorBp.uiMotorFBSpeedAccCnt = 0; /* feedback Speed accumulate counter*/
 4003490:	e0bfff17 	ldw	r2,-4(fp)
 4003494:	10001e15 	stw	zero,120(r2)
    sMotor->sMotorBp.uiMotorFBVoltageAcc = 0; /* feedback voltage  accumulate */
 4003498:	e0bfff17 	ldw	r2,-4(fp)
 400349c:	10001f15 	stw	zero,124(r2)
    sMotor->sMotorBp.uiMotorFBVoltageAccCnt=0; /* feedback Voltage accumulate counter*/
 40034a0:	e0bfff17 	ldw	r2,-4(fp)
 40034a4:	10002015 	stw	zero,128(r2)
    sMotor->sMotorBp.uiMotorFBCurrentAcc = 0; /* feedback Current accumulate */
 40034a8:	e0bfff17 	ldw	r2,-4(fp)
 40034ac:	10002115 	stw	zero,132(r2)
    sMotor->sMotorBp.uiMotorFBCurrentAccCnt = 0; /* feedback Current accumulate counter*/
 40034b0:	e0bfff17 	ldw	r2,-4(fp)
 40034b4:	10002215 	stw	zero,136(r2)
    sMotor->sMotorBp.uiHostMotorDirCmd = 0;
 40034b8:	e0bfff17 	ldw	r2,-4(fp)
 40034bc:	10001c15 	stw	zero,112(r2)
    sMotor->sMotorBp.uiHostMotorSpdCmd = 0;
 40034c0:	e0bfff17 	ldw	r2,-4(fp)
 40034c4:	10001b15 	stw	zero,108(r2)

    sMotor->sMotorCp.iMotorFBEncoder = 0;
 40034c8:	e0bfff17 	ldw	r2,-4(fp)
 40034cc:	10002715 	stw	zero,156(r2)
    sMotor->sMotorCp.ucMotorPWM = 0;
 40034d0:	e0bfff17 	ldw	r2,-4(fp)
 40034d4:	10002505 	stb	zero,148(r2)
    sMotor->sMotorCp.uiCurrent = 0;
 40034d8:	e0bfff17 	ldw	r2,-4(fp)
 40034dc:	10002915 	stw	zero,164(r2)
    sMotor->sMotorCp.uiMotorFBDir = 0;
 40034e0:	e0bfff17 	ldw	r2,-4(fp)
 40034e4:	10002315 	stw	zero,140(r2)
    sMotor->sMotorCp.uiMotorFBSpeed = 0;
 40034e8:	e0bfff17 	ldw	r2,-4(fp)
 40034ec:	10002615 	stw	zero,152(r2)
    sMotor->sMotorCp.uiVoltage = 0;
 40034f0:	e0bfff17 	ldw	r2,-4(fp)
 40034f4:	10002815 	stw	zero,160(r2)
    sMotor->sMotorCp.uiMotorFBSpeedAcc = 0; /* feedback Speed accumulate */
 40034f8:	e0bfff17 	ldw	r2,-4(fp)
 40034fc:	10002c15 	stw	zero,176(r2)
    sMotor->sMotorCp.uiMotorFBSpeedAccCnt = 0; /* feedback Speed accumulate counter*/
 4003500:	e0bfff17 	ldw	r2,-4(fp)
 4003504:	10002d15 	stw	zero,180(r2)
    sMotor->sMotorCp.uiMotorFBVoltageAcc = 0; /* feedback voltage  accumulate */
 4003508:	e0bfff17 	ldw	r2,-4(fp)
 400350c:	10002e15 	stw	zero,184(r2)
    sMotor->sMotorCp.uiMotorFBVoltageAccCnt=0; /* feedback Voltage accumulate counter*/
 4003510:	e0bfff17 	ldw	r2,-4(fp)
 4003514:	10002f15 	stw	zero,188(r2)
    sMotor->sMotorCp.uiMotorFBCurrentAcc = 0; /* feedback Current accumulate */
 4003518:	e0bfff17 	ldw	r2,-4(fp)
 400351c:	10003015 	stw	zero,192(r2)
    sMotor->sMotorCp.uiMotorFBCurrentAccCnt = 0; /* feedback Current accumulate counter*/
 4003520:	e0bfff17 	ldw	r2,-4(fp)
 4003524:	10003115 	stw	zero,196(r2)
    sMotor->sMotorCp.uiHostMotorDirCmd = 0;
 4003528:	e0bfff17 	ldw	r2,-4(fp)
 400352c:	10002b15 	stw	zero,172(r2)
    sMotor->sMotorCp.uiHostMotorSpdCmd = 0;
 4003530:	e0bfff17 	ldw	r2,-4(fp)
 4003534:	10002a15 	stw	zero,168(r2)

    sMotor->sMotorDp.iMotorFBEncoder = 0;
 4003538:	e0bfff17 	ldw	r2,-4(fp)
 400353c:	10003615 	stw	zero,216(r2)
    sMotor->sMotorDp.ucMotorPWM = 0;
 4003540:	e0bfff17 	ldw	r2,-4(fp)
 4003544:	10003405 	stb	zero,208(r2)
    sMotor->sMotorDp.uiCurrent = 0;
 4003548:	e0bfff17 	ldw	r2,-4(fp)
 400354c:	10003815 	stw	zero,224(r2)
    sMotor->sMotorDp.uiMotorFBDir = 0;
 4003550:	e0bfff17 	ldw	r2,-4(fp)
 4003554:	10003215 	stw	zero,200(r2)
    sMotor->sMotorDp.uiMotorFBSpeed = 0;
 4003558:	e0bfff17 	ldw	r2,-4(fp)
 400355c:	10003515 	stw	zero,212(r2)
    sMotor->sMotorDp.uiVoltage = 0;
 4003560:	e0bfff17 	ldw	r2,-4(fp)
 4003564:	10003715 	stw	zero,220(r2)
    sMotor->sMotorDp.uiMotorFBSpeedAcc = 0; /* feedback Speed accumulate */
 4003568:	e0bfff17 	ldw	r2,-4(fp)
 400356c:	10003b15 	stw	zero,236(r2)
    sMotor->sMotorDp.uiMotorFBSpeedAccCnt = 0; /* feedback Speed accumulate counter*/
 4003570:	e0bfff17 	ldw	r2,-4(fp)
 4003574:	10003c15 	stw	zero,240(r2)
    sMotor->sMotorDp.uiMotorFBVoltageAcc = 0; /* feedback voltage  accumulate */
 4003578:	e0bfff17 	ldw	r2,-4(fp)
 400357c:	10003d15 	stw	zero,244(r2)
    sMotor->sMotorDp.uiMotorFBVoltageAccCnt=0; /* feedback Voltage accumulate counter*/
 4003580:	e0bfff17 	ldw	r2,-4(fp)
 4003584:	10003e15 	stw	zero,248(r2)
    sMotor->sMotorDp.uiMotorFBCurrentAcc = 0; /* feedback Current accumulate */
 4003588:	e0bfff17 	ldw	r2,-4(fp)
 400358c:	10003f15 	stw	zero,252(r2)
    sMotor->sMotorDp.uiMotorFBCurrentAccCnt = 0; /* feedback Current accumulate counter*/
 4003590:	e0bfff17 	ldw	r2,-4(fp)
 4003594:	10004015 	stw	zero,256(r2)
    sMotor->sMotorDp.uiHostMotorDirCmd = 0;
 4003598:	e0bfff17 	ldw	r2,-4(fp)
 400359c:	10003a15 	stw	zero,232(r2)
    sMotor->sMotorDp.uiHostMotorSpdCmd = 0;
 40035a0:	e0bfff17 	ldw	r2,-4(fp)
 40035a4:	10003915 	stw	zero,228(r2)
}
 40035a8:	e037883a 	mov	sp,fp
 40035ac:	df000017 	ldw	fp,0(sp)
 40035b0:	dec00104 	addi	sp,sp,4
 40035b4:	f800283a 	ret

040035b8 <MotorDriverInit>:

void MotorDriverInit(sMotor_s *sMotor){
 40035b8:	defffc04 	addi	sp,sp,-16
 40035bc:	dfc00315 	stw	ra,12(sp)
 40035c0:	df000215 	stw	fp,8(sp)
 40035c4:	df000204 	addi	fp,sp,8
 40035c8:	e13fff15 	stw	r4,-4(fp)
    Send4XwheelPwm(sMotor, 0, 0, 0, 0);  /* Stop 4 wheel PWM */
 40035cc:	d8000015 	stw	zero,0(sp)
 40035d0:	e13fff17 	ldw	r4,-4(fp)
 40035d4:	000b883a 	mov	r5,zero
 40035d8:	000d883a 	mov	r6,zero
 40035dc:	000f883a 	mov	r7,zero
 40035e0:	40036e80 	call	40036e8 <Send4XwheelPwm>
    Send4XwheelDir(sMotor, 0, 0, 0, 0);  /* send 4 wheel direction */
 40035e4:	d8000015 	stw	zero,0(sp)
 40035e8:	e13fff17 	ldw	r4,-4(fp)
 40035ec:	000b883a 	mov	r5,zero
 40035f0:	000d883a 	mov	r6,zero
 40035f4:	000f883a 	mov	r7,zero
 40035f8:	40037a40 	call	40037a4 <Send4XwheelDir>
    usleep(1000);
 40035fc:	0100fa04 	movi	r4,1000
 4003600:	4010d9c0 	call	4010d9c <usleep>
    Send2XMotorDriverEnable(sMotor, 1, 1);    /* enable motor driver */
 4003604:	e13fff17 	ldw	r4,-4(fp)
 4003608:	01400044 	movi	r5,1
 400360c:	01800044 	movi	r6,1
 4003610:	400381c0 	call	400381c <Send2XMotorDriverEnable>
    Send4XClrMotorEncoder(sMotor, 1, 1, 1, 1); /* send clear feedback counter */
 4003614:	00800044 	movi	r2,1
 4003618:	d8800015 	stw	r2,0(sp)
 400361c:	e13fff17 	ldw	r4,-4(fp)
 4003620:	01400044 	movi	r5,1
 4003624:	01800044 	movi	r6,1
 4003628:	01c00044 	movi	r7,1
 400362c:	40038c00 	call	40038c0 <Send4XClrMotorEncoder>
    IOWR(SYSREG_BASE, 3, 0);    /* clear 03 register (MotorControl)*/
 4003630:	00860304 	movi	r2,6156
 4003634:	10000035 	stwio	zero,0(r2)
    InitMotorValue(sMotor);
 4003638:	e13fff17 	ldw	r4,-4(fp)
 400363c:	40033d80 	call	40033d8 <InitMotorValue>
}
 4003640:	e037883a 	mov	sp,fp
 4003644:	dfc00117 	ldw	ra,4(sp)
 4003648:	df000017 	ldw	fp,0(sp)
 400364c:	dec00204 	addi	sp,sp,8
 4003650:	f800283a 	ret

04003654 <MotorTestFun>:

/* 馬達測試程式  */
void MotorTestFun(sMotor_s *sMotor ){
 4003654:	defffc04 	addi	sp,sp,-16
 4003658:	dfc00315 	stw	ra,12(sp)
 400365c:	df000215 	stw	fp,8(sp)
 4003660:	df000204 	addi	fp,sp,8
 4003664:	e13fff15 	stw	r4,-4(fp)

    LOGD("This is motor test function !\n");

    Send4XwheelDir(sMotor, 0,1,1,1);    /* send motor direction, 0:CW, 1:CCW  */
 4003668:	00800044 	movi	r2,1
 400366c:	d8800015 	stw	r2,0(sp)
 4003670:	e13fff17 	ldw	r4,-4(fp)
 4003674:	000b883a 	mov	r5,zero
 4003678:	01800044 	movi	r6,1
 400367c:	01c00044 	movi	r7,1
 4003680:	40037a40 	call	40037a4 <Send4XwheelDir>
    Send4XwheelPwm(sMotor, 100,0,0,0);  /* send motor PWM duty cycle, 0~100 */
 4003684:	d8000015 	stw	zero,0(sp)
 4003688:	e13fff17 	ldw	r4,-4(fp)
 400368c:	01401904 	movi	r5,100
 4003690:	000d883a 	mov	r6,zero
 4003694:	000f883a 	mov	r7,zero
 4003698:	40036e80 	call	40036e8 <Send4XwheelPwm>
    Send2XMotorDriverEnable(sMotor,1, 1);  /* open motor driver, 1: enable, 0: disable */
 400369c:	e13fff17 	ldw	r4,-4(fp)
 40036a0:	01400044 	movi	r5,1
 40036a4:	01800044 	movi	r6,1
 40036a8:	400381c0 	call	400381c <Send2XMotorDriverEnable>
    usleep(10000);  /* delay time */
 40036ac:	0109c404 	movi	r4,10000
 40036b0:	4010d9c0 	call	4010d9c <usleep>
    Read4XMotorDir( sMotor);    /* read motor feed back direction */
 40036b4:	e13fff17 	ldw	r4,-4(fp)
 40036b8:	4003a340 	call	4003a34 <Read4XMotorDir>
    Read4XMotorEncoder( sMotor);/* read motor feedback encoder */
 40036bc:	e13fff17 	ldw	r4,-4(fp)
 40036c0:	4003ab80 	call	4003ab8 <Read4XMotorEncoder>
    Read4XMotorSpeed(sMotor);  /* read motor speed */
 40036c4:	e13fff17 	ldw	r4,-4(fp)
 40036c8:	4003b180 	call	4003b18 <Read4XMotorSpeed>
    Read4XMotorSensor(sMotor); /* read motor voltage and current */
 40036cc:	e13fff17 	ldw	r4,-4(fp)
 40036d0:	4003d680 	call	4003d68 <Read4XMotorSensor>
//    Read4XMotorEncoder( sMotor);/* read motor feedback encoder */
//    Read4XMotorSpeed( sMotor);  /* read motor speed */
//    Read4XMotorSensor( sMotor); /* read motor voltage and current */
//    LOGD("===============================\n");

}
 40036d4:	e037883a 	mov	sp,fp
 40036d8:	dfc00117 	ldw	ra,4(sp)
 40036dc:	df000017 	ldw	fp,0(sp)
 40036e0:	dec00204 	addi	sp,sp,8
 40036e4:	f800283a 	ret

040036e8 <Send4XwheelPwm>:

void Send4XwheelPwm(sMotor_s *sMotor, unsigned int PWM1, unsigned int PWM2,
                   unsigned int PWM3, unsigned int PWM4){
 40036e8:	defffa04 	addi	sp,sp,-24
 40036ec:	df000515 	stw	fp,20(sp)
 40036f0:	df000504 	addi	fp,sp,20
 40036f4:	e13ffc15 	stw	r4,-16(fp)
 40036f8:	e17ffd15 	stw	r5,-12(fp)
 40036fc:	e1bffe15 	stw	r6,-8(fp)
 4003700:	e1ffff15 	stw	r7,-4(fp)
	unsigned int PMWDuty;

	PMWDuty = TRIGGER | PWM1| (PWM2<<7) | (PWM3<<14) | (PWM4<<21);
 4003704:	e0bffe17 	ldw	r2,-8(fp)
 4003708:	100691fa 	slli	r3,r2,7
 400370c:	e0bffd17 	ldw	r2,-12(fp)
 4003710:	1886b03a 	or	r3,r3,r2
 4003714:	e0bfff17 	ldw	r2,-4(fp)
 4003718:	100493ba 	slli	r2,r2,14
 400371c:	1886b03a 	or	r3,r3,r2
 4003720:	e0800117 	ldw	r2,4(fp)
 4003724:	1004957a 	slli	r2,r2,21
 4003728:	1884b03a 	or	r2,r3,r2
 400372c:	10a00034 	orhi	r2,r2,32768
 4003730:	e0bffb15 	stw	r2,-20(fp)
//	LOGD("0x%x\n", PWM1);
	IOWR(SYSREG_BASE, 0, PMWDuty); /* write PWM duty */
 4003734:	e0fffb17 	ldw	r3,-20(fp)
 4003738:	00860004 	movi	r2,6144
 400373c:	10c00035 	stwio	r3,0(r2)
	IOWR(SYSREG_BASE, 0, 0);       /* set trigger to 0 */
 4003740:	00860004 	movi	r2,6144
 4003744:	10000035 	stwio	zero,0(r2)
	sMotor->uiR00MotorPWMduty = PMWDuty;
 4003748:	e0fffc17 	ldw	r3,-16(fp)
 400374c:	e0bffb17 	ldw	r2,-20(fp)
 4003750:	18800115 	stw	r2,4(r3)
	/* record pWM*/
	sMotor->sMotorAp.ucMotorPWM = PWM1;
 4003754:	e0bffd17 	ldw	r2,-12(fp)
 4003758:	1007883a 	mov	r3,r2
 400375c:	e0bffc17 	ldw	r2,-16(fp)
 4003760:	10c00705 	stb	r3,28(r2)
    sMotor->sMotorBp.ucMotorPWM = PWM2;
 4003764:	e0bffe17 	ldw	r2,-8(fp)
 4003768:	1007883a 	mov	r3,r2
 400376c:	e0bffc17 	ldw	r2,-16(fp)
 4003770:	10c01605 	stb	r3,88(r2)
    sMotor->sMotorCp.ucMotorPWM = PWM3;
 4003774:	e0bfff17 	ldw	r2,-4(fp)
 4003778:	1007883a 	mov	r3,r2
 400377c:	e0bffc17 	ldw	r2,-16(fp)
 4003780:	10c02505 	stb	r3,148(r2)
    sMotor->sMotorDp.ucMotorPWM = PWM4;
 4003784:	e0800117 	ldw	r2,4(fp)
 4003788:	1007883a 	mov	r3,r2
 400378c:	e0bffc17 	ldw	r2,-16(fp)
 4003790:	10c03405 	stb	r3,208(r2)
                                 sMotor->sMotorAp.ucMotorPWM, \
                                 sMotor->sMotorBp.ucMotorPWM, \
                                 sMotor->sMotorCp.ucMotorPWM, \
                                 sMotor->sMotorDp.ucMotorPWM);
#endif
}
 4003794:	e037883a 	mov	sp,fp
 4003798:	df000017 	ldw	fp,0(sp)
 400379c:	dec00104 	addi	sp,sp,4
 40037a0:	f800283a 	ret

040037a4 <Send4XwheelDir>:

void Send4XwheelDir(sMotor_s *sMotor, unsigned int uiWheelDir1, unsigned int uiWheelDir2,
                   unsigned int uiWheelDir3, unsigned int uiWheelDir4){
 40037a4:	defffa04 	addi	sp,sp,-24
 40037a8:	df000515 	stw	fp,20(sp)
 40037ac:	df000504 	addi	fp,sp,20
 40037b0:	e13ffc15 	stw	r4,-16(fp)
 40037b4:	e17ffd15 	stw	r5,-12(fp)
 40037b8:	e1bffe15 	stw	r6,-8(fp)
 40037bc:	e1ffff15 	stw	r7,-4(fp)
	unsigned int uiRegData;

	uiRegData = uiWheelDir1 | (uiWheelDir2<<2) | (uiWheelDir3<<4) | (uiWheelDir4<<6);
 40037c0:	e0bffe17 	ldw	r2,-8(fp)
 40037c4:	1085883a 	add	r2,r2,r2
 40037c8:	1085883a 	add	r2,r2,r2
 40037cc:	1007883a 	mov	r3,r2
 40037d0:	e0bffd17 	ldw	r2,-12(fp)
 40037d4:	1886b03a 	or	r3,r3,r2
 40037d8:	e0bfff17 	ldw	r2,-4(fp)
 40037dc:	1004913a 	slli	r2,r2,4
 40037e0:	1886b03a 	or	r3,r3,r2
 40037e4:	e0800117 	ldw	r2,4(fp)
 40037e8:	100491ba 	slli	r2,r2,6
 40037ec:	1884b03a 	or	r2,r3,r2
 40037f0:	e0bffb15 	stw	r2,-20(fp)
	IOWR(SYSREG_BASE, 1, uiRegData); /* write motor direction register */
 40037f4:	e0fffb17 	ldw	r3,-20(fp)
 40037f8:	00860104 	movi	r2,6148
 40037fc:	10c00035 	stwio	r3,0(r2)
	sMotor->uiR01MotorDriverDirection = uiRegData;
 4003800:	e0fffc17 	ldw	r3,-16(fp)
 4003804:	e0bffb17 	ldw	r2,-20(fp)
 4003808:	18800215 	stw	r2,8(r3)
        LOGD("D(CW). \n");
    }else {
        LOGD("D(CCW). \n");
    }
#endif
}
 400380c:	e037883a 	mov	sp,fp
 4003810:	df000017 	ldw	fp,0(sp)
 4003814:	dec00104 	addi	sp,sp,4
 4003818:	f800283a 	ret

0400381c <Send2XMotorDriverEnable>:

void Send2XMotorDriverEnable(sMotor_s *sMotor, unsigned int uiDriver1, unsigned int uiDriver2){
 400381c:	defffb04 	addi	sp,sp,-20
 4003820:	df000415 	stw	fp,16(sp)
 4003824:	df000404 	addi	fp,sp,16
 4003828:	e13ffd15 	stw	r4,-12(fp)
 400382c:	e17ffe15 	stw	r5,-8(fp)
 4003830:	e1bfff15 	stw	r6,-4(fp)
    unsigned int uiRegData;

    uiRegData = IORD(SYSREG_BASE, 3); /* read motor control register */
 4003834:	00860304 	movi	r2,6156
 4003838:	10800037 	ldwio	r2,0(r2)
 400383c:	e0bffc15 	stw	r2,-16(fp)
    if(uiDriver1 > 0){
 4003840:	e0bffe17 	ldw	r2,-8(fp)
 4003844:	1005003a 	cmpeq	r2,r2,zero
 4003848:	1000041e 	bne	r2,zero,400385c <Send2XMotorDriverEnable+0x40>
        uiRegData = uiRegData | 0x00000100; /* set driver 1 flag */
 400384c:	e0bffc17 	ldw	r2,-16(fp)
 4003850:	10804014 	ori	r2,r2,256
 4003854:	e0bffc15 	stw	r2,-16(fp)
 4003858:	00000406 	br	400386c <Send2XMotorDriverEnable+0x50>
    }else {
        uiRegData = uiRegData & 0xfffffeff; /* clear flag */
 400385c:	e0bffc17 	ldw	r2,-16(fp)
 4003860:	00ffbfc4 	movi	r3,-257
 4003864:	10c4703a 	and	r2,r2,r3
 4003868:	e0bffc15 	stw	r2,-16(fp)
    }
    if(uiDriver2 > 0){
 400386c:	e0bfff17 	ldw	r2,-4(fp)
 4003870:	1005003a 	cmpeq	r2,r2,zero
 4003874:	1000041e 	bne	r2,zero,4003888 <Send2XMotorDriverEnable+0x6c>
        uiRegData = uiRegData | 0x00000200; /* set driver 2 flag */
 4003878:	e0bffc17 	ldw	r2,-16(fp)
 400387c:	10808014 	ori	r2,r2,512
 4003880:	e0bffc15 	stw	r2,-16(fp)
 4003884:	00000406 	br	4003898 <Send2XMotorDriverEnable+0x7c>
    }else {
        uiRegData = uiRegData & 0xfffffdff; /* clear driver 2 flag */
 4003888:	e0bffc17 	ldw	r2,-16(fp)
 400388c:	00ff7fc4 	movi	r3,-513
 4003890:	10c4703a 	and	r2,r2,r3
 4003894:	e0bffc15 	stw	r2,-16(fp)
    }

//  LOGD("0x%x\n", uiRegData);
    IOWR(SYSREG_BASE, 3, uiRegData); /* write PWM duty */
 4003898:	e0fffc17 	ldw	r3,-16(fp)
 400389c:	00860304 	movi	r2,6156
 40038a0:	10c00035 	stwio	r3,0(r2)
    sMotor->uiR03MotorControl = uiRegData; /* store R03 */
 40038a4:	e0fffd17 	ldw	r3,-12(fp)
 40038a8:	e0bffc17 	ldw	r2,-16(fp)
 40038ac:	18800415 	stw	r2,16(r3)
        }else {
            LOGD(" Disable(#1, #2).\n");
        }
    }
#endif
}
 40038b0:	e037883a 	mov	sp,fp
 40038b4:	df000017 	ldw	fp,0(sp)
 40038b8:	dec00104 	addi	sp,sp,4
 40038bc:	f800283a 	ret

040038c0 <Send4XClrMotorEncoder>:

void Send4XClrMotorEncoder(sMotor_s *sMotor, unsigned int uiME1, unsigned int uiME2,
                         unsigned int uiME3, unsigned int uiME4){
 40038c0:	defff904 	addi	sp,sp,-28
 40038c4:	dfc00615 	stw	ra,24(sp)
 40038c8:	df000515 	stw	fp,20(sp)
 40038cc:	df000504 	addi	fp,sp,20
 40038d0:	e13ffc15 	stw	r4,-16(fp)
 40038d4:	e17ffd15 	stw	r5,-12(fp)
 40038d8:	e1bffe15 	stw	r6,-8(fp)
 40038dc:	e1ffff15 	stw	r7,-4(fp)
        [3]: clear Top motor feedback Accumulate counter
        [8]: 1: driver 1 enable, 0: driver 1 disable
        [9]: 1: driver 2 enable, 0: driver 2 disable
*/

    uiRegData = IORD(SYSREG_BASE, 3); /* read motor control register */
 40038e0:	00860304 	movi	r2,6156
 40038e4:	10800037 	ldwio	r2,0(r2)
 40038e8:	e0bffb15 	stw	r2,-20(fp)
    if(uiME1 > 0){
 40038ec:	e0bffd17 	ldw	r2,-12(fp)
 40038f0:	1005003a 	cmpeq	r2,r2,zero
 40038f4:	1000041e 	bne	r2,zero,4003908 <Send4XClrMotorEncoder+0x48>
        uiRegData = uiRegData | 0x01;       /* send clear motor A encoder counter command */
 40038f8:	e0bffb17 	ldw	r2,-20(fp)
 40038fc:	10800054 	ori	r2,r2,1
 4003900:	e0bffb15 	stw	r2,-20(fp)
 4003904:	00000406 	br	4003918 <Send4XClrMotorEncoder+0x58>
    }else {
        uiRegData = uiRegData & 0xFFFFFFFE; /* close clear motor A encoder counter command */
 4003908:	e0bffb17 	ldw	r2,-20(fp)
 400390c:	00ffff84 	movi	r3,-2
 4003910:	10c4703a 	and	r2,r2,r3
 4003914:	e0bffb15 	stw	r2,-20(fp)
    }
    if(uiME2 > 0){
 4003918:	e0bffe17 	ldw	r2,-8(fp)
 400391c:	1005003a 	cmpeq	r2,r2,zero
 4003920:	1000041e 	bne	r2,zero,4003934 <Send4XClrMotorEncoder+0x74>
        uiRegData = uiRegData | 0x02;       /* send clear motor B encoder counter command */
 4003924:	e0bffb17 	ldw	r2,-20(fp)
 4003928:	10800094 	ori	r2,r2,2
 400392c:	e0bffb15 	stw	r2,-20(fp)
 4003930:	00000406 	br	4003944 <Send4XClrMotorEncoder+0x84>
    }else {
        uiRegData = uiRegData & 0xFFFFFFFD; /* close clear motor B encoder counter command */
 4003934:	e0bffb17 	ldw	r2,-20(fp)
 4003938:	00ffff44 	movi	r3,-3
 400393c:	10c4703a 	and	r2,r2,r3
 4003940:	e0bffb15 	stw	r2,-20(fp)
    }
    if(uiME3 > 0){
 4003944:	e0bfff17 	ldw	r2,-4(fp)
 4003948:	1005003a 	cmpeq	r2,r2,zero
 400394c:	1000041e 	bne	r2,zero,4003960 <Send4XClrMotorEncoder+0xa0>
        uiRegData = uiRegData | 0x04; /* close clear motor C encoder counter command */
 4003950:	e0bffb17 	ldw	r2,-20(fp)
 4003954:	10800114 	ori	r2,r2,4
 4003958:	e0bffb15 	stw	r2,-20(fp)
 400395c:	00000406 	br	4003970 <Send4XClrMotorEncoder+0xb0>
    }else {
        uiRegData = uiRegData & 0xFFFFFFFB; /* close clear motor C encoder counter command */
 4003960:	e0bffb17 	ldw	r2,-20(fp)
 4003964:	00fffec4 	movi	r3,-5
 4003968:	10c4703a 	and	r2,r2,r3
 400396c:	e0bffb15 	stw	r2,-20(fp)
    }
    if(uiME4 > 0){
 4003970:	e0800217 	ldw	r2,8(fp)
 4003974:	1005003a 	cmpeq	r2,r2,zero
 4003978:	1000041e 	bne	r2,zero,400398c <Send4XClrMotorEncoder+0xcc>
        uiRegData = uiRegData | 0x08;       /* send clear motor D encoder counter command */
 400397c:	e0bffb17 	ldw	r2,-20(fp)
 4003980:	10800214 	ori	r2,r2,8
 4003984:	e0bffb15 	stw	r2,-20(fp)
 4003988:	00000406 	br	400399c <Send4XClrMotorEncoder+0xdc>
    }else {
        uiRegData = uiRegData & 0xFFFFFFF7; /* close clear motor D encoder counter command */
 400398c:	e0bffb17 	ldw	r2,-20(fp)
 4003990:	00fffdc4 	movi	r3,-9
 4003994:	10c4703a 	and	r2,r2,r3
 4003998:	e0bffb15 	stw	r2,-20(fp)
    }

//  LOGD("0x%x\n", iRegData);
    IOWR(SYSREG_BASE, 3, uiRegData); /* send clear motor encoder command  */
 400399c:	e0fffb17 	ldw	r3,-20(fp)
 40039a0:	00860304 	movi	r2,6156
 40039a4:	10c00035 	stwio	r3,0(r2)
    usleep(1);
 40039a8:	01000044 	movi	r4,1
 40039ac:	4010d9c0 	call	4010d9c <usleep>
    IOWR(SYSREG_BASE, 3, uiRegData&0xfffffff0); /* close clear motor encoder command  */
 40039b0:	e0fffb17 	ldw	r3,-20(fp)
 40039b4:	00bffc04 	movi	r2,-16
 40039b8:	1886703a 	and	r3,r3,r2
 40039bc:	00860304 	movi	r2,6156
 40039c0:	10c00035 	stwio	r3,0(r2)
    sMotor->uiR03MotorControl = uiRegData; /* store R03 */
 40039c4:	e0fffc17 	ldw	r3,-16(fp)
 40039c8:	e0bffb17 	ldw	r2,-20(fp)
 40039cc:	18800415 	stw	r2,16(r3)
        LOGD(" #D(1)\n ");
    }else {
        LOGD(" #D(0)\n ");
    }
#endif
}
 40039d0:	e037883a 	mov	sp,fp
 40039d4:	dfc00117 	ldw	ra,4(sp)
 40039d8:	df000017 	ldw	fp,0(sp)
 40039dc:	dec00204 	addi	sp,sp,8
 40039e0:	f800283a 	ret

040039e4 <ClearMotorSensorFifo>:

void ClearMotorSensorFifo(sMotor_s *sMotor, unsigned int uiME1, unsigned int uiME2,
                         unsigned int uiME3, unsigned int uiME4){
 40039e4:	defffa04 	addi	sp,sp,-24
 40039e8:	dfc00515 	stw	ra,20(sp)
 40039ec:	df000415 	stw	fp,16(sp)
 40039f0:	df000404 	addi	fp,sp,16
 40039f4:	e13ffc15 	stw	r4,-16(fp)
 40039f8:	e17ffd15 	stw	r5,-12(fp)
 40039fc:	e1bffe15 	stw	r6,-8(fp)
 4003a00:	e1ffff15 	stw	r7,-4(fp)
    IOWR(SYSREG_BASE, 3, 0x80000000); /* send [31] clear fifo command */
 4003a04:	00860304 	movi	r2,6156
 4003a08:	00e00034 	movhi	r3,32768
 4003a0c:	10c00035 	stwio	r3,0(r2)
    usleep(1);
 4003a10:	01000044 	movi	r4,1
 4003a14:	4010d9c0 	call	4010d9c <usleep>
    IOWR(SYSREG_BASE, 3, 0x00000000); /* send [31] clear fifo command */
 4003a18:	00860304 	movi	r2,6156
 4003a1c:	10000035 	stwio	zero,0(r2)
#ifdef DEBUG_MESSAGE
    LOGD("[Motor Msg][CMD] Clear Motor Sensor fifo completed.\n");
#endif
}
 4003a20:	e037883a 	mov	sp,fp
 4003a24:	dfc00117 	ldw	ra,4(sp)
 4003a28:	df000017 	ldw	fp,0(sp)
 4003a2c:	dec00204 	addi	sp,sp,8
 4003a30:	f800283a 	ret

04003a34 <Read4XMotorDir>:

void Read4XMotorDir(sMotor_s *sMotor){
 4003a34:	defffd04 	addi	sp,sp,-12
 4003a38:	df000215 	stw	fp,8(sp)
 4003a3c:	df000204 	addi	fp,sp,8
 4003a40:	e13fff15 	stw	r4,-4(fp)
    unsigned int uiMotorFBDir;

    uiMotorFBDir = IORD(SYSREG_BASE, 2);
 4003a44:	00860204 	movi	r2,6152
 4003a48:	10800037 	ldwio	r2,0(r2)
 4003a4c:	e0bffe15 	stw	r2,-8(fp)
    sMotor->uiR02MotorFBDir = uiMotorFBDir;
 4003a50:	e0ffff17 	ldw	r3,-4(fp)
 4003a54:	e0bffe17 	ldw	r2,-8(fp)
 4003a58:	18800315 	stw	r2,12(r3)
    sMotor->sMotorAp.uiMotorFBDir = uiMotorFBDir      & 0x01;
 4003a5c:	e0bffe17 	ldw	r2,-8(fp)
 4003a60:	10c0004c 	andi	r3,r2,1
 4003a64:	e0bfff17 	ldw	r2,-4(fp)
 4003a68:	10c00515 	stw	r3,20(r2)
    sMotor->sMotorBp.uiMotorFBDir = (uiMotorFBDir>>1) & 0x01;
 4003a6c:	e0bffe17 	ldw	r2,-8(fp)
 4003a70:	1004d07a 	srli	r2,r2,1
 4003a74:	10c0004c 	andi	r3,r2,1
 4003a78:	e0bfff17 	ldw	r2,-4(fp)
 4003a7c:	10c01415 	stw	r3,80(r2)
    sMotor->sMotorCp.uiMotorFBDir = (uiMotorFBDir>>2) & 0x01;
 4003a80:	e0bffe17 	ldw	r2,-8(fp)
 4003a84:	1004d0ba 	srli	r2,r2,2
 4003a88:	10c0004c 	andi	r3,r2,1
 4003a8c:	e0bfff17 	ldw	r2,-4(fp)
 4003a90:	10c02315 	stw	r3,140(r2)
    sMotor->sMotorDp.uiMotorFBDir = (uiMotorFBDir>>3) & 0x01;
 4003a94:	e0bffe17 	ldw	r2,-8(fp)
 4003a98:	1004d0fa 	srli	r2,r2,3
 4003a9c:	10c0004c 	andi	r3,r2,1
 4003aa0:	e0bfff17 	ldw	r2,-4(fp)
 4003aa4:	10c03215 	stw	r3,200(r2)
    LOGD("A(%6d), B(%6d), C(%6d), D(%6d).\n", sMotor->sMotorAp.uiMotorFBDir, \
                                          sMotor->sMotorBp.uiMotorFBDir, \
                                          sMotor->sMotorCp.uiMotorFBDir, \
                                          sMotor->sMotorDp.uiMotorFBDir);
#endif
}
 4003aa8:	e037883a 	mov	sp,fp
 4003aac:	df000017 	ldw	fp,0(sp)
 4003ab0:	dec00104 	addi	sp,sp,4
 4003ab4:	f800283a 	ret

04003ab8 <Read4XMotorEncoder>:
void Read4XMotorEncoder(sMotor_s *sMotor){
 4003ab8:	defffe04 	addi	sp,sp,-8
 4003abc:	df000115 	stw	fp,4(sp)
 4003ac0:	df000104 	addi	fp,sp,4
 4003ac4:	e13fff15 	stw	r4,-4(fp)

    sMotor->sMotorAp.iMotorFBEncoder = IORD(SYSREG_BASE, 7);
 4003ac8:	00860704 	movi	r2,6172
 4003acc:	10c00037 	ldwio	r3,0(r2)
 4003ad0:	e0bfff17 	ldw	r2,-4(fp)
 4003ad4:	10c00915 	stw	r3,36(r2)
    sMotor->sMotorBp.iMotorFBEncoder = IORD(SYSREG_BASE, 12);
 4003ad8:	00860c04 	movi	r2,6192
 4003adc:	10c00037 	ldwio	r3,0(r2)
 4003ae0:	e0bfff17 	ldw	r2,-4(fp)
 4003ae4:	10c01815 	stw	r3,96(r2)
    sMotor->sMotorCp.iMotorFBEncoder = IORD(SYSREG_BASE, 17);
 4003ae8:	00861104 	movi	r2,6212
 4003aec:	10c00037 	ldwio	r3,0(r2)
 4003af0:	e0bfff17 	ldw	r2,-4(fp)
 4003af4:	10c02715 	stw	r3,156(r2)
    sMotor->sMotorDp.iMotorFBEncoder = IORD(SYSREG_BASE, 22);
 4003af8:	00861604 	movi	r2,6232
 4003afc:	10c00037 	ldwio	r3,0(r2)
 4003b00:	e0bfff17 	ldw	r2,-4(fp)
 4003b04:	10c03615 	stw	r3,216(r2)
    LOGD("A(%6d), B(%6d), C(%6d), D(%6d).\n", sMotor->sMotorAp.iMotorFBEncoder, \
                                             sMotor->sMotorBp.iMotorFBEncoder, \
                                             sMotor->sMotorCp.iMotorFBEncoder, \
                                             sMotor->sMotorDp.iMotorFBEncoder);
#endif
}
 4003b08:	e037883a 	mov	sp,fp
 4003b0c:	df000017 	ldw	fp,0(sp)
 4003b10:	dec00104 	addi	sp,sp,4
 4003b14:	f800283a 	ret

04003b18 <Read4XMotorSpeed>:
void Read4XMotorSpeed(sMotor_s *sMotor){
 4003b18:	defffd04 	addi	sp,sp,-12
 4003b1c:	df000215 	stw	fp,8(sp)
 4003b20:	df000204 	addi	fp,sp,8
 4003b24:	e13fff15 	stw	r4,-4(fp)
//                                        [14]: Motor D voltage sensor fifo status, (1: indicated fifo not empty)
//                                        [15]: Motor D current sensor fifo status, (1: indicated fifo not empty)
//                                        [30:16]: reserve.
//                                     */
    /*-------------read speed ---------------*/
    uiFifostatus = IORD(SYSREG_BASE, 4); /* r04 motor fifo status */
 4003b28:	00860404 	movi	r2,6160
 4003b2c:	10800037 	ldwio	r2,0(r2)
 4003b30:	e0bffe15 	stw	r2,-8(fp)
    if(uiFifostatus & 0x01){ /* check motor A speed fifo status */
 4003b34:	e0bffe17 	ldw	r2,-8(fp)
 4003b38:	1080004c 	andi	r2,r2,1
 4003b3c:	10803fcc 	andi	r2,r2,255
 4003b40:	1005003a 	cmpeq	r2,r2,zero
 4003b44:	1000171e 	bne	r2,zero,4003ba4 <Read4XMotorSpeed+0x8c>
        sMotor->sMotorAp.uiMotorFBSpeed = IORD(SYSREG_BASE, 8); /* motor A speed counter */
 4003b48:	00860804 	movi	r2,6176
 4003b4c:	10800037 	ldwio	r2,0(r2)
 4003b50:	1007883a 	mov	r3,r2
 4003b54:	e0bfff17 	ldw	r2,-4(fp)
 4003b58:	10c00815 	stw	r3,32(r2)
        sMotor->sMotorAp.uiMotorFBSpeedAcc += sMotor->sMotorAp.uiMotorFBSpeed;
 4003b5c:	e0bfff17 	ldw	r2,-4(fp)
 4003b60:	10c00e17 	ldw	r3,56(r2)
 4003b64:	e0bfff17 	ldw	r2,-4(fp)
 4003b68:	10800817 	ldw	r2,32(r2)
 4003b6c:	1887883a 	add	r3,r3,r2
 4003b70:	e0bfff17 	ldw	r2,-4(fp)
 4003b74:	10c00e15 	stw	r3,56(r2)
        sMotor->sMotorAp.uiMotorFBSpeedAccCnt++;
 4003b78:	e0bfff17 	ldw	r2,-4(fp)
 4003b7c:	10800f17 	ldw	r2,60(r2)
 4003b80:	10c00044 	addi	r3,r2,1
 4003b84:	e0bfff17 	ldw	r2,-4(fp)
 4003b88:	10c00f15 	stw	r3,60(r2)
        sMotor->sMotorAp.uiMotorFBSpeed |= 0x8000; /* + dval */
 4003b8c:	e0bfff17 	ldw	r2,-4(fp)
 4003b90:	10800817 	ldw	r2,32(r2)
 4003b94:	10e00014 	ori	r3,r2,32768
 4003b98:	e0bfff17 	ldw	r2,-4(fp)
 4003b9c:	10c00815 	stw	r3,32(r2)
 4003ba0:	00000706 	br	4003bc0 <Read4XMotorSpeed+0xa8>

    }else{
        sMotor->sMotorAp.uiMotorFBSpeed &= 0xFFFF7FFF; /* clear dval */
 4003ba4:	e0bfff17 	ldw	r2,-4(fp)
 4003ba8:	10c00817 	ldw	r3,32(r2)
 4003bac:	00bffff4 	movhi	r2,65535
 4003bb0:	109fffc4 	addi	r2,r2,32767
 4003bb4:	1886703a 	and	r3,r3,r2
 4003bb8:	e0bfff17 	ldw	r2,-4(fp)
 4003bbc:	10c00815 	stw	r3,32(r2)
//            sMotor->sMotorAp.uiMotorFBSpeed = 0xdeadbeef; /* no data */
//        }
//    }else{
//    	sMotor->sMotorAp.uiMotorFBSpeed = 0xdeadbeef; /* no data */
//    }
    if(uiFifostatus & 0x02){ /* check motor B speed fifo status */
 4003bc0:	e0bffe17 	ldw	r2,-8(fp)
 4003bc4:	1080008c 	andi	r2,r2,2
 4003bc8:	1005003a 	cmpeq	r2,r2,zero
 4003bcc:	1000171e 	bne	r2,zero,4003c2c <Read4XMotorSpeed+0x114>
        sMotor->sMotorBp.uiMotorFBSpeed = IORD(SYSREG_BASE, 13); /* motor A speed counter */
 4003bd0:	00860d04 	movi	r2,6196
 4003bd4:	10800037 	ldwio	r2,0(r2)
 4003bd8:	1007883a 	mov	r3,r2
 4003bdc:	e0bfff17 	ldw	r2,-4(fp)
 4003be0:	10c01715 	stw	r3,92(r2)
        sMotor->sMotorBp.uiMotorFBSpeedAcc += sMotor->sMotorBp.uiMotorFBSpeed;
 4003be4:	e0bfff17 	ldw	r2,-4(fp)
 4003be8:	10c01d17 	ldw	r3,116(r2)
 4003bec:	e0bfff17 	ldw	r2,-4(fp)
 4003bf0:	10801717 	ldw	r2,92(r2)
 4003bf4:	1887883a 	add	r3,r3,r2
 4003bf8:	e0bfff17 	ldw	r2,-4(fp)
 4003bfc:	10c01d15 	stw	r3,116(r2)
        sMotor->sMotorBp.uiMotorFBSpeedAccCnt++;
 4003c00:	e0bfff17 	ldw	r2,-4(fp)
 4003c04:	10801e17 	ldw	r2,120(r2)
 4003c08:	10c00044 	addi	r3,r2,1
 4003c0c:	e0bfff17 	ldw	r2,-4(fp)
 4003c10:	10c01e15 	stw	r3,120(r2)
        sMotor->sMotorBp.uiMotorFBSpeed |= 0x8000; /* + dval */
 4003c14:	e0bfff17 	ldw	r2,-4(fp)
 4003c18:	10801717 	ldw	r2,92(r2)
 4003c1c:	10e00014 	ori	r3,r2,32768
 4003c20:	e0bfff17 	ldw	r2,-4(fp)
 4003c24:	10c01715 	stw	r3,92(r2)
 4003c28:	00000706 	br	4003c48 <Read4XMotorSpeed+0x130>
    }else{
        sMotor->sMotorBp.uiMotorFBSpeed &= 0xFFFF7FFF; /* clear dval */
 4003c2c:	e0bfff17 	ldw	r2,-4(fp)
 4003c30:	10c01717 	ldw	r3,92(r2)
 4003c34:	00bffff4 	movhi	r2,65535
 4003c38:	109fffc4 	addi	r2,r2,32767
 4003c3c:	1886703a 	and	r3,r3,r2
 4003c40:	e0bfff17 	ldw	r2,-4(fp)
 4003c44:	10c01715 	stw	r3,92(r2)
//            sMotor->sMotorBp.uiMotorFBSpeed = 0xdeadbeef; /* no data */
//        }
//    }else{
//    	sMotor->sMotorBp.uiMotorFBSpeed = 0xdeadbeef; /* no data */
//    }
    if(uiFifostatus & 0x04){ /* check motor C speed fifo status */
 4003c48:	e0bffe17 	ldw	r2,-8(fp)
 4003c4c:	1080010c 	andi	r2,r2,4
 4003c50:	1005003a 	cmpeq	r2,r2,zero
 4003c54:	1000171e 	bne	r2,zero,4003cb4 <Read4XMotorSpeed+0x19c>
        sMotor->sMotorCp.uiMotorFBSpeed = IORD(SYSREG_BASE, 18); /* motor A speed counter */
 4003c58:	00861204 	movi	r2,6216
 4003c5c:	10800037 	ldwio	r2,0(r2)
 4003c60:	1007883a 	mov	r3,r2
 4003c64:	e0bfff17 	ldw	r2,-4(fp)
 4003c68:	10c02615 	stw	r3,152(r2)
        sMotor->sMotorCp.uiMotorFBSpeedAcc += sMotor->sMotorCp.uiMotorFBSpeed;
 4003c6c:	e0bfff17 	ldw	r2,-4(fp)
 4003c70:	10c02c17 	ldw	r3,176(r2)
 4003c74:	e0bfff17 	ldw	r2,-4(fp)
 4003c78:	10802617 	ldw	r2,152(r2)
 4003c7c:	1887883a 	add	r3,r3,r2
 4003c80:	e0bfff17 	ldw	r2,-4(fp)
 4003c84:	10c02c15 	stw	r3,176(r2)
        sMotor->sMotorCp.uiMotorFBSpeedAccCnt++;
 4003c88:	e0bfff17 	ldw	r2,-4(fp)
 4003c8c:	10802d17 	ldw	r2,180(r2)
 4003c90:	10c00044 	addi	r3,r2,1
 4003c94:	e0bfff17 	ldw	r2,-4(fp)
 4003c98:	10c02d15 	stw	r3,180(r2)
        sMotor->sMotorCp.uiMotorFBSpeed |= 0x8000; /* + dval */
 4003c9c:	e0bfff17 	ldw	r2,-4(fp)
 4003ca0:	10802617 	ldw	r2,152(r2)
 4003ca4:	10e00014 	ori	r3,r2,32768
 4003ca8:	e0bfff17 	ldw	r2,-4(fp)
 4003cac:	10c02615 	stw	r3,152(r2)
 4003cb0:	00000706 	br	4003cd0 <Read4XMotorSpeed+0x1b8>
    } else{
        sMotor->sMotorCp.uiMotorFBSpeed &= 0xFFFF7FFF; /* clear dval */
 4003cb4:	e0bfff17 	ldw	r2,-4(fp)
 4003cb8:	10c02617 	ldw	r3,152(r2)
 4003cbc:	00bffff4 	movhi	r2,65535
 4003cc0:	109fffc4 	addi	r2,r2,32767
 4003cc4:	1886703a 	and	r3,r3,r2
 4003cc8:	e0bfff17 	ldw	r2,-4(fp)
 4003ccc:	10c02615 	stw	r3,152(r2)
//            sMotor->sMotorCp.uiMotorFBSpeed = 0xdeadbeef; /* no data */
//        }
//    }else{
//    	sMotor->sMotorCp.uiMotorFBSpeed = 0xdeadbeef; /* no data */
//    }
    if(uiFifostatus & 0x08){ /* check motor D speed fifo status */
 4003cd0:	e0bffe17 	ldw	r2,-8(fp)
 4003cd4:	1080020c 	andi	r2,r2,8
 4003cd8:	1005003a 	cmpeq	r2,r2,zero
 4003cdc:	1000171e 	bne	r2,zero,4003d3c <Read4XMotorSpeed+0x224>
        sMotor->sMotorDp.uiMotorFBSpeed = IORD(SYSREG_BASE, 23); /* motor A speed counter */
 4003ce0:	00861704 	movi	r2,6236
 4003ce4:	10800037 	ldwio	r2,0(r2)
 4003ce8:	1007883a 	mov	r3,r2
 4003cec:	e0bfff17 	ldw	r2,-4(fp)
 4003cf0:	10c03515 	stw	r3,212(r2)
        sMotor->sMotorDp.uiMotorFBSpeedAcc += sMotor->sMotorDp.uiMotorFBSpeed;
 4003cf4:	e0bfff17 	ldw	r2,-4(fp)
 4003cf8:	10c03b17 	ldw	r3,236(r2)
 4003cfc:	e0bfff17 	ldw	r2,-4(fp)
 4003d00:	10803517 	ldw	r2,212(r2)
 4003d04:	1887883a 	add	r3,r3,r2
 4003d08:	e0bfff17 	ldw	r2,-4(fp)
 4003d0c:	10c03b15 	stw	r3,236(r2)
        sMotor->sMotorDp.uiMotorFBSpeedAccCnt++;
 4003d10:	e0bfff17 	ldw	r2,-4(fp)
 4003d14:	10803c17 	ldw	r2,240(r2)
 4003d18:	10c00044 	addi	r3,r2,1
 4003d1c:	e0bfff17 	ldw	r2,-4(fp)
 4003d20:	10c03c15 	stw	r3,240(r2)
        sMotor->sMotorDp.uiMotorFBSpeed |= 0x8000; /* + dval */
 4003d24:	e0bfff17 	ldw	r2,-4(fp)
 4003d28:	10803517 	ldw	r2,212(r2)
 4003d2c:	10e00014 	ori	r3,r2,32768
 4003d30:	e0bfff17 	ldw	r2,-4(fp)
 4003d34:	10c03515 	stw	r3,212(r2)
 4003d38:	00000706 	br	4003d58 <Read4XMotorSpeed+0x240>
    } else{
        sMotor->sMotorDp.uiMotorFBSpeed &= 0xFFFF7FFF; /* clear dval */
 4003d3c:	e0bfff17 	ldw	r2,-4(fp)
 4003d40:	10c03517 	ldw	r3,212(r2)
 4003d44:	00bffff4 	movhi	r2,65535
 4003d48:	109fffc4 	addi	r2,r2,32767
 4003d4c:	1886703a 	and	r3,r3,r2
 4003d50:	e0bfff17 	ldw	r2,-4(fp)
 4003d54:	10c03515 	stw	r3,212(r2)
                                             sMotor->sMotorBp.uiMotorFBSpeed, \
                                             sMotor->sMotorCp.uiMotorFBSpeed, \
                                             sMotor->sMotorDp.uiMotorFBSpeed);

#endif
}
 4003d58:	e037883a 	mov	sp,fp
 4003d5c:	df000017 	ldw	fp,0(sp)
 4003d60:	dec00104 	addi	sp,sp,4
 4003d64:	f800283a 	ret

04003d68 <Read4XMotorSensor>:
void Read4XMotorSensor(sMotor_s *sMotor){
 4003d68:	defffd04 	addi	sp,sp,-12
 4003d6c:	df000215 	stw	fp,8(sp)
 4003d70:	df000204 	addi	fp,sp,8
 4003d74:	e13fff15 	stw	r4,-4(fp)
//                                        [15]: Motor D current sensor fifo status, (1: indicated fifo not empty)
//                                        [30:16]: reserve.
//                                     */

    /*-------------read voltage & current  ---------------*/
    uiFifostatus = IORD(SYSREG_BASE, 4); /* r04 motor fifo status */
 4003d78:	00860404 	movi	r2,6160
 4003d7c:	10800037 	ldwio	r2,0(r2)
 4003d80:	e0bffe15 	stw	r2,-8(fp)
    if(uiFifostatus & 0x0100){ /* check motor A voltage fifo status */
 4003d84:	e0bffe17 	ldw	r2,-8(fp)
 4003d88:	1080400c 	andi	r2,r2,256
 4003d8c:	1005003a 	cmpeq	r2,r2,zero
 4003d90:	1000171e 	bne	r2,zero,4003df0 <Read4XMotorSensor+0x88>
    	sMotor->sMotorAp.uiVoltage = IORD(SYSREG_BASE, 9) &0x0FFF; /* motor A voltage */
 4003d94:	00860904 	movi	r2,6180
 4003d98:	10800037 	ldwio	r2,0(r2)
 4003d9c:	10c3ffcc 	andi	r3,r2,4095
 4003da0:	e0bfff17 	ldw	r2,-4(fp)
 4003da4:	10c00a15 	stw	r3,40(r2)
    	sMotor->sMotorAp.uiMotorFBVoltageAcc += sMotor->sMotorAp.uiVoltage;
 4003da8:	e0bfff17 	ldw	r2,-4(fp)
 4003dac:	10c01017 	ldw	r3,64(r2)
 4003db0:	e0bfff17 	ldw	r2,-4(fp)
 4003db4:	10800a17 	ldw	r2,40(r2)
 4003db8:	1887883a 	add	r3,r3,r2
 4003dbc:	e0bfff17 	ldw	r2,-4(fp)
 4003dc0:	10c01015 	stw	r3,64(r2)
    	sMotor->sMotorAp.uiMotorFBVoltageAccCnt++;
 4003dc4:	e0bfff17 	ldw	r2,-4(fp)
 4003dc8:	10801117 	ldw	r2,68(r2)
 4003dcc:	10c00044 	addi	r3,r2,1
 4003dd0:	e0bfff17 	ldw	r2,-4(fp)
 4003dd4:	10c01115 	stw	r3,68(r2)
    	sMotor->sMotorAp.uiVoltage = sMotor->sMotorAp.uiVoltage | 0x8000; /* +dval */
 4003dd8:	e0bfff17 	ldw	r2,-4(fp)
 4003ddc:	10800a17 	ldw	r2,40(r2)
 4003de0:	10e00014 	ori	r3,r2,32768
 4003de4:	e0bfff17 	ldw	r2,-4(fp)
 4003de8:	10c00a15 	stw	r3,40(r2)
 4003dec:	00000706 	br	4003e0c <Read4XMotorSensor+0xa4>
    } else{
        sMotor->sMotorAp.uiVoltage = sMotor->sMotorAp.uiVoltage & 0xffff7fff; /* clear dval */
 4003df0:	e0bfff17 	ldw	r2,-4(fp)
 4003df4:	10c00a17 	ldw	r3,40(r2)
 4003df8:	00bffff4 	movhi	r2,65535
 4003dfc:	109fffc4 	addi	r2,r2,32767
 4003e00:	1886703a 	and	r3,r3,r2
 4003e04:	e0bfff17 	ldw	r2,-4(fp)
 4003e08:	10c00a15 	stw	r3,40(r2)
//        sMotor->sMotorAp.uiVoltage = 0xdeedbeef; /* motor A voltage */
    }

    if(uiFifostatus & 0x0200){ /* check motor A current fifo status */
 4003e0c:	e0bffe17 	ldw	r2,-8(fp)
 4003e10:	1080800c 	andi	r2,r2,512
 4003e14:	1005003a 	cmpeq	r2,r2,zero
 4003e18:	1000171e 	bne	r2,zero,4003e78 <Read4XMotorSensor+0x110>
    	sMotor->sMotorAp.uiCurrent = IORD(SYSREG_BASE, 10)&0x0FFF; /* motor A current */
 4003e1c:	00860a04 	movi	r2,6184
 4003e20:	10800037 	ldwio	r2,0(r2)
 4003e24:	10c3ffcc 	andi	r3,r2,4095
 4003e28:	e0bfff17 	ldw	r2,-4(fp)
 4003e2c:	10c00b15 	stw	r3,44(r2)
        sMotor->sMotorAp.uiMotorFBCurrentAcc += sMotor->sMotorAp.uiCurrent;
 4003e30:	e0bfff17 	ldw	r2,-4(fp)
 4003e34:	10c01217 	ldw	r3,72(r2)
 4003e38:	e0bfff17 	ldw	r2,-4(fp)
 4003e3c:	10800b17 	ldw	r2,44(r2)
 4003e40:	1887883a 	add	r3,r3,r2
 4003e44:	e0bfff17 	ldw	r2,-4(fp)
 4003e48:	10c01215 	stw	r3,72(r2)
        sMotor->sMotorAp.uiMotorFBCurrentAccCnt++;
 4003e4c:	e0bfff17 	ldw	r2,-4(fp)
 4003e50:	10801317 	ldw	r2,76(r2)
 4003e54:	10c00044 	addi	r3,r2,1
 4003e58:	e0bfff17 	ldw	r2,-4(fp)
 4003e5c:	10c01315 	stw	r3,76(r2)
        sMotor->sMotorAp.uiVoltage = sMotor->sMotorAp.uiVoltage | 0x8000; /* +dval */
 4003e60:	e0bfff17 	ldw	r2,-4(fp)
 4003e64:	10800a17 	ldw	r2,40(r2)
 4003e68:	10e00014 	ori	r3,r2,32768
 4003e6c:	e0bfff17 	ldw	r2,-4(fp)
 4003e70:	10c00a15 	stw	r3,40(r2)
 4003e74:	00000706 	br	4003e94 <Read4XMotorSensor+0x12c>
    } else{
        sMotor->sMotorAp.uiVoltage = sMotor->sMotorAp.uiVoltage & 0xffff7fff; /* clear dval */
 4003e78:	e0bfff17 	ldw	r2,-4(fp)
 4003e7c:	10c00a17 	ldw	r3,40(r2)
 4003e80:	00bffff4 	movhi	r2,65535
 4003e84:	109fffc4 	addi	r2,r2,32767
 4003e88:	1886703a 	and	r3,r3,r2
 4003e8c:	e0bfff17 	ldw	r2,-4(fp)
 4003e90:	10c00a15 	stw	r3,40(r2)
//        sMotor->sMotorAp.uiCurrent = 0xdeedbeef; /* motor A Current */z
    }

    if(uiFifostatus & 0x0400){ /* check motor B voltage fifo status */
 4003e94:	e0bffe17 	ldw	r2,-8(fp)
 4003e98:	1081000c 	andi	r2,r2,1024
 4003e9c:	1005003a 	cmpeq	r2,r2,zero
 4003ea0:	1000171e 	bne	r2,zero,4003f00 <Read4XMotorSensor+0x198>
        sMotor->sMotorBp.uiVoltage = IORD(SYSREG_BASE, 14)&0x0FFF; /* motor B voltage */
 4003ea4:	00860e04 	movi	r2,6200
 4003ea8:	10800037 	ldwio	r2,0(r2)
 4003eac:	10c3ffcc 	andi	r3,r2,4095
 4003eb0:	e0bfff17 	ldw	r2,-4(fp)
 4003eb4:	10c01915 	stw	r3,100(r2)
        sMotor->sMotorBp.uiMotorFBVoltageAcc += sMotor->sMotorBp.uiVoltage;
 4003eb8:	e0bfff17 	ldw	r2,-4(fp)
 4003ebc:	10c01f17 	ldw	r3,124(r2)
 4003ec0:	e0bfff17 	ldw	r2,-4(fp)
 4003ec4:	10801917 	ldw	r2,100(r2)
 4003ec8:	1887883a 	add	r3,r3,r2
 4003ecc:	e0bfff17 	ldw	r2,-4(fp)
 4003ed0:	10c01f15 	stw	r3,124(r2)
        sMotor->sMotorBp.uiMotorFBVoltageAccCnt++;
 4003ed4:	e0bfff17 	ldw	r2,-4(fp)
 4003ed8:	10802017 	ldw	r2,128(r2)
 4003edc:	10c00044 	addi	r3,r2,1
 4003ee0:	e0bfff17 	ldw	r2,-4(fp)
 4003ee4:	10c02015 	stw	r3,128(r2)
        sMotor->sMotorBp.uiVoltage = sMotor->sMotorBp.uiVoltage | 0x8000; /* +dval */
 4003ee8:	e0bfff17 	ldw	r2,-4(fp)
 4003eec:	10801917 	ldw	r2,100(r2)
 4003ef0:	10e00014 	ori	r3,r2,32768
 4003ef4:	e0bfff17 	ldw	r2,-4(fp)
 4003ef8:	10c01915 	stw	r3,100(r2)
 4003efc:	00000706 	br	4003f1c <Read4XMotorSensor+0x1b4>
    } else{
        sMotor->sMotorBp.uiVoltage = sMotor->sMotorBp.uiVoltage & 0xffff7fff; /* clear dval */
 4003f00:	e0bfff17 	ldw	r2,-4(fp)
 4003f04:	10c01917 	ldw	r3,100(r2)
 4003f08:	00bffff4 	movhi	r2,65535
 4003f0c:	109fffc4 	addi	r2,r2,32767
 4003f10:	1886703a 	and	r3,r3,r2
 4003f14:	e0bfff17 	ldw	r2,-4(fp)
 4003f18:	10c01915 	stw	r3,100(r2)
//        sMotor->sMotorAp.uiCurrent = 0xdeedbeef; /* motor A Current */z
    }
//    }else{
//        sMotor->sMotorBp.uiVoltage = 0xdeedbeef; /* motor B voltage */
//    }
    if(uiFifostatus & 0x0800){ /* check motor B current fifo status */
 4003f1c:	e0bffe17 	ldw	r2,-8(fp)
 4003f20:	1082000c 	andi	r2,r2,2048
 4003f24:	1005003a 	cmpeq	r2,r2,zero
 4003f28:	1000171e 	bne	r2,zero,4003f88 <Read4XMotorSensor+0x220>
        sMotor->sMotorBp.uiCurrent = IORD(SYSREG_BASE, 15)&0x0FFF; /* motor B current */
 4003f2c:	00860f04 	movi	r2,6204
 4003f30:	10800037 	ldwio	r2,0(r2)
 4003f34:	10c3ffcc 	andi	r3,r2,4095
 4003f38:	e0bfff17 	ldw	r2,-4(fp)
 4003f3c:	10c01a15 	stw	r3,104(r2)
        sMotor->sMotorBp.uiMotorFBCurrentAcc += sMotor->sMotorBp.uiCurrent;
 4003f40:	e0bfff17 	ldw	r2,-4(fp)
 4003f44:	10c02117 	ldw	r3,132(r2)
 4003f48:	e0bfff17 	ldw	r2,-4(fp)
 4003f4c:	10801a17 	ldw	r2,104(r2)
 4003f50:	1887883a 	add	r3,r3,r2
 4003f54:	e0bfff17 	ldw	r2,-4(fp)
 4003f58:	10c02115 	stw	r3,132(r2)
        sMotor->sMotorBp.uiMotorFBCurrentAccCnt++;
 4003f5c:	e0bfff17 	ldw	r2,-4(fp)
 4003f60:	10802217 	ldw	r2,136(r2)
 4003f64:	10c00044 	addi	r3,r2,1
 4003f68:	e0bfff17 	ldw	r2,-4(fp)
 4003f6c:	10c02215 	stw	r3,136(r2)
        sMotor->sMotorBp.uiCurrent = sMotor->sMotorBp.uiCurrent | 0x8000; /* +dval */
 4003f70:	e0bfff17 	ldw	r2,-4(fp)
 4003f74:	10801a17 	ldw	r2,104(r2)
 4003f78:	10e00014 	ori	r3,r2,32768
 4003f7c:	e0bfff17 	ldw	r2,-4(fp)
 4003f80:	10c01a15 	stw	r3,104(r2)
 4003f84:	00000706 	br	4003fa4 <Read4XMotorSensor+0x23c>
    } else{
        sMotor->sMotorBp.uiCurrent = sMotor->sMotorBp.uiCurrent & 0xffff7fff; /* clear dval */
 4003f88:	e0bfff17 	ldw	r2,-4(fp)
 4003f8c:	10c01a17 	ldw	r3,104(r2)
 4003f90:	00bffff4 	movhi	r2,65535
 4003f94:	109fffc4 	addi	r2,r2,32767
 4003f98:	1886703a 	and	r3,r3,r2
 4003f9c:	e0bfff17 	ldw	r2,-4(fp)
 4003fa0:	10c01a15 	stw	r3,104(r2)
//        sMotor->sMotorAp.uiCurrent = 0xdeedbeef; /* motor A Current */z
    }
//    }else{
//        sMotor->sMotorBp.uiCurrent = 0xdeedbeef; /* motor B Current */
//    }
    if(uiFifostatus & 0x1000){ /* check motor C voltage fifo status */
 4003fa4:	e0bffe17 	ldw	r2,-8(fp)
 4003fa8:	1084000c 	andi	r2,r2,4096
 4003fac:	1005003a 	cmpeq	r2,r2,zero
 4003fb0:	1000171e 	bne	r2,zero,4004010 <Read4XMotorSensor+0x2a8>
    	sMotor->sMotorCp.uiVoltage = IORD(SYSREG_BASE, 19)&0x0FFF; /* motor C voltage */
 4003fb4:	00861304 	movi	r2,6220
 4003fb8:	10800037 	ldwio	r2,0(r2)
 4003fbc:	10c3ffcc 	andi	r3,r2,4095
 4003fc0:	e0bfff17 	ldw	r2,-4(fp)
 4003fc4:	10c02815 	stw	r3,160(r2)
        sMotor->sMotorCp.uiMotorFBVoltageAcc += sMotor->sMotorCp.uiVoltage;
 4003fc8:	e0bfff17 	ldw	r2,-4(fp)
 4003fcc:	10c02e17 	ldw	r3,184(r2)
 4003fd0:	e0bfff17 	ldw	r2,-4(fp)
 4003fd4:	10802817 	ldw	r2,160(r2)
 4003fd8:	1887883a 	add	r3,r3,r2
 4003fdc:	e0bfff17 	ldw	r2,-4(fp)
 4003fe0:	10c02e15 	stw	r3,184(r2)
        sMotor->sMotorCp.uiMotorFBVoltageAccCnt++;
 4003fe4:	e0bfff17 	ldw	r2,-4(fp)
 4003fe8:	10802f17 	ldw	r2,188(r2)
 4003fec:	10c00044 	addi	r3,r2,1
 4003ff0:	e0bfff17 	ldw	r2,-4(fp)
 4003ff4:	10c02f15 	stw	r3,188(r2)
